MPASM  5.49                      RTCCON~1.ASM   1-27-2021  11:00:41         PAGE  1


LOC  OBJECT CODE     LINE SOURCE TEXT
  VALUE

                      00001 
                      00002 ; PICBASIC PRO(TM) Compiler 2.50, (c) 1998, 2007 microEngineering Labs, Inc. All Rights Reserved.  
  00000001            00003 _USED                   EQU     1
                      00004 
                      00005         INCLUDE "C:\PBP\16F628A.INC"
                      00001 ;****************************************************************
                      00002 ;*  16F628A.INC                                                 *
                      00003 ;*                                                              *
                      00004 ;*  By        : Leonard Zerman, Jeff Schmoyer                   *
                      00005 ;*  Notice    : Copyright (c) 2003 microEngineering Labs, Inc.  *
                      00006 ;*              All Rights Reserved                             *
                      00007 ;*  Date      : 11/06/03                                        *
                      00008 ;*  Version   : 2.45                                            *
                      00009 ;*  Notes     :                                                 *
                      00010 ;****************************************************************
                      00019         LIST
                      00020         LIST p = 16F628A, r = dec, w = -302
                      00021         INCLUDE "P16F628A.INC"  ; MPASM  Header
                      00001         LIST
                      00002 
                      00003 ;==========================================================================
                      00004 ;  MPASM PIC16F628A processor include
                      00005 ; 
                      00006 ;  (c) Copyright 1999-2013 Microchip Technology, All rights reserved
                      00007 ;==========================================================================
                      00008 
                      00385         LIST
2007   3F6D           00022         __config _XT_OSC & _WDT_ON & _MCLRE_ON & _LVP_OFF & _CP_OFF
                      00025         LIST
                      00006 
                      00007 
                      00008 ; Define statements.
                      00009 #define         LCD_DREG                 PORTA 
                      00010 #define         LCD_DBIT                 0 
                      00011 #define         LCD_RSREG                PORTB 
                      00012 #define         LCD_RSBIT                0 
                      00013 #define         LCD_EREG                 PORTB 
                      00014 #define         LCD_EBIT                 1
                      00015 #define         I2C_SCLOUT               1 ;para que no necesite resistencia pull-up en SCL
                      00016 
  00000020            00017 RAM_START                       EQU     00020h
  0000014F            00018 RAM_END                         EQU     0014Fh
  00000003            00019 RAM_BANKS                       EQU     00003h
  00000020            00020 BANK0_START                     EQU     00020h
  0000007F            00021 BANK0_END                       EQU     0007Fh
  000000A0            00022 BANK1_START                     EQU     000A0h
  000000EF            00023 BANK1_END                       EQU     000EFh
  00000120            00024 BANK2_START                     EQU     00120h
  0000014F            00025 BANK2_END                       EQU     0014Fh
  00002100            00026 EEPROM_START                    EQU     02100h
  0000217F            00027 EEPROM_END                      EQU     0217Fh
                      00028 
  00000020            00029 R0                              EQU     RAM_START + 000h
MPASM  5.49                      RTCCON~1.ASM   1-27-2021  11:00:41         PAGE  2


LOC  OBJECT CODE     LINE SOURCE TEXT
  VALUE

  00000022            00030 R1                              EQU     RAM_START + 002h
  00000024            00031 R2                              EQU     RAM_START + 004h
  00000026            00032 R3                              EQU     RAM_START + 006h
  00000028            00033 R4                              EQU     RAM_START + 008h
  0000002A            00034 R5                              EQU     RAM_START + 00Ah
  0000002C            00035 R6                              EQU     RAM_START + 00Ch
  0000002E            00036 R7                              EQU     RAM_START + 00Eh
  00000030            00037 R8                              EQU     RAM_START + 010h
  00000032            00038 FLAGS                           EQU     RAM_START + 012h
  00000033            00039 GOP                             EQU     RAM_START + 013h
  00000034            00040 RM1                             EQU     RAM_START + 014h
  00000035            00041 RM2                             EQU     RAM_START + 015h
  00000036            00042 RR1                             EQU     RAM_START + 016h
  00000037            00043 RR2                             EQU     RAM_START + 017h
  00000038            00044 _anio                           EQU     RAM_START + 018h
  00000039            00045 _diaF                           EQU     RAM_START + 019h
  0000003A            00046 _diaS                           EQU     RAM_START + 01Ah
  0000003B            00047 _hora                           EQU     RAM_START + 01Bh
  0000003C            00048 _mes                            EQU     RAM_START + 01Ch
  0000003D            00049 _minu                           EQU     RAM_START + 01Dh
  0000003E            00050 PB01                            EQU     RAM_START + 01Eh
  0000003F            00051 _segu                           EQU     RAM_START + 01Fh
  00000006            00052 _PORTL                          EQU      PORTB
  00000005            00053 _PORTH                          EQU      PORTA
  00000086            00054 _TRISL                          EQU      TRISB
  00000085            00055 _TRISH                          EQU      TRISA
                      00056 #define _CPIN                   _PORTB??7
                      00057 #define _DPIN                   _PORTB??6
                      00058 #define _actualizado             PB01, 000h
                      00059 #define _PORTB??7                PORTB, 007h
                      00060 #define _PORTB??6                PORTB, 006h
                      00061         INCLUDE "RTCCON~1.MAC"
                      00001 
                      00106         LIST
                      00062         INCLUDE "C:\PBP\PBPPIC14.LIB"
                      00001 ;******************************************************************
                      00002 ;*  PBPPIC14.LIB                                                  *
                      00003 ;*                                                                *
                      00004 ;*  By        : Leonard Zerman, Jeff Schmoyer                     *
                      00005 ;*  Notice    : Copyright (c) 2007 microEngineering Labs, Inc.    *
                      00006 ;*              All Rights Reserved                               *
                      00007 ;*  Date      : 08/01/07                                          *
                      00008 ;*  Version   : 2.50                                              *
                      00009 ;*  Notes     :                                                   *
                      00010 ;******************************************************************
                      00046   LIST
                      00047 ; Oscillator is 4MHz
                      01112   LIST
0000                  01113     ORG 0                       ; Reset vector at 0
                      01122   LIST
0000   01B2           01123         clrf    FLAGS           ; Clear all flags on reset
                      01127   LIST
0001   2916           01128         goto    INIT            ; Finish initialization
MPASM  5.49                      RTCCON~1.ASM   1-27-2021  11:00:41         PAGE  3


LOC  OBJECT CODE     LINE SOURCE TEXT
  VALUE

                      02392   LIST
0002   16B2           02393 I2CREADS bsf    I2CSTOPFLAG     ; Indicate Stop after this byte
0003   1EB2           02394         btfss   I2CSTOPFLAG     ; Skip next always
0004   12B2           02395 I2CREAD bcf     I2CSTOPFLAG     ; Don't Stop
0005   19B2           02396         btfsc   I2CREADFLAG     ; Already reading?
0006   280B           02397         goto    i2creadip       ; Yes
0007   15B2           02398         bsf     I2CREADFLAG     ; Indicate read
0008   2044           02399         call    i2cstart        ; Send Start condition and command
0009   1803           02400         btfsc   STATUS, C       ; Acknowledged?
000A   2832           02401         goto    i2cstop         ; No
                      02402 
000B   3008           02403 i2creadip movlw 8               ; 8 bits to a byte
000C   00A3           02404         movwf   R1 + 1          ; Bit counter
000D   2058           02405 i2creadloop call i2cgetbit      ; Get a bit
000E   0DA2           02406         rlf     R1, F           ; Put bit away
000F   0BA3           02407         decfsz  R1 + 1, F       ; Do next, if any
0010   280D           02408         goto    i2creadloop
0011   1EB2           02409         btfss   I2CSTOPFLAG     ; Send stop?
0012   203D           02410         call    i2cdal          ; No, send acknowledge
0013   2062           02411         call    i2cckh          ; Toggle clock in any case
0014   205E           02412         call    i2cckl
0015   1AB2           02413         btfsc   I2CSTOPFLAG     ; Send stop?
0016   2032           02414         call    i2cstop         ; Yes, send Stop condition
0017   2037           02415         call    i2cdah          ; Make sure data ends up as input
0018   0822           02416         movf    R1, W           ; Get result to W
0019   1003           02417         bcf     STATUS, C       ; Clear Carry for OK return
001A   2911           02418         goto    DONE
                      02487   LIST
001B   16B2           02488 I2CWRITES bsf   I2CSTOPFLAG     ; Indicate Stop after this byte
001C   1EB2           02489         btfss   I2CSTOPFLAG     ; Skip next always
001D   12B2           02490 I2CWRITE bcf    I2CSTOPFLAG     ; Don't Stop
001E   1932           02491         btfsc   I2CFIRSTFLAG    ; Check for first I2C char (command)
001F   2825           02492         goto    i2cwrite2       ; No
0020   39FE           02493         andlw   0feh            ; Make sure r/w bit clear
0021   00B3           02494         movwf   GOP             ; Save command
0022   1532           02495         bsf     I2CFIRSTFLAG    ; Indicate not first anymore
0023   1003           02496         bcf     STATUS, C       ; Clear Carry for OK return
0024   2911           02497         goto    DONE            ; That's it for now
                      02498 
0025   1A32           02499 i2cwrite2 btfsc I2CWRITEFLAG    ; Already writing?
0026   282D           02500         goto    i2cwriteip      ; Yes
0027   00A6           02501         movwf   R3              ; Save char
0028   1632           02502         bsf     I2CWRITEFLAG    ; Indicate write
0029   2044           02503         call    i2cstart        ; Send Start condition and command
002A   1803           02504         btfsc   STATUS, C       ; Acknowledged?
002B   2832           02505         goto    i2cstop         ; No
002C   0826           02506         movf    R3, W           ; Get char back
002D   204B           02507 i2cwriteip call i2cwritec       ; Write character
002E   1803           02508         btfsc   STATUS, C       ; Acknowledged?
002F   2832           02509         goto    i2cstop         ; No
0030   1EB2           02510         btfss   I2CSTOPFLAG     ; Send stop bit?
0031   2911           02511         goto    DONE            ; No
                      02512 
MPASM  5.49                      RTCCON~1.ASM   1-27-2021  11:00:41         PAGE  4


LOC  OBJECT CODE     LINE SOURCE TEXT
  VALUE

0032   203D           02513 i2cstop call    i2cdal          ; 10/8 Start data low
0033   2062           02514         call    i2cckh          ; 13/12 Set clock high (input)
0034   1132           02515         bcf     I2CFIRSTFLAG    ; 1 Reset first char flag
0035   1232           02516         bcf     I2CWRITEFLAG    ; 1 No longer writing
0036   11B2           02517         bcf     I2CREADFLAG     ; 1 No longer reading either
                      02518 ;       goto    i2cdah          ; Set data high (input) (fall through)
                      02519 
0037   0836           02520 i2cdah  movf    RR1, W          ; 1 (9/8) Get pointer to data pin
0038   0084           02521         movwf   FSR             ; 1
0039   0834           02522         movf    RM1, W          ; 1
003A                  02523 i2chigh
                      02524       ifndef I2C_INTERNAL
003A   1784           02525         bsf     FSR, 7          ; 1 Point to TRIS
                      02526       endif
003B   0480           02527         iorwf   INDF, F         ; 1 Set high (input)
003C   2843           02528         goto    i2chl           ; 2
                      02529 
003D   0836           02530 i2cdal  movf    RR1, W          ; 1 (8/6) Get pointer to data pin
003E   0084           02531         movwf   FSR             ; 1
003F   0934           02532         comf    RM1, W          ; 1
0040   0580           02533 i2clow  andwf   INDF, F         ; 1 Set low
                      02534       ifndef I2C_INTERNAL
0041   1784           02535         bsf     FSR, 7          ; 1 Point to TRIS
0042   0580           02536         andwf   INDF, F         ; 1 Set to output
                      02537       endif
0043                  02538 i2chl
                      02539       ifndef I2C_SLOW
0043   0008           02540         return                  ; 2
                      02541       else
                      02542           if (OSC > 12)
                      02543         goto    $ + 1           ; 2
                      02544           endif
                      02545           if (OSC > 16)
                      02546         goto    $ + 1           ; 2
                      02547           endif
                      02548           if (OSC > 20)
                      02549         goto    $ + 1           ; 2
                      02550           endif
                      02551         goto    DONE            ; 8
                      02552       endif
                      02553 
0044   2037           02554 i2cstart call   i2cdah          ; 11/10 Make sure bus is idle
0045   2062           02555         call    i2cckh          ; 13/12
                      02556       ifdef I2C_SLOW
                      02557         call    DONERET         ; 4
                      02558       endif
0046   203D           02559         call    i2cdal          ; 10/8 Send Start condition
0047   205E           02560         call    i2cckl          ; 12/10
0048   0833           02561         movf    GOP, W          ; 1 Get command
0049   19B2           02562         btfsc   I2CREADFLAG     ; 1 / 2 Read?
004A   3801           02563         iorlw   1               ; 1 / 0 Yes, put in read bit
                      02564 
004B   00A2           02565 i2cwritec movwf R1              ; 1 Save data
MPASM  5.49                      RTCCON~1.ASM   1-27-2021  11:00:41         PAGE  5


LOC  OBJECT CODE     LINE SOURCE TEXT
  VALUE

004C   3008           02566         movlw   8               ; 1 8 bits to send
004D   00A3           02567         movwf   R1 + 1          ; 1 Bit counter
004E   0DA2           02568 i2cwriteloop rlf R1, F          ; 1 Get a bit to send
004F   1803           02569         btfsc   STATUS, C       ; 1 / 2 Skip if no bit
0050   2037           02570         call    i2cdah          ; 11/10 / 0 Set bit high (input)
0051   1C03           02571         btfss   STATUS, C       ; 1 / 2 Skip if bit
0052   203D           02572         call    i2cdal          ; 10/8 / 0 Set bit low
0053   2062           02573         call    i2cckh          ; 13/12 Set clock high (input)
0054   205E           02574         call    i2cckl          ; 12/10 Set clock low
0055   0BA3           02575         decfsz  R1 + 1, F       ; 1 / 2 Do next bit, if any
0056   284E           02576         goto    i2cwriteloop    ; 2
0057   2037           02577         call    i2cdah          ; 11/10 Make sure data high (input)
                      02578 ;       goto    i2cgetbit       ; Get acknowledge (fall through)
                      02579 
0058   2062           02580 i2cgetbit call  i2cckh          ; 13/12 (28/25) Set clock high
0059   0836           02581         movf    RR1, W          ; 1 Point to data pin
005A   0084           02582         movwf   FSR             ; 1
005B   0834           02583         movf    RM1, W          ; 1
005C   0500           02584         andwf   INDF, W         ; 1 Isolate pin
005D   3EFF           02585         addlw   -1              ; 1 Move bit to carry
                      02586       ifdef I2C_INTERNAL
                      02587         call    i2cckl          ; Set clock low
                      02588         goto    i2cdah          ; Reset data high
                      02589       endif
                      02590 ;       goto    i2cckl          ; Set clock low (fall through)
                      02591 
005E   0837           02592 i2cckl  movf    RR2, W          ; 1 (10/8) Get pointer to clock pin
005F   0084           02593         movwf   FSR             ; 1
0060   0935           02594         comf    RM2, W          ; 1
0061   2840           02595         goto    i2clow          ; 7/5 Finish it up
                      02596 
0062   0837           02597 i2cckh  movf    RR2, W          ; 1 (11/10) Get pointer to clock pin
0063   0084           02598         movwf   FSR             ; 1
0064   0835           02599 i2chold movf    RM2, W          ; 1
                      02600       ifdef I2C_SCLOUT
0065   0480           02601         iorwf   INDF, F         ; 1 Set high
0066   1784           02602         bsf     FSR, 7          ; 1 Point to TRIS
0067   0935           02603         comf    RM2, W          ; 1 Get inverted mask
0068   0580           02604         andwf   INDF, F         ; 1 Set to output
0069   2843           02605         goto    i2chl
                      02606       else
                      02607         ifndef I2C_HOLD
                      02608         goto    i2chigh         ; 8/7 Finish it up
                      02609         else
                      02610         bsf     FSR, 7          ; 1 Point to TRIS
                      02611         iorwf   INDF, F         ; 1 Set high (input)
                      02612         bcf     FSR, 7          ; 1 Point to PORT
                      02613         andwf   INDF, W         ; 1 Isolate pin
                      02614         btfsc   STATUS, Z       ; 1 / 2 Check for still low
                      02615         goto    i2chold         ; 2 / 0 Still low
                      02616         goto    i2chl           ; 2
                      02617         endif
                      02618       endif
MPASM  5.49                      RTCCON~1.ASM   1-27-2021  11:00:41         PAGE  6


LOC  OBJECT CODE     LINE SOURCE TEXT
  VALUE

                      02784   LIST
006A   0804           02785 LCDOUTJ  movf    FSR, W          ; Jumpman entry
                      02791   LIST
006B   00A7           02792 LCDOUT  movwf   R3 + 1          ; Save char
                      02793 
006C   1086           02794         bcf     LCD_EREG, LCD_EBIT      ; Set E low
006D   1006           02795         bcf     LCD_RSREG, LCD_RSBIT    ; Set command register select
006E   1006           02796         bcf     LCD_RWREG, LCD_RWBIT    ; Set RW low (write)
                      02797 
006F   1683           02798         bsf     STATUS, RP0     ; Point to trises
0070   1086           02799         bcf     LCD_EREG, LCD_EBIT      ; Set E to output
0071   1006           02800         bcf     LCD_RSREG, LCD_RSBIT    ; Set RS to output
0072   1006           02801         bcf     LCD_RWREG, LCD_RWBIT    ; Set RW to output
                      02802     if ((LCD_BITS) == 8)
                      02803         clrf    LCD_DREG        ; Set port to all output
                      02804     else
                      02805       if ((LCD_DBIT) == 0)
0073   30F0           02806         movlw   0f0h
                      02807       else
                      02808         movlw   0fh
                      02809       endif
0074   0585           02810         andwf   LCD_DREG, F     ; Set proper half of port to output
                      02811     endif
0075   1283           02812         bcf     STATUS, RP0     ; Point back to ports
                      02813 
0076   0827           02814         movf    R3 + 1, W       ; Get back char
                      02815 
0077   18B2           02816         btfsc   LCDINITFLAG     ; Has lcd been inititalized?
0078   2896           02817         goto    lcdout1         ; Yes
                      02818 
0079   303A           02819         movlw   high 15100      ; Wait at least 15ms
007A   00A1           02820         movwf   R0 + 1
007B   30FC           02821         movlw   low 15100
007C   20F8           02822         call    PAUSEUSL
                      02823 
007D   3033           02824         movlw   33h             ; Init lcd
007E   00A6           02825         movwf   R3              ; Save char
007F   20AB           02826         call    lcdloop         ; Send init
                      02827 
0080   3010           02828         movlw   high 4200       ; Wait at least 4.1ms
0081   00A1           02829         movwf   R0 + 1
0082   3068           02830         movlw   low 4200
0083   20F8           02831         call    PAUSEUSL
                      02832 
0084   20AB           02833         call    lcdloop         ; Send init (33) again
                      02834 
0085   3064           02835         movlw   100             ; Wait at least 100us
0086   20F7           02836         call    PAUSEUS
                      02837 
                      02838     if ((LCD_BITS) == 8)
                      02839         call    lcdloop         ; Send init (33) one more time
                      02840       if ((LCD_LINES) == 1)
                      02841         movlw   30h             ; 8-bit mode, 1 line, 5x7 font
MPASM  5.49                      RTCCON~1.ASM   1-27-2021  11:00:41         PAGE  7


LOC  OBJECT CODE     LINE SOURCE TEXT
  VALUE

                      02842       else
                      02843         movlw   38h             ; 8-bit mode, 2+ lines, 5x7 font
                      02844       endif
                      02845     else
0087   3022           02846         movlw   22h             ; Send init to 4-bit mode
0088   00A6           02847         movwf   R3              ; Save character
0089   20AB           02848         call    lcdloop         ; Set interface to 4-bit mode
                      02849       if ((LCD_LINES) == 1)
                      02850         movlw   20h             ; 4-bit mode, 1 line, 5x7 font
                      02851       else
008A   3028           02852         movlw   28h             ; 4-bit mode, 2+ lines, 5x7 font
                      02853       endif
                      02854     endif
008B   2095           02855         call    lcdoutcom       ; Send function set
                      02856 
008C   300C           02857         movlw   0ch             ; Display on, no cursor, no blink
008D   2095           02858         call    lcdoutcom
                      02859 
008E   3001           02860         movlw   01h             ; Display clear
008F   2095           02861         call    lcdoutcom
                      02862 
0090   3006           02863         movlw   06h             ; Lcd entry mode set, increment, no shift
0091   2095           02864         call    lcdoutcom
                      02865 
0092   14B2           02866         bsf     LCDINITFLAG     ; Set to initialized
                      02867 
0093   0827           02868         movf    R3 + 1, W       ; Get saved char back (again)
0094   2896           02869         goto    lcdout1
                      02870 
0095   1432           02871 lcdoutcom bsf   LCDCDFLAG       ; Set for command
                      02872 
0096   00A6           02873 lcdout1 movwf   R3              ; Save char
0097   1C32           02874         btfss   LCDCDFLAG       ; Command this time?
0098   28A4           02875         goto    lcdchkcd        ; No
                      02876 
0099   1006           02877         bcf     LCD_RSREG, LCD_RSBIT    ; Set command register select
009A   3C03           02878         sublw   3               ; Is it a slow command (clear screen or home)?
009B   1C03           02879         btfss   STATUS, C       ; Long or short delay?
009C   28A9           02880         goto    lcdsend         ; Short delay
                      02881 
009D   20A9           02882         call    lcdsend         ; Long delay (includes short delay)
009E   3005           02883         movlw   high LCD_COMMANDUS      ; Wait for command to complete
009F   00A1           02884         movwf   R0 + 1
00A0   30DC           02885         movlw   low LCD_COMMANDUS
00A1   20F8           02886         call    PAUSEUSL
00A2   1403           02887         bsf     STATUS, C       ; Set no timeout for Serout2mod
00A3   0008           02888         return
                      02889 
00A4   1432           02890 lcdchkcd bsf    LCDCDFLAG       ; Indicate first nibble (or command next time)
00A5   3CFE           02891         sublw   0feh            ; Command next time? (char still in W)
00A6   1903           02892         btfsc   STATUS, Z
00A7   2911           02893         goto    DONE            ; Yes - nothing to do this time (C set for no timeout for Serout2mod)
                      02894 
MPASM  5.49                      RTCCON~1.ASM   1-27-2021  11:00:41         PAGE  8


LOC  OBJECT CODE     LINE SOURCE TEXT
  VALUE

00A8   1406           02895         bsf     LCD_RSREG, LCD_RSBIT    ; Set data register select
                      02896 
00A9                  02897 lcdsend
                      02898     if ((LCD_BITS) == 8)
                      02899 lcdloop bsf     LCD_EREG, LCD_EBIT      ; Enabled
                      02900         movf    R3, W           ; Get char back
                      02901         movwf   LCD_DREG        ; Write char to the port
                      02902       if (OSC > 16)
                      02903         nop                     ; Minimum 1us enable time
                      02904       endif
                      02905       if (OSC > 20)
                      02906         nop
                      02907       endif
                      02908         bcf     LCDCDFLAG       ; Indicate data next time
                      02909         bcf     LCD_EREG, LCD_EBIT      ; Not enabled
                      02910     else
                      02911 
                      02912       if ((LCD_DBIT) == 0)
00A9   0EA6           02913         swapf   R3, F           ; Swap top and bottom nibbles
                      02914       endif
                      02915 
00AA   1C32           02916         btfss   LCDCDFLAG       ; First time through only
00AB   1032           02917 lcdloop bcf     LCDCDFLAG       ; Indicate second nibble (and data next time)
                      02918 
00AC   1486           02919         bsf     LCD_EREG, LCD_EBIT      ; Enabled
                      02920 
                      02921       if ((LCD_DBIT) == 0)
00AD   30F0           02922         movlw   0f0h            ; Clear lcd data port
                      02923       else
                      02924         movlw   0fh             ; Clear lcd data port
                      02925       endif
00AE   0585           02926         andwf   LCD_DREG, F
                      02927 
00AF   0826           02928         movf    R3, W           ; Isolate proper nibble of char
                      02929       if ((LCD_DBIT) == 0)
00B0   390F           02930         andlw   0fh
                      02931       else
                      02932         andlw   0f0h
                      02933       endif
00B1   0485           02934         iorwf   LCD_DREG, F     ; Write char to port
00B2   1086           02935         bcf     LCD_EREG, LCD_EBIT      ; Not enabled - that's four
00B3   0EA6           02936         swapf   R3, F           ; Get to other nibble
                      02937 
00B4   1832           02938         btfsc   LCDCDFLAG       ; Need to send 4 more?
00B5   28AB           02939         goto    lcdloop         ; Send lower 4 to lcd
                      02940     endif
                      02941 
00B6   302C           02942         movlw   LCD_DATAUS      ; Wait for data operation to complete
00B7   20F7           02943         call    PAUSEUS
00B8   1403           02944         bsf     STATUS, C       ; Set no timeout for Serout2mod
00B9   0008           02945         return
                      04878   LIST
00BA   13B3           04879 SEROUT2HEX bcf  GOP, 7          ; Blanking off
MPASM  5.49                      RTCCON~1.ASM   1-27-2021  11:00:41         PAGE  9


LOC  OBJECT CODE     LINE SOURCE TEXT
  VALUE

00BB   0829           04880         movf    R4 + 1, W       ; If 0 digits called for then blanking on
00BC   1903           04881         btfsc   STATUS, Z
00BD   17B3           04882         bsf     GOP, 7          ; Blanking on
00BE   3004           04883         movlw   4               ; 4 nibbles max to do
00BF   00A8           04884         movwf   R4
00C0   0E25           04885         swapf   R2 + 1, W       ; Get first nibble
00C1   20C7           04886         call    serout2hdig
                      04887       ifdef SEROUT2TO_USED
                      04888         btfss   STATUS, C       ; Timed out?
                      04889         return                  ; Yes
                      04890       endif
00C2   0825           04891         movf    R2 + 1, W       ; Get second nibble
00C3   20C7           04892         call    serout2hdig
                      04893       ifdef SEROUT2TO_USED
                      04894         btfss   STATUS, C       ; Timed out?
                      04895         return                  ; Yes
                      04896       endif
00C4   0E24           04897         swapf   R2, W           ; Get third nibble
00C5   20C7           04898         call    serout2hdig
                      04899       ifdef SEROUT2TO_USED
                      04900         btfss   STATUS, C       ; Timed out?
                      04901         return                  ; Yes
                      04902       endif
00C6   0824           04903         movf    R2, W           ; Get final nibble and fall through
                      04904 
00C7   390F           04905 serout2hdig andlw 0fh           ; Isolate lower nibble
00C8   3EF6           04906         addlw   -10             ; Change to 0 - F
00C9   1803           04907         btfsc   STATUS, C
00CA   3E07           04908         addlw   7               ; Bump to A - F
00CB   3E0A           04909         addlw   10
00CC   28CD           04910         goto    SEROUT2SEND     ; Send nibble
                      05015   LIST
00CD   00A0           05016 SEROUT2SEND movwf R0            ; Save char for a moment
00CE   03A8           05017         decf    R4, F           ; Bump down count while we're here
00CF   1903           05018         btfsc   STATUS, Z       ; If last digit don't blank
00D0   13B3           05019         bcf     GOP, 7
00D1   0829           05020         movf    R4 + 1, W       ; Get number of digits to send
00D2   1903           05021         btfsc   STATUS, Z       ; If zero digits...
00D3   28D7           05022         goto    serout2send1    ; ...Skip count compare
00D4   0228           05023         subwf   R4, W           ; Send if within count
00D5   1803           05024         btfsc   STATUS, C
00D6   0008           05025         return
00D7   0820           05026 serout2send1 movf R0, W         ; Get char back
                      05027       ifdef SEROUT2TO_USED
                      05028         bsf     STATUS, C       ; Set carry for no timeout in case of blanking
                      05029       endif
00D8   1D03           05030         btfss   STATUS, Z       ; If char zero, goto blank check
00D9   13B3           05031         bcf     GOP, 7          ; Not zero so clear blank
00DA   1BB3           05032         btfsc   GOP, 7          ; If blanking on, don't send
00DB   0008           05033         return
00DC   3E30           05034         addlw   '0'             ; Add ASCII offset
00DD   290C           05035         goto    JUMPMAN         ; Send it
                      06043   LIST
MPASM  5.49                      RTCCON~1.ASM   1-27-2021  11:00:41         PAGE 10


LOC  OBJECT CODE     LINE SOURCE TEXT
  VALUE

00DE                  06044 WRITE
                      06045       if ((EEADR & 180h) == 000h)       ; For 16F8x
                      06046         movwf   EEDATA          ; Set the EEPROM data
                      06047         bsf     STATUS, RP0     ; EECON1, 2 in bank 1
                      06048       endif
                      06049 
                      06050       if ((EEADR & 180h) == 080h)       ; For 16F62x, 12F62x, 12F67x
00DE   1683           06051         bsf     STATUS, RP0     ; For EE in bank 1
00DF   009A           06052         movwf   EEDATA          ; Set the EEPROM data
                      06053       endif
                      06054 
                      06055       if ((EEADR & 180h) == 100h)       ; For 16F87x
                      06056         bsf     STATUS, RP1     ; For EE in bank 2 & 3
                      06057         movwf   EEDATA          ; Set the EEPROM data
                      06058         bsf     STATUS, RP0     ; EECON1, 2 in bank 3
                      06059         clrf    EECON1          ; Write to data memory
                      06060       endif
                      06061 
00E0   151C           06062         bsf     EECON1, WREN
                      06063       ifdef WRITE_INT
                      06064         bcf     INTCON, GIE     ; Disable global interrupts
                      06065         btfsc   INTCON, GIE     ; See AN576
                      06066         goto    $ - 2
                      06067       endif      
00E1   3055           06068         movlw   55h             ; Unlock the door
00E2   009D           06069         movwf   EECON2
00E3   30AA           06070         movlw   0AAh
00E4   009D           06071         movwf   EECON2
00E5   149C           06072         bsf     EECON1, WR      ; Do the write
                      06073       ifdef WRITE_INT
                      06074         bsf     INTCON, GIE     ; Enable global interrupts
                      06075       endif      
00E6   189C           06076 writeloop btfsc EECON1, WR      ; Wait for the write to complete
00E7   28E6           06077         goto    writeloop
00E8   111C           06078         bcf     EECON1, WREN    ; Lock up when we're done
00E9   2911           06079         goto    DONE            ; Done
                      06158   LIST
00EA   01A3           06159 PAUSE   clrf    R1 + 1
00EB   00A2           06160 PAUSEL  movwf   R1
00EC   30FF           06161 pauseloop movlw -1              ; 1 (9)
00ED   07A2           06162         addwf   R1, F           ; 1
00EE   1C03           06163         btfss   STATUS, C       ; 1 / 2
00EF   07A3           06164         addwf   R1 + 1, F       ; 1 / 0
00F0   1C03           06165         btfss   STATUS, C       ; 2
00F1   2911           06166         goto    DONE
00F2   3003           06167         movlw   (PAUSE_DELAY) >> 8      ; 1
00F3   00A1           06168         movwf   R0 + 1          ; 1
00F4   30DF           06169         movlw   low (PAUSE_DELAY)       ; 1
00F5   20F8           06170         call    PAUSEUSL        ; -2 (PAUSEUSL gives you 2 less than you ask for)
00F6   28EC           06171         goto    pauseloop       ; 2
                      06215   LIST
00F7   01A1           06216 PAUSEUS clrf    R0 + 1          ; 1
00F8   3EE8           06217 PAUSEUSL addlw  -24             ; 1 Subtract overhead
MPASM  5.49                      RTCCON~1.ASM   1-27-2021  11:00:41         PAGE 11


LOC  OBJECT CODE     LINE SOURCE TEXT
  VALUE

00F9   00A0           06218         movwf   R0              ; 1
00FA   09A1           06219         comf    R0 + 1, F       ; 1
00FB   30FC           06220         movlw   -4              ; 1
00FC   1C03           06221         btfss   STATUS, C       ; 1 / 2
00FD   2901           06222         goto    pauseush        ; 2 / 0
00FE   07A0           06223 pauseusloop addwf R0, F         ; 1
00FF   1803           06224         btfsc   STATUS, C       ; 1 / 2
0100   28FE           06225         goto    pauseusloop     ; 2 / 0
0101   07A0           06226 pauseush addwf  R0, F           ; 1 Do an extra countdown
                      06227         CLRWDT?NOP              ; 1 Keep Watchdog clear
                          M     ifndef NO_CLRWDT
0102   0064               M         clrwdt
                          M     else
                          M         nop
                          M     endif
0103   0FA1           06228         incfsz  R0 + 1, F       ; 1 / 2
0104   28FE           06229         goto    pauseusloop     ; 2 / 0
0105   1820           06230         btfsc   R0, 0           ; 1 / 2
0106   2907           06231         goto    $ + 1           ; 2 / 0 Burn an extra cycle
0107   1CA0           06232         btfss   R0, 1           ; 1 / 2
0108   290B           06233         goto    pauseusdone     ; 2 / 0
0109   0000           06234         nop                     ; 1
010A   290B           06235         goto    $ + 1           ; 2 Burn an extra 2 cycles
010B   0008           06236 pauseusdone return              ; 2 + 3 (call + setup)
                      07403   LIST
010C   0084           07404 JUMPMAN movwf   FSR
010D   0831           07405         movf    R8 + 1, W
010E   008A           07406         movwf   PCLATH
010F   0830           07407         movf    R8, W
0110   0082           07408         movwf   PCL
                      07422   LIST
0111   1383           07423 DONE    bcf     STATUS, IRP     ; 1 Set FSR to bank 0/1
0112   1303           07424         bcf     STATUS, RP1     ; 1 Show direct bank 0
0113   1283           07425         bcf     STATUS, RP0     ; 1
                      07426         CLRWDT?NOP              ; 1 Hit Watchdog timer
                          M     ifndef NO_CLRWDT
0114   0064               M         clrwdt
                          M     else
                          M         nop
                          M     endif
0115   0008           07427 DONERET return                  ; 2 Done
                      07451   LIST
0116                  07452 INIT
                      07490   LIST
0116                  07491 main
                      00063 
                      00064         MOVE?CB 007h, CMCON
                          M         CHK?RP  CMCON
                          M     if (((CMCON) & 180h) == 0)
                          M       if (PREV_BANK == 1)
                          M         bcf     STATUS, RP0
                          M       endif
                          M       if (PREV_BANK == 2)
MPASM  5.49                      RTCCON~1.ASM   1-27-2021  11:00:41         PAGE 12


LOC  OBJECT CODE     LINE SOURCE TEXT
  VALUE

                          M         bcf     STATUS, RP1
                          M       endif
                          M       if (PREV_BANK == 3)
                          M         bcf     STATUS, RP0
                          M         bcf     STATUS, RP1
                          M       endif
  00000000                M PREV_BANK = 0
                          M     endif
                          M 
                          M     if (((CMCON) & 180h) == 80h)
                          M       if (PREV_BANK == 0)
                          M         bsf     STATUS, RP0
                          M       endif
                          M       if (PREV_BANK == 2)
                          M         bsf     STATUS, RP0
                          M         bcf     STATUS, RP1
                          M       endif
                          M       if (PREV_BANK == 3)
                          M         bcf     STATUS, RP1
                          M       endif
                          M PREV_BANK = 1
                          M     endif
                          M 
                          M     if (((CMCON) & 180h) == 100h)
                          M       if (PREV_BANK == 0)
                          M         bsf     STATUS, RP1
                          M       endif
                          M       if (PREV_BANK == 1)
                          M         bcf     STATUS, RP0
                          M         bsf     STATUS, RP1
                          M       endif
                          M       if (PREV_BANK == 3)
                          M         bcf     STATUS, RP0
                          M       endif
                          M PREV_BANK = 2
                          M     endif
                          M 
                          M     if (((CMCON) & 180h) == 180h)
                          M       if (PREV_BANK == 0)
                          M         bsf     STATUS, RP0
                          M         bsf     STATUS, RP1
                          M       endif
                          M       if (PREV_BANK == 1)
                          M         bsf     STATUS, RP1
                          M       endif
                          M       if (PREV_BANK == 2)
                          M         bsf     STATUS, RP0
                          M       endif
                          M PREV_BANK = 3
                          M     endif
                          M     if (low (007h) == 0)
                          M         clrf    CMCON
                          M     else
MPASM  5.49                      RTCCON~1.ASM   1-27-2021  11:00:41         PAGE 13


LOC  OBJECT CODE     LINE SOURCE TEXT
  VALUE

0116   3007               M         movlw   low (007h)
0117   009F               M         movwf   CMCON
                          M     endif
                      00065 
                      00066         LABEL?L _INICIO 
                          M         RST?RP
                          M     if ((PREV_BANK & 1) != 0)
                          M         bcf     STATUS, RP0
                          M     endif
                          M     if ((PREV_BANK & 2) != 0)
                          M         bcf     STATUS, RP1
                          M     endif
  00000000                M PREV_BANK = 0
                          M     ifdef PM_USED
                          M         LALL
                          M _INICIO
                          M         XALL
                          M     else
0118                      M _INICIO
                          M     endif
                      00067         I2CDATA?T       _DPIN
                          M         BIT?R1  PORTB, 006h
0118   3006               M         movlw   low ((PORTB) + ((006h)  >> 3))
                          M         CHK?RP  RR1
                          M     if (((RR1)   & 180h) == 0)
                          M       if (PREV_BANK == 1)
                          M         bcf     STATUS, RP0
                          M       endif
                          M       if (PREV_BANK == 2)
                          M         bcf     STATUS, RP1
                          M       endif
                          M       if (PREV_BANK == 3)
                          M         bcf     STATUS, RP0
                          M         bcf     STATUS, RP1
                          M       endif
  00000000                M PREV_BANK = 0
                          M     endif
                          M 
                          M     if (((RR1)   & 180h) == 80h)
                          M       if (PREV_BANK == 0)
                          M         bsf     STATUS, RP0
                          M       endif
                          M       if (PREV_BANK == 2)
                          M         bsf     STATUS, RP0
                          M         bcf     STATUS, RP1
                          M       endif
                          M       if (PREV_BANK == 3)
                          M         bcf     STATUS, RP1
                          M       endif
                          M PREV_BANK = 1
                          M     endif
                          M 
                          M     if (((RR1)   & 180h) == 100h)
MPASM  5.49                      RTCCON~1.ASM   1-27-2021  11:00:41         PAGE 14


LOC  OBJECT CODE     LINE SOURCE TEXT
  VALUE

                          M       if (PREV_BANK == 0)
                          M         bsf     STATUS, RP1
                          M       endif
                          M       if (PREV_BANK == 1)
                          M         bcf     STATUS, RP0
                          M         bsf     STATUS, RP1
                          M       endif
                          M       if (PREV_BANK == 3)
                          M         bcf     STATUS, RP0
                          M       endif
                          M PREV_BANK = 2
                          M     endif
                          M 
                          M     if (((RR1)   & 180h) == 180h)
                          M       if (PREV_BANK == 0)
                          M         bsf     STATUS, RP0
                          M         bsf     STATUS, RP1
                          M       endif
                          M       if (PREV_BANK == 1)
                          M         bsf     STATUS, RP1
                          M       endif
                          M       if (PREV_BANK == 2)
                          M         bsf     STATUS, RP0
                          M       endif
                          M PREV_BANK = 3
                          M     endif
0119   00B6               M         movwf   RR1
                          M         BIT?W   006h
                          M     if (((006h)  & 7) == 0)
                          M         movlw   01h
                          M     endif
                          M     if (((006h)  & 7) == 1)
                          M         movlw   02h
                          M     endif
                          M     if (((006h)  & 7) == 2)
                          M         movlw   04h
                          M     endif
                          M     if (((006h)  & 7) == 3)
                          M         movlw   08h
                          M     endif
                          M     if (((006h)  & 7) == 4)
                          M         movlw   10h
                          M     endif
                          M     if (((006h)  & 7) == 5)
                          M         movlw   20h
                          M     endif
                          M     if (((006h)  & 7) == 6)
011A   3040               M         movlw   40h
                          M     endif
                          M     if (((006h)  & 7) == 7)
                          M         movlw   80h
                          M     endif
011B   00B4               M         movwf   RM1
MPASM  5.49                      RTCCON~1.ASM   1-27-2021  11:00:41         PAGE 15


LOC  OBJECT CODE     LINE SOURCE TEXT
  VALUE

                      00068         I2CCLOCK?T      _CPIN
                          M         BIT?R2  PORTB, 007h
011C   3006               M         movlw   low ((PORTB) + ((007h)  >> 3))
                          M         CHK?RP  RR2
                          M     if (((RR2)   & 180h) == 0)
                          M       if (PREV_BANK == 1)
                          M         bcf     STATUS, RP0
                          M       endif
                          M       if (PREV_BANK == 2)
                          M         bcf     STATUS, RP1
                          M       endif
                          M       if (PREV_BANK == 3)
                          M         bcf     STATUS, RP0
                          M         bcf     STATUS, RP1
                          M       endif
  00000000                M PREV_BANK = 0
                          M     endif
                          M 
                          M     if (((RR2)   & 180h) == 80h)
                          M       if (PREV_BANK == 0)
                          M         bsf     STATUS, RP0
                          M       endif
                          M       if (PREV_BANK == 2)
                          M         bsf     STATUS, RP0
                          M         bcf     STATUS, RP1
                          M       endif
                          M       if (PREV_BANK == 3)
                          M         bcf     STATUS, RP1
                          M       endif
                          M PREV_BANK = 1
                          M     endif
                          M 
                          M     if (((RR2)   & 180h) == 100h)
                          M       if (PREV_BANK == 0)
                          M         bsf     STATUS, RP1
                          M       endif
                          M       if (PREV_BANK == 1)
                          M         bcf     STATUS, RP0
                          M         bsf     STATUS, RP1
                          M       endif
                          M       if (PREV_BANK == 3)
                          M         bcf     STATUS, RP0
                          M       endif
                          M PREV_BANK = 2
                          M     endif
                          M 
                          M     if (((RR2)   & 180h) == 180h)
                          M       if (PREV_BANK == 0)
                          M         bsf     STATUS, RP0
                          M         bsf     STATUS, RP1
                          M       endif
                          M       if (PREV_BANK == 1)
                          M         bsf     STATUS, RP1
MPASM  5.49                      RTCCON~1.ASM   1-27-2021  11:00:41         PAGE 16


LOC  OBJECT CODE     LINE SOURCE TEXT
  VALUE

                          M       endif
                          M       if (PREV_BANK == 2)
                          M         bsf     STATUS, RP0
                          M       endif
                          M PREV_BANK = 3
                          M     endif
011D   00B7               M         movwf   RR2
                          M         BIT?W   007h
                          M     if (((007h)  & 7) == 0)
                          M         movlw   01h
                          M     endif
                          M     if (((007h)  & 7) == 1)
                          M         movlw   02h
                          M     endif
                          M     if (((007h)  & 7) == 2)
                          M         movlw   04h
                          M     endif
                          M     if (((007h)  & 7) == 3)
                          M         movlw   08h
                          M     endif
                          M     if (((007h)  & 7) == 4)
                          M         movlw   10h
                          M     endif
                          M     if (((007h)  & 7) == 5)
                          M         movlw   20h
                          M     endif
                          M     if (((007h)  & 7) == 6)
                          M         movlw   40h
                          M     endif
                          M     if (((007h)  & 7) == 7)
011E   3080               M         movlw   80h
                          M     endif
011F   00B5               M         movwf   RM2
                      00069         I2CWRITE?C      0D0h
                          M     if ((high (0D0h)) != 0)
                          M         movlw   (0D0h) >> 8
                          M         L?CALL  I2CWRITE
                          M     endif
                          M         MOVE?CA low (0D0h)
0120   30D0               M         movlw   low (low (0D0h))
                          M         L?CALL  I2CWRITE
                          M         RST?RP
                          M     if ((PREV_BANK & 1) != 0)
                          M         bcf     STATUS, RP0
                          M     endif
                          M     if ((PREV_BANK & 2) != 0)
                          M         bcf     STATUS, RP1
                          M     endif
  00000000                M PREV_BANK = 0
                          M 
                          M     if ((I2CWRITE) < 1)
                          M       if (CODE_SIZE >= 4)
                          M         if (((I2CWRITE) & 800h) == 0)
MPASM  5.49                      RTCCON~1.ASM   1-27-2021  11:00:41         PAGE 17


LOC  OBJECT CODE     LINE SOURCE TEXT
  VALUE

                          M         bcf     PCLATH, 3
                          M         else
                          M         bsf     PCLATH, 3
                          M         endif
                          M       endif
                          M       if (CODE_SIZE == 8)
                          M         if (((I2CWRITE) & 1000h) == 0)
                          M         bcf     PCLATH, 4
                          M         else
                          M         bsf     PCLATH, 4
                          M         endif
                          M       endif
                          M     else
                          M       if ((I2CWRITE) > $)
                          M         if (CODE_SIZE >= 4)
                          M           if (((I2CWRITE) & 800h) == 0)
                          M         bcf     PCLATH, 3
                          M           else
                          M         bsf     PCLATH, 3
                          M           endif
                          M         endif
                          M         if (CODE_SIZE == 8)
                          M           if (((I2CWRITE) & 1000h) == 0)
                          M         bcf     PCLATH, 4
                          M           else
                          M         bsf     PCLATH, 4
                          M           endif
                          M         endif
                          M       else
                          M         if (CODE_SIZE >= 4)
                          M           if (((I2CWRITE) & 1800h) == 0)
                          M         clrf    PCLATH
                          M           else
                          M             if (((I2CWRITE) & 800h) == 0)
                          M         bcf     PCLATH, 3
                          M             else
                          M         bsf     PCLATH, 3
                          M             endif
                          M             if (CODE_SIZE == 8)
                          M               if (((I2CWRITE) & 1000h) == 0)
                          M         bcf     PCLATH, 4
                          M               else
                          M         bsf     PCLATH, 4
                          M               endif
                          M             endif
                          M           endif
                          M         endif
                          M       endif
                          M     endif
                          M 
0121   201D               M         call    I2CWRITE
                      00070         I2CWRITE?C      000h
                          M     if ((high (000h)) != 0)
MPASM  5.49                      RTCCON~1.ASM   1-27-2021  11:00:41         PAGE 18


LOC  OBJECT CODE     LINE SOURCE TEXT
  VALUE

                          M         movlw   (000h) >> 8
                          M         L?CALL  I2CWRITE
                          M     endif
                          M         MOVE?CA low (000h)
0122   3000               M         movlw   low (low (000h))
                          M         L?CALL  I2CWRITE
                          M         RST?RP
                          M     if ((PREV_BANK & 1) != 0)
                          M         bcf     STATUS, RP0
                          M     endif
                          M     if ((PREV_BANK & 2) != 0)
                          M         bcf     STATUS, RP1
                          M     endif
  00000000                M PREV_BANK = 0
                          M 
                          M     if ((I2CWRITE) < 1)
                          M       if (CODE_SIZE >= 4)
                          M         if (((I2CWRITE) & 800h) == 0)
                          M         bcf     PCLATH, 3
                          M         else
                          M         bsf     PCLATH, 3
                          M         endif
                          M       endif
                          M       if (CODE_SIZE == 8)
                          M         if (((I2CWRITE) & 1000h) == 0)
                          M         bcf     PCLATH, 4
                          M         else
                          M         bsf     PCLATH, 4
                          M         endif
                          M       endif
                          M     else
                          M       if ((I2CWRITE) > $)
                          M         if (CODE_SIZE >= 4)
                          M           if (((I2CWRITE) & 800h) == 0)
                          M         bcf     PCLATH, 3
                          M           else
                          M         bsf     PCLATH, 3
                          M           endif
                          M         endif
                          M         if (CODE_SIZE == 8)
                          M           if (((I2CWRITE) & 1000h) == 0)
                          M         bcf     PCLATH, 4
                          M           else
                          M         bsf     PCLATH, 4
                          M           endif
                          M         endif
                          M       else
                          M         if (CODE_SIZE >= 4)
                          M           if (((I2CWRITE) & 1800h) == 0)
                          M         clrf    PCLATH
                          M           else
                          M             if (((I2CWRITE) & 800h) == 0)
                          M         bcf     PCLATH, 3
MPASM  5.49                      RTCCON~1.ASM   1-27-2021  11:00:41         PAGE 19


LOC  OBJECT CODE     LINE SOURCE TEXT
  VALUE

                          M             else
                          M         bsf     PCLATH, 3
                          M             endif
                          M             if (CODE_SIZE == 8)
                          M               if (((I2CWRITE) & 1000h) == 0)
                          M         bcf     PCLATH, 4
                          M               else
                          M         bsf     PCLATH, 4
                          M               endif
                          M             endif
                          M           endif
                          M         endif
                          M       endif
                          M     endif
                          M 
0123   201D               M         call    I2CWRITE
                      00071         I2CREADS?B      _segu
                          M         L?CALL  I2CREADS
                          M         RST?RP
                          M     if ((PREV_BANK & 1) != 0)
                          M         bcf     STATUS, RP0
                          M     endif
                          M     if ((PREV_BANK & 2) != 0)
                          M         bcf     STATUS, RP1
                          M     endif
  00000000                M PREV_BANK = 0
                          M 
                          M     if ((I2CREADS) < 1)
                          M       if (CODE_SIZE >= 4)
                          M         if (((I2CREADS) & 800h) == 0)
                          M         bcf     PCLATH, 3
                          M         else
                          M         bsf     PCLATH, 3
                          M         endif
                          M       endif
                          M       if (CODE_SIZE == 8)
                          M         if (((I2CREADS) & 1000h) == 0)
                          M         bcf     PCLATH, 4
                          M         else
                          M         bsf     PCLATH, 4
                          M         endif
                          M       endif
                          M     else
                          M       if ((I2CREADS) > $)
                          M         if (CODE_SIZE >= 4)
                          M           if (((I2CREADS) & 800h) == 0)
                          M         bcf     PCLATH, 3
                          M           else
                          M         bsf     PCLATH, 3
                          M           endif
                          M         endif
                          M         if (CODE_SIZE == 8)
                          M           if (((I2CREADS) & 1000h) == 0)
MPASM  5.49                      RTCCON~1.ASM   1-27-2021  11:00:41         PAGE 20


LOC  OBJECT CODE     LINE SOURCE TEXT
  VALUE

                          M         bcf     PCLATH, 4
                          M           else
                          M         bsf     PCLATH, 4
                          M           endif
                          M         endif
                          M       else
                          M         if (CODE_SIZE >= 4)
                          M           if (((I2CREADS) & 1800h) == 0)
                          M         clrf    PCLATH
                          M           else
                          M             if (((I2CREADS) & 800h) == 0)
                          M         bcf     PCLATH, 3
                          M             else
                          M         bsf     PCLATH, 3
                          M             endif
                          M             if (CODE_SIZE == 8)
                          M               if (((I2CREADS) & 1000h) == 0)
                          M         bcf     PCLATH, 4
                          M               else
                          M         bsf     PCLATH, 4
                          M               endif
                          M             endif
                          M           endif
                          M         endif
                          M       endif
                          M     endif
                          M 
0124   2002               M         call    I2CREADS
                          M         MOVE?AB _segu
                          M         CHK?RP  _segu
                          M     if (((_segu) & 180h) == 0)
                          M       if (PREV_BANK == 1)
                          M         bcf     STATUS, RP0
                          M       endif
                          M       if (PREV_BANK == 2)
                          M         bcf     STATUS, RP1
                          M       endif
                          M       if (PREV_BANK == 3)
                          M         bcf     STATUS, RP0
                          M         bcf     STATUS, RP1
                          M       endif
  00000000                M PREV_BANK = 0
                          M     endif
                          M 
                          M     if (((_segu) & 180h) == 80h)
                          M       if (PREV_BANK == 0)
                          M         bsf     STATUS, RP0
                          M       endif
                          M       if (PREV_BANK == 2)
                          M         bsf     STATUS, RP0
                          M         bcf     STATUS, RP1
                          M       endif
                          M       if (PREV_BANK == 3)
MPASM  5.49                      RTCCON~1.ASM   1-27-2021  11:00:41         PAGE 21


LOC  OBJECT CODE     LINE SOURCE TEXT
  VALUE

                          M         bcf     STATUS, RP1
                          M       endif
                          M PREV_BANK = 1
                          M     endif
                          M 
                          M     if (((_segu) & 180h) == 100h)
                          M       if (PREV_BANK == 0)
                          M         bsf     STATUS, RP1
                          M       endif
                          M       if (PREV_BANK == 1)
                          M         bcf     STATUS, RP0
                          M         bsf     STATUS, RP1
                          M       endif
                          M       if (PREV_BANK == 3)
                          M         bcf     STATUS, RP0
                          M       endif
                          M PREV_BANK = 2
                          M     endif
                          M 
                          M     if (((_segu) & 180h) == 180h)
                          M       if (PREV_BANK == 0)
                          M         bsf     STATUS, RP0
                          M         bsf     STATUS, RP1
                          M       endif
                          M       if (PREV_BANK == 1)
                          M         bsf     STATUS, RP1
                          M       endif
                          M       if (PREV_BANK == 2)
                          M         bsf     STATUS, RP0
                          M       endif
                          M PREV_BANK = 3
                          M     endif
0125   00BF               M         movwf   _segu
                      00072         I2CDATA?T       _DPIN
                          M         BIT?R1  PORTB, 006h
0126   3006               M         movlw   low ((PORTB) + ((006h)  >> 3))
                          M         CHK?RP  RR1
                          M     if (((RR1)   & 180h) == 0)
                          M       if (PREV_BANK == 1)
                          M         bcf     STATUS, RP0
                          M       endif
                          M       if (PREV_BANK == 2)
                          M         bcf     STATUS, RP1
                          M       endif
                          M       if (PREV_BANK == 3)
                          M         bcf     STATUS, RP0
                          M         bcf     STATUS, RP1
                          M       endif
  00000000                M PREV_BANK = 0
                          M     endif
                          M 
                          M     if (((RR1)   & 180h) == 80h)
                          M       if (PREV_BANK == 0)
MPASM  5.49                      RTCCON~1.ASM   1-27-2021  11:00:41         PAGE 22


LOC  OBJECT CODE     LINE SOURCE TEXT
  VALUE

                          M         bsf     STATUS, RP0
                          M       endif
                          M       if (PREV_BANK == 2)
                          M         bsf     STATUS, RP0
                          M         bcf     STATUS, RP1
                          M       endif
                          M       if (PREV_BANK == 3)
                          M         bcf     STATUS, RP1
                          M       endif
                          M PREV_BANK = 1
                          M     endif
                          M 
                          M     if (((RR1)   & 180h) == 100h)
                          M       if (PREV_BANK == 0)
                          M         bsf     STATUS, RP1
                          M       endif
                          M       if (PREV_BANK == 1)
                          M         bcf     STATUS, RP0
                          M         bsf     STATUS, RP1
                          M       endif
                          M       if (PREV_BANK == 3)
                          M         bcf     STATUS, RP0
                          M       endif
                          M PREV_BANK = 2
                          M     endif
                          M 
                          M     if (((RR1)   & 180h) == 180h)
                          M       if (PREV_BANK == 0)
                          M         bsf     STATUS, RP0
                          M         bsf     STATUS, RP1
                          M       endif
                          M       if (PREV_BANK == 1)
                          M         bsf     STATUS, RP1
                          M       endif
                          M       if (PREV_BANK == 2)
                          M         bsf     STATUS, RP0
                          M       endif
                          M PREV_BANK = 3
                          M     endif
0127   00B6               M         movwf   RR1
                          M         BIT?W   006h
                          M     if (((006h)  & 7) == 0)
                          M         movlw   01h
                          M     endif
                          M     if (((006h)  & 7) == 1)
                          M         movlw   02h
                          M     endif
                          M     if (((006h)  & 7) == 2)
                          M         movlw   04h
                          M     endif
                          M     if (((006h)  & 7) == 3)
                          M         movlw   08h
                          M     endif
MPASM  5.49                      RTCCON~1.ASM   1-27-2021  11:00:41         PAGE 23


LOC  OBJECT CODE     LINE SOURCE TEXT
  VALUE

                          M     if (((006h)  & 7) == 4)
                          M         movlw   10h
                          M     endif
                          M     if (((006h)  & 7) == 5)
                          M         movlw   20h
                          M     endif
                          M     if (((006h)  & 7) == 6)
0128   3040               M         movlw   40h
                          M     endif
                          M     if (((006h)  & 7) == 7)
                          M         movlw   80h
                          M     endif
0129   00B4               M         movwf   RM1
                      00073         I2CCLOCK?T      _CPIN
                          M         BIT?R2  PORTB, 007h
012A   3006               M         movlw   low ((PORTB) + ((007h)  >> 3))
                          M         CHK?RP  RR2
                          M     if (((RR2)   & 180h) == 0)
                          M       if (PREV_BANK == 1)
                          M         bcf     STATUS, RP0
                          M       endif
                          M       if (PREV_BANK == 2)
                          M         bcf     STATUS, RP1
                          M       endif
                          M       if (PREV_BANK == 3)
                          M         bcf     STATUS, RP0
                          M         bcf     STATUS, RP1
                          M       endif
  00000000                M PREV_BANK = 0
                          M     endif
                          M 
                          M     if (((RR2)   & 180h) == 80h)
                          M       if (PREV_BANK == 0)
                          M         bsf     STATUS, RP0
                          M       endif
                          M       if (PREV_BANK == 2)
                          M         bsf     STATUS, RP0
                          M         bcf     STATUS, RP1
                          M       endif
                          M       if (PREV_BANK == 3)
                          M         bcf     STATUS, RP1
                          M       endif
                          M PREV_BANK = 1
                          M     endif
                          M 
                          M     if (((RR2)   & 180h) == 100h)
                          M       if (PREV_BANK == 0)
                          M         bsf     STATUS, RP1
                          M       endif
                          M       if (PREV_BANK == 1)
                          M         bcf     STATUS, RP0
                          M         bsf     STATUS, RP1
                          M       endif
MPASM  5.49                      RTCCON~1.ASM   1-27-2021  11:00:41         PAGE 24


LOC  OBJECT CODE     LINE SOURCE TEXT
  VALUE

                          M       if (PREV_BANK == 3)
                          M         bcf     STATUS, RP0
                          M       endif
                          M PREV_BANK = 2
                          M     endif
                          M 
                          M     if (((RR2)   & 180h) == 180h)
                          M       if (PREV_BANK == 0)
                          M         bsf     STATUS, RP0
                          M         bsf     STATUS, RP1
                          M       endif
                          M       if (PREV_BANK == 1)
                          M         bsf     STATUS, RP1
                          M       endif
                          M       if (PREV_BANK == 2)
                          M         bsf     STATUS, RP0
                          M       endif
                          M PREV_BANK = 3
                          M     endif
012B   00B7               M         movwf   RR2
                          M         BIT?W   007h
                          M     if (((007h)  & 7) == 0)
                          M         movlw   01h
                          M     endif
                          M     if (((007h)  & 7) == 1)
                          M         movlw   02h
                          M     endif
                          M     if (((007h)  & 7) == 2)
                          M         movlw   04h
                          M     endif
                          M     if (((007h)  & 7) == 3)
                          M         movlw   08h
                          M     endif
                          M     if (((007h)  & 7) == 4)
                          M         movlw   10h
                          M     endif
                          M     if (((007h)  & 7) == 5)
                          M         movlw   20h
                          M     endif
                          M     if (((007h)  & 7) == 6)
                          M         movlw   40h
                          M     endif
                          M     if (((007h)  & 7) == 7)
012C   3080               M         movlw   80h
                          M     endif
012D   00B5               M         movwf   RM2
                      00074         I2CWRITE?C      0D0h
                          M     if ((high (0D0h)) != 0)
                          M         movlw   (0D0h) >> 8
                          M         L?CALL  I2CWRITE
                          M     endif
                          M         MOVE?CA low (0D0h)
012E   30D0               M         movlw   low (low (0D0h))
MPASM  5.49                      RTCCON~1.ASM   1-27-2021  11:00:41         PAGE 25


LOC  OBJECT CODE     LINE SOURCE TEXT
  VALUE

                          M         L?CALL  I2CWRITE
                          M         RST?RP
                          M     if ((PREV_BANK & 1) != 0)
                          M         bcf     STATUS, RP0
                          M     endif
                          M     if ((PREV_BANK & 2) != 0)
                          M         bcf     STATUS, RP1
                          M     endif
  00000000                M PREV_BANK = 0
                          M 
                          M     if ((I2CWRITE) < 1)
                          M       if (CODE_SIZE >= 4)
                          M         if (((I2CWRITE) & 800h) == 0)
                          M         bcf     PCLATH, 3
                          M         else
                          M         bsf     PCLATH, 3
                          M         endif
                          M       endif
                          M       if (CODE_SIZE == 8)
                          M         if (((I2CWRITE) & 1000h) == 0)
                          M         bcf     PCLATH, 4
                          M         else
                          M         bsf     PCLATH, 4
                          M         endif
                          M       endif
                          M     else
                          M       if ((I2CWRITE) > $)
                          M         if (CODE_SIZE >= 4)
                          M           if (((I2CWRITE) & 800h) == 0)
                          M         bcf     PCLATH, 3
                          M           else
                          M         bsf     PCLATH, 3
                          M           endif
                          M         endif
                          M         if (CODE_SIZE == 8)
                          M           if (((I2CWRITE) & 1000h) == 0)
                          M         bcf     PCLATH, 4
                          M           else
                          M         bsf     PCLATH, 4
                          M           endif
                          M         endif
                          M       else
                          M         if (CODE_SIZE >= 4)
                          M           if (((I2CWRITE) & 1800h) == 0)
                          M         clrf    PCLATH
                          M           else
                          M             if (((I2CWRITE) & 800h) == 0)
                          M         bcf     PCLATH, 3
                          M             else
                          M         bsf     PCLATH, 3
                          M             endif
                          M             if (CODE_SIZE == 8)
                          M               if (((I2CWRITE) & 1000h) == 0)
MPASM  5.49                      RTCCON~1.ASM   1-27-2021  11:00:41         PAGE 26


LOC  OBJECT CODE     LINE SOURCE TEXT
  VALUE

                          M         bcf     PCLATH, 4
                          M               else
                          M         bsf     PCLATH, 4
                          M               endif
                          M             endif
                          M           endif
                          M         endif
                          M       endif
                          M     endif
                          M 
012F   201D               M         call    I2CWRITE
                      00075         I2CWRITE?C      001h
                          M     if ((high (001h)) != 0)
                          M         movlw   (001h) >> 8
                          M         L?CALL  I2CWRITE
                          M     endif
                          M         MOVE?CA low (001h)
0130   3001               M         movlw   low (low (001h))
                          M         L?CALL  I2CWRITE
                          M         RST?RP
                          M     if ((PREV_BANK & 1) != 0)
                          M         bcf     STATUS, RP0
                          M     endif
                          M     if ((PREV_BANK & 2) != 0)
                          M         bcf     STATUS, RP1
                          M     endif
  00000000                M PREV_BANK = 0
                          M 
                          M     if ((I2CWRITE) < 1)
                          M       if (CODE_SIZE >= 4)
                          M         if (((I2CWRITE) & 800h) == 0)
                          M         bcf     PCLATH, 3
                          M         else
                          M         bsf     PCLATH, 3
                          M         endif
                          M       endif
                          M       if (CODE_SIZE == 8)
                          M         if (((I2CWRITE) & 1000h) == 0)
                          M         bcf     PCLATH, 4
                          M         else
                          M         bsf     PCLATH, 4
                          M         endif
                          M       endif
                          M     else
                          M       if ((I2CWRITE) > $)
                          M         if (CODE_SIZE >= 4)
                          M           if (((I2CWRITE) & 800h) == 0)
                          M         bcf     PCLATH, 3
                          M           else
                          M         bsf     PCLATH, 3
                          M           endif
                          M         endif
                          M         if (CODE_SIZE == 8)
MPASM  5.49                      RTCCON~1.ASM   1-27-2021  11:00:41         PAGE 27


LOC  OBJECT CODE     LINE SOURCE TEXT
  VALUE

                          M           if (((I2CWRITE) & 1000h) == 0)
                          M         bcf     PCLATH, 4
                          M           else
                          M         bsf     PCLATH, 4
                          M           endif
                          M         endif
                          M       else
                          M         if (CODE_SIZE >= 4)
                          M           if (((I2CWRITE) & 1800h) == 0)
                          M         clrf    PCLATH
                          M           else
                          M             if (((I2CWRITE) & 800h) == 0)
                          M         bcf     PCLATH, 3
                          M             else
                          M         bsf     PCLATH, 3
                          M             endif
                          M             if (CODE_SIZE == 8)
                          M               if (((I2CWRITE) & 1000h) == 0)
                          M         bcf     PCLATH, 4
                          M               else
                          M         bsf     PCLATH, 4
                          M               endif
                          M             endif
                          M           endif
                          M         endif
                          M       endif
                          M     endif
                          M 
0131   201D               M         call    I2CWRITE
                      00076         I2CREADS?B      _minu
                          M         L?CALL  I2CREADS
                          M         RST?RP
                          M     if ((PREV_BANK & 1) != 0)
                          M         bcf     STATUS, RP0
                          M     endif
                          M     if ((PREV_BANK & 2) != 0)
                          M         bcf     STATUS, RP1
                          M     endif
  00000000                M PREV_BANK = 0
                          M 
                          M     if ((I2CREADS) < 1)
                          M       if (CODE_SIZE >= 4)
                          M         if (((I2CREADS) & 800h) == 0)
                          M         bcf     PCLATH, 3
                          M         else
                          M         bsf     PCLATH, 3
                          M         endif
                          M       endif
                          M       if (CODE_SIZE == 8)
                          M         if (((I2CREADS) & 1000h) == 0)
                          M         bcf     PCLATH, 4
                          M         else
                          M         bsf     PCLATH, 4
MPASM  5.49                      RTCCON~1.ASM   1-27-2021  11:00:41         PAGE 28


LOC  OBJECT CODE     LINE SOURCE TEXT
  VALUE

                          M         endif
                          M       endif
                          M     else
                          M       if ((I2CREADS) > $)
                          M         if (CODE_SIZE >= 4)
                          M           if (((I2CREADS) & 800h) == 0)
                          M         bcf     PCLATH, 3
                          M           else
                          M         bsf     PCLATH, 3
                          M           endif
                          M         endif
                          M         if (CODE_SIZE == 8)
                          M           if (((I2CREADS) & 1000h) == 0)
                          M         bcf     PCLATH, 4
                          M           else
                          M         bsf     PCLATH, 4
                          M           endif
                          M         endif
                          M       else
                          M         if (CODE_SIZE >= 4)
                          M           if (((I2CREADS) & 1800h) == 0)
                          M         clrf    PCLATH
                          M           else
                          M             if (((I2CREADS) & 800h) == 0)
                          M         bcf     PCLATH, 3
                          M             else
                          M         bsf     PCLATH, 3
                          M             endif
                          M             if (CODE_SIZE == 8)
                          M               if (((I2CREADS) & 1000h) == 0)
                          M         bcf     PCLATH, 4
                          M               else
                          M         bsf     PCLATH, 4
                          M               endif
                          M             endif
                          M           endif
                          M         endif
                          M       endif
                          M     endif
                          M 
0132   2002               M         call    I2CREADS
                          M         MOVE?AB _minu
                          M         CHK?RP  _minu
                          M     if (((_minu) & 180h) == 0)
                          M       if (PREV_BANK == 1)
                          M         bcf     STATUS, RP0
                          M       endif
                          M       if (PREV_BANK == 2)
                          M         bcf     STATUS, RP1
                          M       endif
                          M       if (PREV_BANK == 3)
                          M         bcf     STATUS, RP0
                          M         bcf     STATUS, RP1
MPASM  5.49                      RTCCON~1.ASM   1-27-2021  11:00:41         PAGE 29


LOC  OBJECT CODE     LINE SOURCE TEXT
  VALUE

                          M       endif
  00000000                M PREV_BANK = 0
                          M     endif
                          M 
                          M     if (((_minu) & 180h) == 80h)
                          M       if (PREV_BANK == 0)
                          M         bsf     STATUS, RP0
                          M       endif
                          M       if (PREV_BANK == 2)
                          M         bsf     STATUS, RP0
                          M         bcf     STATUS, RP1
                          M       endif
                          M       if (PREV_BANK == 3)
                          M         bcf     STATUS, RP1
                          M       endif
                          M PREV_BANK = 1
                          M     endif
                          M 
                          M     if (((_minu) & 180h) == 100h)
                          M       if (PREV_BANK == 0)
                          M         bsf     STATUS, RP1
                          M       endif
                          M       if (PREV_BANK == 1)
                          M         bcf     STATUS, RP0
                          M         bsf     STATUS, RP1
                          M       endif
                          M       if (PREV_BANK == 3)
                          M         bcf     STATUS, RP0
                          M       endif
                          M PREV_BANK = 2
                          M     endif
                          M 
                          M     if (((_minu) & 180h) == 180h)
                          M       if (PREV_BANK == 0)
                          M         bsf     STATUS, RP0
                          M         bsf     STATUS, RP1
                          M       endif
                          M       if (PREV_BANK == 1)
                          M         bsf     STATUS, RP1
                          M       endif
                          M       if (PREV_BANK == 2)
                          M         bsf     STATUS, RP0
                          M       endif
                          M PREV_BANK = 3
                          M     endif
0133   00BD               M         movwf   _minu
                      00077         I2CDATA?T       _DPIN
                          M         BIT?R1  PORTB, 006h
0134   3006               M         movlw   low ((PORTB) + ((006h)  >> 3))
                          M         CHK?RP  RR1
                          M     if (((RR1)   & 180h) == 0)
                          M       if (PREV_BANK == 1)
                          M         bcf     STATUS, RP0
MPASM  5.49                      RTCCON~1.ASM   1-27-2021  11:00:41         PAGE 30


LOC  OBJECT CODE     LINE SOURCE TEXT
  VALUE

                          M       endif
                          M       if (PREV_BANK == 2)
                          M         bcf     STATUS, RP1
                          M       endif
                          M       if (PREV_BANK == 3)
                          M         bcf     STATUS, RP0
                          M         bcf     STATUS, RP1
                          M       endif
  00000000                M PREV_BANK = 0
                          M     endif
                          M 
                          M     if (((RR1)   & 180h) == 80h)
                          M       if (PREV_BANK == 0)
                          M         bsf     STATUS, RP0
                          M       endif
                          M       if (PREV_BANK == 2)
                          M         bsf     STATUS, RP0
                          M         bcf     STATUS, RP1
                          M       endif
                          M       if (PREV_BANK == 3)
                          M         bcf     STATUS, RP1
                          M       endif
                          M PREV_BANK = 1
                          M     endif
                          M 
                          M     if (((RR1)   & 180h) == 100h)
                          M       if (PREV_BANK == 0)
                          M         bsf     STATUS, RP1
                          M       endif
                          M       if (PREV_BANK == 1)
                          M         bcf     STATUS, RP0
                          M         bsf     STATUS, RP1
                          M       endif
                          M       if (PREV_BANK == 3)
                          M         bcf     STATUS, RP0
                          M       endif
                          M PREV_BANK = 2
                          M     endif
                          M 
                          M     if (((RR1)   & 180h) == 180h)
                          M       if (PREV_BANK == 0)
                          M         bsf     STATUS, RP0
                          M         bsf     STATUS, RP1
                          M       endif
                          M       if (PREV_BANK == 1)
                          M         bsf     STATUS, RP1
                          M       endif
                          M       if (PREV_BANK == 2)
                          M         bsf     STATUS, RP0
                          M       endif
                          M PREV_BANK = 3
                          M     endif
0135   00B6               M         movwf   RR1
MPASM  5.49                      RTCCON~1.ASM   1-27-2021  11:00:41         PAGE 31


LOC  OBJECT CODE     LINE SOURCE TEXT
  VALUE

                          M         BIT?W   006h
                          M     if (((006h)  & 7) == 0)
                          M         movlw   01h
                          M     endif
                          M     if (((006h)  & 7) == 1)
                          M         movlw   02h
                          M     endif
                          M     if (((006h)  & 7) == 2)
                          M         movlw   04h
                          M     endif
                          M     if (((006h)  & 7) == 3)
                          M         movlw   08h
                          M     endif
                          M     if (((006h)  & 7) == 4)
                          M         movlw   10h
                          M     endif
                          M     if (((006h)  & 7) == 5)
                          M         movlw   20h
                          M     endif
                          M     if (((006h)  & 7) == 6)
0136   3040               M         movlw   40h
                          M     endif
                          M     if (((006h)  & 7) == 7)
                          M         movlw   80h
                          M     endif
0137   00B4               M         movwf   RM1
                      00078         I2CCLOCK?T      _CPIN
                          M         BIT?R2  PORTB, 007h
0138   3006               M         movlw   low ((PORTB) + ((007h)  >> 3))
                          M         CHK?RP  RR2
                          M     if (((RR2)   & 180h) == 0)
                          M       if (PREV_BANK == 1)
                          M         bcf     STATUS, RP0
                          M       endif
                          M       if (PREV_BANK == 2)
                          M         bcf     STATUS, RP1
                          M       endif
                          M       if (PREV_BANK == 3)
                          M         bcf     STATUS, RP0
                          M         bcf     STATUS, RP1
                          M       endif
  00000000                M PREV_BANK = 0
                          M     endif
                          M 
                          M     if (((RR2)   & 180h) == 80h)
                          M       if (PREV_BANK == 0)
                          M         bsf     STATUS, RP0
                          M       endif
                          M       if (PREV_BANK == 2)
                          M         bsf     STATUS, RP0
                          M         bcf     STATUS, RP1
                          M       endif
                          M       if (PREV_BANK == 3)
MPASM  5.49                      RTCCON~1.ASM   1-27-2021  11:00:41         PAGE 32


LOC  OBJECT CODE     LINE SOURCE TEXT
  VALUE

                          M         bcf     STATUS, RP1
                          M       endif
                          M PREV_BANK = 1
                          M     endif
                          M 
                          M     if (((RR2)   & 180h) == 100h)
                          M       if (PREV_BANK == 0)
                          M         bsf     STATUS, RP1
                          M       endif
                          M       if (PREV_BANK == 1)
                          M         bcf     STATUS, RP0
                          M         bsf     STATUS, RP1
                          M       endif
                          M       if (PREV_BANK == 3)
                          M         bcf     STATUS, RP0
                          M       endif
                          M PREV_BANK = 2
                          M     endif
                          M 
                          M     if (((RR2)   & 180h) == 180h)
                          M       if (PREV_BANK == 0)
                          M         bsf     STATUS, RP0
                          M         bsf     STATUS, RP1
                          M       endif
                          M       if (PREV_BANK == 1)
                          M         bsf     STATUS, RP1
                          M       endif
                          M       if (PREV_BANK == 2)
                          M         bsf     STATUS, RP0
                          M       endif
                          M PREV_BANK = 3
                          M     endif
0139   00B7               M         movwf   RR2
                          M         BIT?W   007h
                          M     if (((007h)  & 7) == 0)
                          M         movlw   01h
                          M     endif
                          M     if (((007h)  & 7) == 1)
                          M         movlw   02h
                          M     endif
                          M     if (((007h)  & 7) == 2)
                          M         movlw   04h
                          M     endif
                          M     if (((007h)  & 7) == 3)
                          M         movlw   08h
                          M     endif
                          M     if (((007h)  & 7) == 4)
                          M         movlw   10h
                          M     endif
                          M     if (((007h)  & 7) == 5)
                          M         movlw   20h
                          M     endif
                          M     if (((007h)  & 7) == 6)
MPASM  5.49                      RTCCON~1.ASM   1-27-2021  11:00:41         PAGE 33


LOC  OBJECT CODE     LINE SOURCE TEXT
  VALUE

                          M         movlw   40h
                          M     endif
                          M     if (((007h)  & 7) == 7)
013A   3080               M         movlw   80h
                          M     endif
013B   00B5               M         movwf   RM2
                      00079         I2CWRITE?C      0D0h
                          M     if ((high (0D0h)) != 0)
                          M         movlw   (0D0h) >> 8
                          M         L?CALL  I2CWRITE
                          M     endif
                          M         MOVE?CA low (0D0h)
013C   30D0               M         movlw   low (low (0D0h))
                          M         L?CALL  I2CWRITE
                          M         RST?RP
                          M     if ((PREV_BANK & 1) != 0)
                          M         bcf     STATUS, RP0
                          M     endif
                          M     if ((PREV_BANK & 2) != 0)
                          M         bcf     STATUS, RP1
                          M     endif
  00000000                M PREV_BANK = 0
                          M 
                          M     if ((I2CWRITE) < 1)
                          M       if (CODE_SIZE >= 4)
                          M         if (((I2CWRITE) & 800h) == 0)
                          M         bcf     PCLATH, 3
                          M         else
                          M         bsf     PCLATH, 3
                          M         endif
                          M       endif
                          M       if (CODE_SIZE == 8)
                          M         if (((I2CWRITE) & 1000h) == 0)
                          M         bcf     PCLATH, 4
                          M         else
                          M         bsf     PCLATH, 4
                          M         endif
                          M       endif
                          M     else
                          M       if ((I2CWRITE) > $)
                          M         if (CODE_SIZE >= 4)
                          M           if (((I2CWRITE) & 800h) == 0)
                          M         bcf     PCLATH, 3
                          M           else
                          M         bsf     PCLATH, 3
                          M           endif
                          M         endif
                          M         if (CODE_SIZE == 8)
                          M           if (((I2CWRITE) & 1000h) == 0)
                          M         bcf     PCLATH, 4
                          M           else
                          M         bsf     PCLATH, 4
                          M           endif
MPASM  5.49                      RTCCON~1.ASM   1-27-2021  11:00:41         PAGE 34


LOC  OBJECT CODE     LINE SOURCE TEXT
  VALUE

                          M         endif
                          M       else
                          M         if (CODE_SIZE >= 4)
                          M           if (((I2CWRITE) & 1800h) == 0)
                          M         clrf    PCLATH
                          M           else
                          M             if (((I2CWRITE) & 800h) == 0)
                          M         bcf     PCLATH, 3
                          M             else
                          M         bsf     PCLATH, 3
                          M             endif
                          M             if (CODE_SIZE == 8)
                          M               if (((I2CWRITE) & 1000h) == 0)
                          M         bcf     PCLATH, 4
                          M               else
                          M         bsf     PCLATH, 4
                          M               endif
                          M             endif
                          M           endif
                          M         endif
                          M       endif
                          M     endif
                          M 
013D   201D               M         call    I2CWRITE
                      00080         I2CWRITE?C      002h
                          M     if ((high (002h)) != 0)
                          M         movlw   (002h) >> 8
                          M         L?CALL  I2CWRITE
                          M     endif
                          M         MOVE?CA low (002h)
013E   3002               M         movlw   low (low (002h))
                          M         L?CALL  I2CWRITE
                          M         RST?RP
                          M     if ((PREV_BANK & 1) != 0)
                          M         bcf     STATUS, RP0
                          M     endif
                          M     if ((PREV_BANK & 2) != 0)
                          M         bcf     STATUS, RP1
                          M     endif
  00000000                M PREV_BANK = 0
                          M 
                          M     if ((I2CWRITE) < 1)
                          M       if (CODE_SIZE >= 4)
                          M         if (((I2CWRITE) & 800h) == 0)
                          M         bcf     PCLATH, 3
                          M         else
                          M         bsf     PCLATH, 3
                          M         endif
                          M       endif
                          M       if (CODE_SIZE == 8)
                          M         if (((I2CWRITE) & 1000h) == 0)
                          M         bcf     PCLATH, 4
                          M         else
MPASM  5.49                      RTCCON~1.ASM   1-27-2021  11:00:41         PAGE 35


LOC  OBJECT CODE     LINE SOURCE TEXT
  VALUE

                          M         bsf     PCLATH, 4
                          M         endif
                          M       endif
                          M     else
                          M       if ((I2CWRITE) > $)
                          M         if (CODE_SIZE >= 4)
                          M           if (((I2CWRITE) & 800h) == 0)
                          M         bcf     PCLATH, 3
                          M           else
                          M         bsf     PCLATH, 3
                          M           endif
                          M         endif
                          M         if (CODE_SIZE == 8)
                          M           if (((I2CWRITE) & 1000h) == 0)
                          M         bcf     PCLATH, 4
                          M           else
                          M         bsf     PCLATH, 4
                          M           endif
                          M         endif
                          M       else
                          M         if (CODE_SIZE >= 4)
                          M           if (((I2CWRITE) & 1800h) == 0)
                          M         clrf    PCLATH
                          M           else
                          M             if (((I2CWRITE) & 800h) == 0)
                          M         bcf     PCLATH, 3
                          M             else
                          M         bsf     PCLATH, 3
                          M             endif
                          M             if (CODE_SIZE == 8)
                          M               if (((I2CWRITE) & 1000h) == 0)
                          M         bcf     PCLATH, 4
                          M               else
                          M         bsf     PCLATH, 4
                          M               endif
                          M             endif
                          M           endif
                          M         endif
                          M       endif
                          M     endif
                          M 
013F   201D               M         call    I2CWRITE
                      00081         I2CREADS?B      _hora
                          M         L?CALL  I2CREADS
                          M         RST?RP
                          M     if ((PREV_BANK & 1) != 0)
                          M         bcf     STATUS, RP0
                          M     endif
                          M     if ((PREV_BANK & 2) != 0)
                          M         bcf     STATUS, RP1
                          M     endif
  00000000                M PREV_BANK = 0
                          M 
MPASM  5.49                      RTCCON~1.ASM   1-27-2021  11:00:41         PAGE 36


LOC  OBJECT CODE     LINE SOURCE TEXT
  VALUE

                          M     if ((I2CREADS) < 1)
                          M       if (CODE_SIZE >= 4)
                          M         if (((I2CREADS) & 800h) == 0)
                          M         bcf     PCLATH, 3
                          M         else
                          M         bsf     PCLATH, 3
                          M         endif
                          M       endif
                          M       if (CODE_SIZE == 8)
                          M         if (((I2CREADS) & 1000h) == 0)
                          M         bcf     PCLATH, 4
                          M         else
                          M         bsf     PCLATH, 4
                          M         endif
                          M       endif
                          M     else
                          M       if ((I2CREADS) > $)
                          M         if (CODE_SIZE >= 4)
                          M           if (((I2CREADS) & 800h) == 0)
                          M         bcf     PCLATH, 3
                          M           else
                          M         bsf     PCLATH, 3
                          M           endif
                          M         endif
                          M         if (CODE_SIZE == 8)
                          M           if (((I2CREADS) & 1000h) == 0)
                          M         bcf     PCLATH, 4
                          M           else
                          M         bsf     PCLATH, 4
                          M           endif
                          M         endif
                          M       else
                          M         if (CODE_SIZE >= 4)
                          M           if (((I2CREADS) & 1800h) == 0)
                          M         clrf    PCLATH
                          M           else
                          M             if (((I2CREADS) & 800h) == 0)
                          M         bcf     PCLATH, 3
                          M             else
                          M         bsf     PCLATH, 3
                          M             endif
                          M             if (CODE_SIZE == 8)
                          M               if (((I2CREADS) & 1000h) == 0)
                          M         bcf     PCLATH, 4
                          M               else
                          M         bsf     PCLATH, 4
                          M               endif
                          M             endif
                          M           endif
                          M         endif
                          M       endif
                          M     endif
                          M 
MPASM  5.49                      RTCCON~1.ASM   1-27-2021  11:00:41         PAGE 37


LOC  OBJECT CODE     LINE SOURCE TEXT
  VALUE

0140   2002               M         call    I2CREADS
                          M         MOVE?AB _hora
                          M         CHK?RP  _hora
                          M     if (((_hora) & 180h) == 0)
                          M       if (PREV_BANK == 1)
                          M         bcf     STATUS, RP0
                          M       endif
                          M       if (PREV_BANK == 2)
                          M         bcf     STATUS, RP1
                          M       endif
                          M       if (PREV_BANK == 3)
                          M         bcf     STATUS, RP0
                          M         bcf     STATUS, RP1
                          M       endif
  00000000                M PREV_BANK = 0
                          M     endif
                          M 
                          M     if (((_hora) & 180h) == 80h)
                          M       if (PREV_BANK == 0)
                          M         bsf     STATUS, RP0
                          M       endif
                          M       if (PREV_BANK == 2)
                          M         bsf     STATUS, RP0
                          M         bcf     STATUS, RP1
                          M       endif
                          M       if (PREV_BANK == 3)
                          M         bcf     STATUS, RP1
                          M       endif
                          M PREV_BANK = 1
                          M     endif
                          M 
                          M     if (((_hora) & 180h) == 100h)
                          M       if (PREV_BANK == 0)
                          M         bsf     STATUS, RP1
                          M       endif
                          M       if (PREV_BANK == 1)
                          M         bcf     STATUS, RP0
                          M         bsf     STATUS, RP1
                          M       endif
                          M       if (PREV_BANK == 3)
                          M         bcf     STATUS, RP0
                          M       endif
                          M PREV_BANK = 2
                          M     endif
                          M 
                          M     if (((_hora) & 180h) == 180h)
                          M       if (PREV_BANK == 0)
                          M         bsf     STATUS, RP0
                          M         bsf     STATUS, RP1
                          M       endif
                          M       if (PREV_BANK == 1)
                          M         bsf     STATUS, RP1
                          M       endif
MPASM  5.49                      RTCCON~1.ASM   1-27-2021  11:00:41         PAGE 38


LOC  OBJECT CODE     LINE SOURCE TEXT
  VALUE

                          M       if (PREV_BANK == 2)
                          M         bsf     STATUS, RP0
                          M       endif
                          M PREV_BANK = 3
                          M     endif
0141   00BB               M         movwf   _hora
                      00082         I2CDATA?T       _DPIN
                          M         BIT?R1  PORTB, 006h
0142   3006               M         movlw   low ((PORTB) + ((006h)  >> 3))
                          M         CHK?RP  RR1
                          M     if (((RR1)   & 180h) == 0)
                          M       if (PREV_BANK == 1)
                          M         bcf     STATUS, RP0
                          M       endif
                          M       if (PREV_BANK == 2)
                          M         bcf     STATUS, RP1
                          M       endif
                          M       if (PREV_BANK == 3)
                          M         bcf     STATUS, RP0
                          M         bcf     STATUS, RP1
                          M       endif
  00000000                M PREV_BANK = 0
                          M     endif
                          M 
                          M     if (((RR1)   & 180h) == 80h)
                          M       if (PREV_BANK == 0)
                          M         bsf     STATUS, RP0
                          M       endif
                          M       if (PREV_BANK == 2)
                          M         bsf     STATUS, RP0
                          M         bcf     STATUS, RP1
                          M       endif
                          M       if (PREV_BANK == 3)
                          M         bcf     STATUS, RP1
                          M       endif
                          M PREV_BANK = 1
                          M     endif
                          M 
                          M     if (((RR1)   & 180h) == 100h)
                          M       if (PREV_BANK == 0)
                          M         bsf     STATUS, RP1
                          M       endif
                          M       if (PREV_BANK == 1)
                          M         bcf     STATUS, RP0
                          M         bsf     STATUS, RP1
                          M       endif
                          M       if (PREV_BANK == 3)
                          M         bcf     STATUS, RP0
                          M       endif
                          M PREV_BANK = 2
                          M     endif
                          M 
                          M     if (((RR1)   & 180h) == 180h)
MPASM  5.49                      RTCCON~1.ASM   1-27-2021  11:00:41         PAGE 39


LOC  OBJECT CODE     LINE SOURCE TEXT
  VALUE

                          M       if (PREV_BANK == 0)
                          M         bsf     STATUS, RP0
                          M         bsf     STATUS, RP1
                          M       endif
                          M       if (PREV_BANK == 1)
                          M         bsf     STATUS, RP1
                          M       endif
                          M       if (PREV_BANK == 2)
                          M         bsf     STATUS, RP0
                          M       endif
                          M PREV_BANK = 3
                          M     endif
0143   00B6               M         movwf   RR1
                          M         BIT?W   006h
                          M     if (((006h)  & 7) == 0)
                          M         movlw   01h
                          M     endif
                          M     if (((006h)  & 7) == 1)
                          M         movlw   02h
                          M     endif
                          M     if (((006h)  & 7) == 2)
                          M         movlw   04h
                          M     endif
                          M     if (((006h)  & 7) == 3)
                          M         movlw   08h
                          M     endif
                          M     if (((006h)  & 7) == 4)
                          M         movlw   10h
                          M     endif
                          M     if (((006h)  & 7) == 5)
                          M         movlw   20h
                          M     endif
                          M     if (((006h)  & 7) == 6)
0144   3040               M         movlw   40h
                          M     endif
                          M     if (((006h)  & 7) == 7)
                          M         movlw   80h
                          M     endif
0145   00B4               M         movwf   RM1
                      00083         I2CCLOCK?T      _CPIN
                          M         BIT?R2  PORTB, 007h
0146   3006               M         movlw   low ((PORTB) + ((007h)  >> 3))
                          M         CHK?RP  RR2
                          M     if (((RR2)   & 180h) == 0)
                          M       if (PREV_BANK == 1)
                          M         bcf     STATUS, RP0
                          M       endif
                          M       if (PREV_BANK == 2)
                          M         bcf     STATUS, RP1
                          M       endif
                          M       if (PREV_BANK == 3)
                          M         bcf     STATUS, RP0
                          M         bcf     STATUS, RP1
MPASM  5.49                      RTCCON~1.ASM   1-27-2021  11:00:41         PAGE 40


LOC  OBJECT CODE     LINE SOURCE TEXT
  VALUE

                          M       endif
  00000000                M PREV_BANK = 0
                          M     endif
                          M 
                          M     if (((RR2)   & 180h) == 80h)
                          M       if (PREV_BANK == 0)
                          M         bsf     STATUS, RP0
                          M       endif
                          M       if (PREV_BANK == 2)
                          M         bsf     STATUS, RP0
                          M         bcf     STATUS, RP1
                          M       endif
                          M       if (PREV_BANK == 3)
                          M         bcf     STATUS, RP1
                          M       endif
                          M PREV_BANK = 1
                          M     endif
                          M 
                          M     if (((RR2)   & 180h) == 100h)
                          M       if (PREV_BANK == 0)
                          M         bsf     STATUS, RP1
                          M       endif
                          M       if (PREV_BANK == 1)
                          M         bcf     STATUS, RP0
                          M         bsf     STATUS, RP1
                          M       endif
                          M       if (PREV_BANK == 3)
                          M         bcf     STATUS, RP0
                          M       endif
                          M PREV_BANK = 2
                          M     endif
                          M 
                          M     if (((RR2)   & 180h) == 180h)
                          M       if (PREV_BANK == 0)
                          M         bsf     STATUS, RP0
                          M         bsf     STATUS, RP1
                          M       endif
                          M       if (PREV_BANK == 1)
                          M         bsf     STATUS, RP1
                          M       endif
                          M       if (PREV_BANK == 2)
                          M         bsf     STATUS, RP0
                          M       endif
                          M PREV_BANK = 3
                          M     endif
0147   00B7               M         movwf   RR2
                          M         BIT?W   007h
                          M     if (((007h)  & 7) == 0)
                          M         movlw   01h
                          M     endif
                          M     if (((007h)  & 7) == 1)
                          M         movlw   02h
                          M     endif
MPASM  5.49                      RTCCON~1.ASM   1-27-2021  11:00:41         PAGE 41


LOC  OBJECT CODE     LINE SOURCE TEXT
  VALUE

                          M     if (((007h)  & 7) == 2)
                          M         movlw   04h
                          M     endif
                          M     if (((007h)  & 7) == 3)
                          M         movlw   08h
                          M     endif
                          M     if (((007h)  & 7) == 4)
                          M         movlw   10h
                          M     endif
                          M     if (((007h)  & 7) == 5)
                          M         movlw   20h
                          M     endif
                          M     if (((007h)  & 7) == 6)
                          M         movlw   40h
                          M     endif
                          M     if (((007h)  & 7) == 7)
0148   3080               M         movlw   80h
                          M     endif
0149   00B5               M         movwf   RM2
                      00084         I2CWRITE?C      0D0h
                          M     if ((high (0D0h)) != 0)
                          M         movlw   (0D0h) >> 8
                          M         L?CALL  I2CWRITE
                          M     endif
                          M         MOVE?CA low (0D0h)
014A   30D0               M         movlw   low (low (0D0h))
                          M         L?CALL  I2CWRITE
                          M         RST?RP
                          M     if ((PREV_BANK & 1) != 0)
                          M         bcf     STATUS, RP0
                          M     endif
                          M     if ((PREV_BANK & 2) != 0)
                          M         bcf     STATUS, RP1
                          M     endif
  00000000                M PREV_BANK = 0
                          M 
                          M     if ((I2CWRITE) < 1)
                          M       if (CODE_SIZE >= 4)
                          M         if (((I2CWRITE) & 800h) == 0)
                          M         bcf     PCLATH, 3
                          M         else
                          M         bsf     PCLATH, 3
                          M         endif
                          M       endif
                          M       if (CODE_SIZE == 8)
                          M         if (((I2CWRITE) & 1000h) == 0)
                          M         bcf     PCLATH, 4
                          M         else
                          M         bsf     PCLATH, 4
                          M         endif
                          M       endif
                          M     else
                          M       if ((I2CWRITE) > $)
MPASM  5.49                      RTCCON~1.ASM   1-27-2021  11:00:41         PAGE 42


LOC  OBJECT CODE     LINE SOURCE TEXT
  VALUE

                          M         if (CODE_SIZE >= 4)
                          M           if (((I2CWRITE) & 800h) == 0)
                          M         bcf     PCLATH, 3
                          M           else
                          M         bsf     PCLATH, 3
                          M           endif
                          M         endif
                          M         if (CODE_SIZE == 8)
                          M           if (((I2CWRITE) & 1000h) == 0)
                          M         bcf     PCLATH, 4
                          M           else
                          M         bsf     PCLATH, 4
                          M           endif
                          M         endif
                          M       else
                          M         if (CODE_SIZE >= 4)
                          M           if (((I2CWRITE) & 1800h) == 0)
                          M         clrf    PCLATH
                          M           else
                          M             if (((I2CWRITE) & 800h) == 0)
                          M         bcf     PCLATH, 3
                          M             else
                          M         bsf     PCLATH, 3
                          M             endif
                          M             if (CODE_SIZE == 8)
                          M               if (((I2CWRITE) & 1000h) == 0)
                          M         bcf     PCLATH, 4
                          M               else
                          M         bsf     PCLATH, 4
                          M               endif
                          M             endif
                          M           endif
                          M         endif
                          M       endif
                          M     endif
                          M 
014B   201D               M         call    I2CWRITE
                      00085         I2CWRITE?C      003h
                          M     if ((high (003h)) != 0)
                          M         movlw   (003h) >> 8
                          M         L?CALL  I2CWRITE
                          M     endif
                          M         MOVE?CA low (003h)
014C   3003               M         movlw   low (low (003h))
                          M         L?CALL  I2CWRITE
                          M         RST?RP
                          M     if ((PREV_BANK & 1) != 0)
                          M         bcf     STATUS, RP0
                          M     endif
                          M     if ((PREV_BANK & 2) != 0)
                          M         bcf     STATUS, RP1
                          M     endif
  00000000                M PREV_BANK = 0
MPASM  5.49                      RTCCON~1.ASM   1-27-2021  11:00:41         PAGE 43


LOC  OBJECT CODE     LINE SOURCE TEXT
  VALUE

                          M 
                          M     if ((I2CWRITE) < 1)
                          M       if (CODE_SIZE >= 4)
                          M         if (((I2CWRITE) & 800h) == 0)
                          M         bcf     PCLATH, 3
                          M         else
                          M         bsf     PCLATH, 3
                          M         endif
                          M       endif
                          M       if (CODE_SIZE == 8)
                          M         if (((I2CWRITE) & 1000h) == 0)
                          M         bcf     PCLATH, 4
                          M         else
                          M         bsf     PCLATH, 4
                          M         endif
                          M       endif
                          M     else
                          M       if ((I2CWRITE) > $)
                          M         if (CODE_SIZE >= 4)
                          M           if (((I2CWRITE) & 800h) == 0)
                          M         bcf     PCLATH, 3
                          M           else
                          M         bsf     PCLATH, 3
                          M           endif
                          M         endif
                          M         if (CODE_SIZE == 8)
                          M           if (((I2CWRITE) & 1000h) == 0)
                          M         bcf     PCLATH, 4
                          M           else
                          M         bsf     PCLATH, 4
                          M           endif
                          M         endif
                          M       else
                          M         if (CODE_SIZE >= 4)
                          M           if (((I2CWRITE) & 1800h) == 0)
                          M         clrf    PCLATH
                          M           else
                          M             if (((I2CWRITE) & 800h) == 0)
                          M         bcf     PCLATH, 3
                          M             else
                          M         bsf     PCLATH, 3
                          M             endif
                          M             if (CODE_SIZE == 8)
                          M               if (((I2CWRITE) & 1000h) == 0)
                          M         bcf     PCLATH, 4
                          M               else
                          M         bsf     PCLATH, 4
                          M               endif
                          M             endif
                          M           endif
                          M         endif
                          M       endif
                          M     endif
MPASM  5.49                      RTCCON~1.ASM   1-27-2021  11:00:41         PAGE 44


LOC  OBJECT CODE     LINE SOURCE TEXT
  VALUE

                          M 
014D   201D               M         call    I2CWRITE
                      00086         I2CREADS?B      _diaS
                          M         L?CALL  I2CREADS
                          M         RST?RP
                          M     if ((PREV_BANK & 1) != 0)
                          M         bcf     STATUS, RP0
                          M     endif
                          M     if ((PREV_BANK & 2) != 0)
                          M         bcf     STATUS, RP1
                          M     endif
  00000000                M PREV_BANK = 0
                          M 
                          M     if ((I2CREADS) < 1)
                          M       if (CODE_SIZE >= 4)
                          M         if (((I2CREADS) & 800h) == 0)
                          M         bcf     PCLATH, 3
                          M         else
                          M         bsf     PCLATH, 3
                          M         endif
                          M       endif
                          M       if (CODE_SIZE == 8)
                          M         if (((I2CREADS) & 1000h) == 0)
                          M         bcf     PCLATH, 4
                          M         else
                          M         bsf     PCLATH, 4
                          M         endif
                          M       endif
                          M     else
                          M       if ((I2CREADS) > $)
                          M         if (CODE_SIZE >= 4)
                          M           if (((I2CREADS) & 800h) == 0)
                          M         bcf     PCLATH, 3
                          M           else
                          M         bsf     PCLATH, 3
                          M           endif
                          M         endif
                          M         if (CODE_SIZE == 8)
                          M           if (((I2CREADS) & 1000h) == 0)
                          M         bcf     PCLATH, 4
                          M           else
                          M         bsf     PCLATH, 4
                          M           endif
                          M         endif
                          M       else
                          M         if (CODE_SIZE >= 4)
                          M           if (((I2CREADS) & 1800h) == 0)
                          M         clrf    PCLATH
                          M           else
                          M             if (((I2CREADS) & 800h) == 0)
                          M         bcf     PCLATH, 3
                          M             else
                          M         bsf     PCLATH, 3
MPASM  5.49                      RTCCON~1.ASM   1-27-2021  11:00:41         PAGE 45


LOC  OBJECT CODE     LINE SOURCE TEXT
  VALUE

                          M             endif
                          M             if (CODE_SIZE == 8)
                          M               if (((I2CREADS) & 1000h) == 0)
                          M         bcf     PCLATH, 4
                          M               else
                          M         bsf     PCLATH, 4
                          M               endif
                          M             endif
                          M           endif
                          M         endif
                          M       endif
                          M     endif
                          M 
014E   2002               M         call    I2CREADS
                          M         MOVE?AB _diaS
                          M         CHK?RP  _diaS
                          M     if (((_diaS) & 180h) == 0)
                          M       if (PREV_BANK == 1)
                          M         bcf     STATUS, RP0
                          M       endif
                          M       if (PREV_BANK == 2)
                          M         bcf     STATUS, RP1
                          M       endif
                          M       if (PREV_BANK == 3)
                          M         bcf     STATUS, RP0
                          M         bcf     STATUS, RP1
                          M       endif
  00000000                M PREV_BANK = 0
                          M     endif
                          M 
                          M     if (((_diaS) & 180h) == 80h)
                          M       if (PREV_BANK == 0)
                          M         bsf     STATUS, RP0
                          M       endif
                          M       if (PREV_BANK == 2)
                          M         bsf     STATUS, RP0
                          M         bcf     STATUS, RP1
                          M       endif
                          M       if (PREV_BANK == 3)
                          M         bcf     STATUS, RP1
                          M       endif
                          M PREV_BANK = 1
                          M     endif
                          M 
                          M     if (((_diaS) & 180h) == 100h)
                          M       if (PREV_BANK == 0)
                          M         bsf     STATUS, RP1
                          M       endif
                          M       if (PREV_BANK == 1)
                          M         bcf     STATUS, RP0
                          M         bsf     STATUS, RP1
                          M       endif
                          M       if (PREV_BANK == 3)
MPASM  5.49                      RTCCON~1.ASM   1-27-2021  11:00:41         PAGE 46


LOC  OBJECT CODE     LINE SOURCE TEXT
  VALUE

                          M         bcf     STATUS, RP0
                          M       endif
                          M PREV_BANK = 2
                          M     endif
                          M 
                          M     if (((_diaS) & 180h) == 180h)
                          M       if (PREV_BANK == 0)
                          M         bsf     STATUS, RP0
                          M         bsf     STATUS, RP1
                          M       endif
                          M       if (PREV_BANK == 1)
                          M         bsf     STATUS, RP1
                          M       endif
                          M       if (PREV_BANK == 2)
                          M         bsf     STATUS, RP0
                          M       endif
                          M PREV_BANK = 3
                          M     endif
014F   00BA               M         movwf   _diaS
                      00087         I2CDATA?T       _DPIN
                          M         BIT?R1  PORTB, 006h
0150   3006               M         movlw   low ((PORTB) + ((006h)  >> 3))
                          M         CHK?RP  RR1
                          M     if (((RR1)   & 180h) == 0)
                          M       if (PREV_BANK == 1)
                          M         bcf     STATUS, RP0
                          M       endif
                          M       if (PREV_BANK == 2)
                          M         bcf     STATUS, RP1
                          M       endif
                          M       if (PREV_BANK == 3)
                          M         bcf     STATUS, RP0
                          M         bcf     STATUS, RP1
                          M       endif
  00000000                M PREV_BANK = 0
                          M     endif
                          M 
                          M     if (((RR1)   & 180h) == 80h)
                          M       if (PREV_BANK == 0)
                          M         bsf     STATUS, RP0
                          M       endif
                          M       if (PREV_BANK == 2)
                          M         bsf     STATUS, RP0
                          M         bcf     STATUS, RP1
                          M       endif
                          M       if (PREV_BANK == 3)
                          M         bcf     STATUS, RP1
                          M       endif
                          M PREV_BANK = 1
                          M     endif
                          M 
                          M     if (((RR1)   & 180h) == 100h)
                          M       if (PREV_BANK == 0)
MPASM  5.49                      RTCCON~1.ASM   1-27-2021  11:00:41         PAGE 47


LOC  OBJECT CODE     LINE SOURCE TEXT
  VALUE

                          M         bsf     STATUS, RP1
                          M       endif
                          M       if (PREV_BANK == 1)
                          M         bcf     STATUS, RP0
                          M         bsf     STATUS, RP1
                          M       endif
                          M       if (PREV_BANK == 3)
                          M         bcf     STATUS, RP0
                          M       endif
                          M PREV_BANK = 2
                          M     endif
                          M 
                          M     if (((RR1)   & 180h) == 180h)
                          M       if (PREV_BANK == 0)
                          M         bsf     STATUS, RP0
                          M         bsf     STATUS, RP1
                          M       endif
                          M       if (PREV_BANK == 1)
                          M         bsf     STATUS, RP1
                          M       endif
                          M       if (PREV_BANK == 2)
                          M         bsf     STATUS, RP0
                          M       endif
                          M PREV_BANK = 3
                          M     endif
0151   00B6               M         movwf   RR1
                          M         BIT?W   006h
                          M     if (((006h)  & 7) == 0)
                          M         movlw   01h
                          M     endif
                          M     if (((006h)  & 7) == 1)
                          M         movlw   02h
                          M     endif
                          M     if (((006h)  & 7) == 2)
                          M         movlw   04h
                          M     endif
                          M     if (((006h)  & 7) == 3)
                          M         movlw   08h
                          M     endif
                          M     if (((006h)  & 7) == 4)
                          M         movlw   10h
                          M     endif
                          M     if (((006h)  & 7) == 5)
                          M         movlw   20h
                          M     endif
                          M     if (((006h)  & 7) == 6)
0152   3040               M         movlw   40h
                          M     endif
                          M     if (((006h)  & 7) == 7)
                          M         movlw   80h
                          M     endif
0153   00B4               M         movwf   RM1
                      00088         I2CCLOCK?T      _CPIN
MPASM  5.49                      RTCCON~1.ASM   1-27-2021  11:00:41         PAGE 48


LOC  OBJECT CODE     LINE SOURCE TEXT
  VALUE

                          M         BIT?R2  PORTB, 007h
0154   3006               M         movlw   low ((PORTB) + ((007h)  >> 3))
                          M         CHK?RP  RR2
                          M     if (((RR2)   & 180h) == 0)
                          M       if (PREV_BANK == 1)
                          M         bcf     STATUS, RP0
                          M       endif
                          M       if (PREV_BANK == 2)
                          M         bcf     STATUS, RP1
                          M       endif
                          M       if (PREV_BANK == 3)
                          M         bcf     STATUS, RP0
                          M         bcf     STATUS, RP1
                          M       endif
  00000000                M PREV_BANK = 0
                          M     endif
                          M 
                          M     if (((RR2)   & 180h) == 80h)
                          M       if (PREV_BANK == 0)
                          M         bsf     STATUS, RP0
                          M       endif
                          M       if (PREV_BANK == 2)
                          M         bsf     STATUS, RP0
                          M         bcf     STATUS, RP1
                          M       endif
                          M       if (PREV_BANK == 3)
                          M         bcf     STATUS, RP1
                          M       endif
                          M PREV_BANK = 1
                          M     endif
                          M 
                          M     if (((RR2)   & 180h) == 100h)
                          M       if (PREV_BANK == 0)
                          M         bsf     STATUS, RP1
                          M       endif
                          M       if (PREV_BANK == 1)
                          M         bcf     STATUS, RP0
                          M         bsf     STATUS, RP1
                          M       endif
                          M       if (PREV_BANK == 3)
                          M         bcf     STATUS, RP0
                          M       endif
                          M PREV_BANK = 2
                          M     endif
                          M 
                          M     if (((RR2)   & 180h) == 180h)
                          M       if (PREV_BANK == 0)
                          M         bsf     STATUS, RP0
                          M         bsf     STATUS, RP1
                          M       endif
                          M       if (PREV_BANK == 1)
                          M         bsf     STATUS, RP1
                          M       endif
MPASM  5.49                      RTCCON~1.ASM   1-27-2021  11:00:41         PAGE 49


LOC  OBJECT CODE     LINE SOURCE TEXT
  VALUE

                          M       if (PREV_BANK == 2)
                          M         bsf     STATUS, RP0
                          M       endif
                          M PREV_BANK = 3
                          M     endif
0155   00B7               M         movwf   RR2
                          M         BIT?W   007h
                          M     if (((007h)  & 7) == 0)
                          M         movlw   01h
                          M     endif
                          M     if (((007h)  & 7) == 1)
                          M         movlw   02h
                          M     endif
                          M     if (((007h)  & 7) == 2)
                          M         movlw   04h
                          M     endif
                          M     if (((007h)  & 7) == 3)
                          M         movlw   08h
                          M     endif
                          M     if (((007h)  & 7) == 4)
                          M         movlw   10h
                          M     endif
                          M     if (((007h)  & 7) == 5)
                          M         movlw   20h
                          M     endif
                          M     if (((007h)  & 7) == 6)
                          M         movlw   40h
                          M     endif
                          M     if (((007h)  & 7) == 7)
0156   3080               M         movlw   80h
                          M     endif
0157   00B5               M         movwf   RM2
                      00089         I2CWRITE?C      0D0h
                          M     if ((high (0D0h)) != 0)
                          M         movlw   (0D0h) >> 8
                          M         L?CALL  I2CWRITE
                          M     endif
                          M         MOVE?CA low (0D0h)
0158   30D0               M         movlw   low (low (0D0h))
                          M         L?CALL  I2CWRITE
                          M         RST?RP
                          M     if ((PREV_BANK & 1) != 0)
                          M         bcf     STATUS, RP0
                          M     endif
                          M     if ((PREV_BANK & 2) != 0)
                          M         bcf     STATUS, RP1
                          M     endif
  00000000                M PREV_BANK = 0
                          M 
                          M     if ((I2CWRITE) < 1)
                          M       if (CODE_SIZE >= 4)
                          M         if (((I2CWRITE) & 800h) == 0)
                          M         bcf     PCLATH, 3
MPASM  5.49                      RTCCON~1.ASM   1-27-2021  11:00:41         PAGE 50


LOC  OBJECT CODE     LINE SOURCE TEXT
  VALUE

                          M         else
                          M         bsf     PCLATH, 3
                          M         endif
                          M       endif
                          M       if (CODE_SIZE == 8)
                          M         if (((I2CWRITE) & 1000h) == 0)
                          M         bcf     PCLATH, 4
                          M         else
                          M         bsf     PCLATH, 4
                          M         endif
                          M       endif
                          M     else
                          M       if ((I2CWRITE) > $)
                          M         if (CODE_SIZE >= 4)
                          M           if (((I2CWRITE) & 800h) == 0)
                          M         bcf     PCLATH, 3
                          M           else
                          M         bsf     PCLATH, 3
                          M           endif
                          M         endif
                          M         if (CODE_SIZE == 8)
                          M           if (((I2CWRITE) & 1000h) == 0)
                          M         bcf     PCLATH, 4
                          M           else
                          M         bsf     PCLATH, 4
                          M           endif
                          M         endif
                          M       else
                          M         if (CODE_SIZE >= 4)
                          M           if (((I2CWRITE) & 1800h) == 0)
                          M         clrf    PCLATH
                          M           else
                          M             if (((I2CWRITE) & 800h) == 0)
                          M         bcf     PCLATH, 3
                          M             else
                          M         bsf     PCLATH, 3
                          M             endif
                          M             if (CODE_SIZE == 8)
                          M               if (((I2CWRITE) & 1000h) == 0)
                          M         bcf     PCLATH, 4
                          M               else
                          M         bsf     PCLATH, 4
                          M               endif
                          M             endif
                          M           endif
                          M         endif
                          M       endif
                          M     endif
                          M 
0159   201D               M         call    I2CWRITE
                      00090         I2CWRITE?C      004h
                          M     if ((high (004h)) != 0)
                          M         movlw   (004h) >> 8
MPASM  5.49                      RTCCON~1.ASM   1-27-2021  11:00:41         PAGE 51


LOC  OBJECT CODE     LINE SOURCE TEXT
  VALUE

                          M         L?CALL  I2CWRITE
                          M     endif
                          M         MOVE?CA low (004h)
015A   3004               M         movlw   low (low (004h))
                          M         L?CALL  I2CWRITE
                          M         RST?RP
                          M     if ((PREV_BANK & 1) != 0)
                          M         bcf     STATUS, RP0
                          M     endif
                          M     if ((PREV_BANK & 2) != 0)
                          M         bcf     STATUS, RP1
                          M     endif
  00000000                M PREV_BANK = 0
                          M 
                          M     if ((I2CWRITE) < 1)
                          M       if (CODE_SIZE >= 4)
                          M         if (((I2CWRITE) & 800h) == 0)
                          M         bcf     PCLATH, 3
                          M         else
                          M         bsf     PCLATH, 3
                          M         endif
                          M       endif
                          M       if (CODE_SIZE == 8)
                          M         if (((I2CWRITE) & 1000h) == 0)
                          M         bcf     PCLATH, 4
                          M         else
                          M         bsf     PCLATH, 4
                          M         endif
                          M       endif
                          M     else
                          M       if ((I2CWRITE) > $)
                          M         if (CODE_SIZE >= 4)
                          M           if (((I2CWRITE) & 800h) == 0)
                          M         bcf     PCLATH, 3
                          M           else
                          M         bsf     PCLATH, 3
                          M           endif
                          M         endif
                          M         if (CODE_SIZE == 8)
                          M           if (((I2CWRITE) & 1000h) == 0)
                          M         bcf     PCLATH, 4
                          M           else
                          M         bsf     PCLATH, 4
                          M           endif
                          M         endif
                          M       else
                          M         if (CODE_SIZE >= 4)
                          M           if (((I2CWRITE) & 1800h) == 0)
                          M         clrf    PCLATH
                          M           else
                          M             if (((I2CWRITE) & 800h) == 0)
                          M         bcf     PCLATH, 3
                          M             else
MPASM  5.49                      RTCCON~1.ASM   1-27-2021  11:00:41         PAGE 52


LOC  OBJECT CODE     LINE SOURCE TEXT
  VALUE

                          M         bsf     PCLATH, 3
                          M             endif
                          M             if (CODE_SIZE == 8)
                          M               if (((I2CWRITE) & 1000h) == 0)
                          M         bcf     PCLATH, 4
                          M               else
                          M         bsf     PCLATH, 4
                          M               endif
                          M             endif
                          M           endif
                          M         endif
                          M       endif
                          M     endif
                          M 
015B   201D               M         call    I2CWRITE
                      00091         I2CREADS?B      _diaF
                          M         L?CALL  I2CREADS
                          M         RST?RP
                          M     if ((PREV_BANK & 1) != 0)
                          M         bcf     STATUS, RP0
                          M     endif
                          M     if ((PREV_BANK & 2) != 0)
                          M         bcf     STATUS, RP1
                          M     endif
  00000000                M PREV_BANK = 0
                          M 
                          M     if ((I2CREADS) < 1)
                          M       if (CODE_SIZE >= 4)
                          M         if (((I2CREADS) & 800h) == 0)
                          M         bcf     PCLATH, 3
                          M         else
                          M         bsf     PCLATH, 3
                          M         endif
                          M       endif
                          M       if (CODE_SIZE == 8)
                          M         if (((I2CREADS) & 1000h) == 0)
                          M         bcf     PCLATH, 4
                          M         else
                          M         bsf     PCLATH, 4
                          M         endif
                          M       endif
                          M     else
                          M       if ((I2CREADS) > $)
                          M         if (CODE_SIZE >= 4)
                          M           if (((I2CREADS) & 800h) == 0)
                          M         bcf     PCLATH, 3
                          M           else
                          M         bsf     PCLATH, 3
                          M           endif
                          M         endif
                          M         if (CODE_SIZE == 8)
                          M           if (((I2CREADS) & 1000h) == 0)
                          M         bcf     PCLATH, 4
MPASM  5.49                      RTCCON~1.ASM   1-27-2021  11:00:41         PAGE 53


LOC  OBJECT CODE     LINE SOURCE TEXT
  VALUE

                          M           else
                          M         bsf     PCLATH, 4
                          M           endif
                          M         endif
                          M       else
                          M         if (CODE_SIZE >= 4)
                          M           if (((I2CREADS) & 1800h) == 0)
                          M         clrf    PCLATH
                          M           else
                          M             if (((I2CREADS) & 800h) == 0)
                          M         bcf     PCLATH, 3
                          M             else
                          M         bsf     PCLATH, 3
                          M             endif
                          M             if (CODE_SIZE == 8)
                          M               if (((I2CREADS) & 1000h) == 0)
                          M         bcf     PCLATH, 4
                          M               else
                          M         bsf     PCLATH, 4
                          M               endif
                          M             endif
                          M           endif
                          M         endif
                          M       endif
                          M     endif
                          M 
015C   2002               M         call    I2CREADS
                          M         MOVE?AB _diaF
                          M         CHK?RP  _diaF
                          M     if (((_diaF) & 180h) == 0)
                          M       if (PREV_BANK == 1)
                          M         bcf     STATUS, RP0
                          M       endif
                          M       if (PREV_BANK == 2)
                          M         bcf     STATUS, RP1
                          M       endif
                          M       if (PREV_BANK == 3)
                          M         bcf     STATUS, RP0
                          M         bcf     STATUS, RP1
                          M       endif
  00000000                M PREV_BANK = 0
                          M     endif
                          M 
                          M     if (((_diaF) & 180h) == 80h)
                          M       if (PREV_BANK == 0)
                          M         bsf     STATUS, RP0
                          M       endif
                          M       if (PREV_BANK == 2)
                          M         bsf     STATUS, RP0
                          M         bcf     STATUS, RP1
                          M       endif
                          M       if (PREV_BANK == 3)
                          M         bcf     STATUS, RP1
MPASM  5.49                      RTCCON~1.ASM   1-27-2021  11:00:41         PAGE 54


LOC  OBJECT CODE     LINE SOURCE TEXT
  VALUE

                          M       endif
                          M PREV_BANK = 1
                          M     endif
                          M 
                          M     if (((_diaF) & 180h) == 100h)
                          M       if (PREV_BANK == 0)
                          M         bsf     STATUS, RP1
                          M       endif
                          M       if (PREV_BANK == 1)
                          M         bcf     STATUS, RP0
                          M         bsf     STATUS, RP1
                          M       endif
                          M       if (PREV_BANK == 3)
                          M         bcf     STATUS, RP0
                          M       endif
                          M PREV_BANK = 2
                          M     endif
                          M 
                          M     if (((_diaF) & 180h) == 180h)
                          M       if (PREV_BANK == 0)
                          M         bsf     STATUS, RP0
                          M         bsf     STATUS, RP1
                          M       endif
                          M       if (PREV_BANK == 1)
                          M         bsf     STATUS, RP1
                          M       endif
                          M       if (PREV_BANK == 2)
                          M         bsf     STATUS, RP0
                          M       endif
                          M PREV_BANK = 3
                          M     endif
015D   00B9               M         movwf   _diaF
                      00092         I2CDATA?T       _DPIN
                          M         BIT?R1  PORTB, 006h
015E   3006               M         movlw   low ((PORTB) + ((006h)  >> 3))
                          M         CHK?RP  RR1
                          M     if (((RR1)   & 180h) == 0)
                          M       if (PREV_BANK == 1)
                          M         bcf     STATUS, RP0
                          M       endif
                          M       if (PREV_BANK == 2)
                          M         bcf     STATUS, RP1
                          M       endif
                          M       if (PREV_BANK == 3)
                          M         bcf     STATUS, RP0
                          M         bcf     STATUS, RP1
                          M       endif
  00000000                M PREV_BANK = 0
                          M     endif
                          M 
                          M     if (((RR1)   & 180h) == 80h)
                          M       if (PREV_BANK == 0)
                          M         bsf     STATUS, RP0
MPASM  5.49                      RTCCON~1.ASM   1-27-2021  11:00:41         PAGE 55


LOC  OBJECT CODE     LINE SOURCE TEXT
  VALUE

                          M       endif
                          M       if (PREV_BANK == 2)
                          M         bsf     STATUS, RP0
                          M         bcf     STATUS, RP1
                          M       endif
                          M       if (PREV_BANK == 3)
                          M         bcf     STATUS, RP1
                          M       endif
                          M PREV_BANK = 1
                          M     endif
                          M 
                          M     if (((RR1)   & 180h) == 100h)
                          M       if (PREV_BANK == 0)
                          M         bsf     STATUS, RP1
                          M       endif
                          M       if (PREV_BANK == 1)
                          M         bcf     STATUS, RP0
                          M         bsf     STATUS, RP1
                          M       endif
                          M       if (PREV_BANK == 3)
                          M         bcf     STATUS, RP0
                          M       endif
                          M PREV_BANK = 2
                          M     endif
                          M 
                          M     if (((RR1)   & 180h) == 180h)
                          M       if (PREV_BANK == 0)
                          M         bsf     STATUS, RP0
                          M         bsf     STATUS, RP1
                          M       endif
                          M       if (PREV_BANK == 1)
                          M         bsf     STATUS, RP1
                          M       endif
                          M       if (PREV_BANK == 2)
                          M         bsf     STATUS, RP0
                          M       endif
                          M PREV_BANK = 3
                          M     endif
015F   00B6               M         movwf   RR1
                          M         BIT?W   006h
                          M     if (((006h)  & 7) == 0)
                          M         movlw   01h
                          M     endif
                          M     if (((006h)  & 7) == 1)
                          M         movlw   02h
                          M     endif
                          M     if (((006h)  & 7) == 2)
                          M         movlw   04h
                          M     endif
                          M     if (((006h)  & 7) == 3)
                          M         movlw   08h
                          M     endif
                          M     if (((006h)  & 7) == 4)
MPASM  5.49                      RTCCON~1.ASM   1-27-2021  11:00:41         PAGE 56


LOC  OBJECT CODE     LINE SOURCE TEXT
  VALUE

                          M         movlw   10h
                          M     endif
                          M     if (((006h)  & 7) == 5)
                          M         movlw   20h
                          M     endif
                          M     if (((006h)  & 7) == 6)
0160   3040               M         movlw   40h
                          M     endif
                          M     if (((006h)  & 7) == 7)
                          M         movlw   80h
                          M     endif
0161   00B4               M         movwf   RM1
                      00093         I2CCLOCK?T      _CPIN
                          M         BIT?R2  PORTB, 007h
0162   3006               M         movlw   low ((PORTB) + ((007h)  >> 3))
                          M         CHK?RP  RR2
                          M     if (((RR2)   & 180h) == 0)
                          M       if (PREV_BANK == 1)
                          M         bcf     STATUS, RP0
                          M       endif
                          M       if (PREV_BANK == 2)
                          M         bcf     STATUS, RP1
                          M       endif
                          M       if (PREV_BANK == 3)
                          M         bcf     STATUS, RP0
                          M         bcf     STATUS, RP1
                          M       endif
  00000000                M PREV_BANK = 0
                          M     endif
                          M 
                          M     if (((RR2)   & 180h) == 80h)
                          M       if (PREV_BANK == 0)
                          M         bsf     STATUS, RP0
                          M       endif
                          M       if (PREV_BANK == 2)
                          M         bsf     STATUS, RP0
                          M         bcf     STATUS, RP1
                          M       endif
                          M       if (PREV_BANK == 3)
                          M         bcf     STATUS, RP1
                          M       endif
                          M PREV_BANK = 1
                          M     endif
                          M 
                          M     if (((RR2)   & 180h) == 100h)
                          M       if (PREV_BANK == 0)
                          M         bsf     STATUS, RP1
                          M       endif
                          M       if (PREV_BANK == 1)
                          M         bcf     STATUS, RP0
                          M         bsf     STATUS, RP1
                          M       endif
                          M       if (PREV_BANK == 3)
MPASM  5.49                      RTCCON~1.ASM   1-27-2021  11:00:41         PAGE 57


LOC  OBJECT CODE     LINE SOURCE TEXT
  VALUE

                          M         bcf     STATUS, RP0
                          M       endif
                          M PREV_BANK = 2
                          M     endif
                          M 
                          M     if (((RR2)   & 180h) == 180h)
                          M       if (PREV_BANK == 0)
                          M         bsf     STATUS, RP0
                          M         bsf     STATUS, RP1
                          M       endif
                          M       if (PREV_BANK == 1)
                          M         bsf     STATUS, RP1
                          M       endif
                          M       if (PREV_BANK == 2)
                          M         bsf     STATUS, RP0
                          M       endif
                          M PREV_BANK = 3
                          M     endif
0163   00B7               M         movwf   RR2
                          M         BIT?W   007h
                          M     if (((007h)  & 7) == 0)
                          M         movlw   01h
                          M     endif
                          M     if (((007h)  & 7) == 1)
                          M         movlw   02h
                          M     endif
                          M     if (((007h)  & 7) == 2)
                          M         movlw   04h
                          M     endif
                          M     if (((007h)  & 7) == 3)
                          M         movlw   08h
                          M     endif
                          M     if (((007h)  & 7) == 4)
                          M         movlw   10h
                          M     endif
                          M     if (((007h)  & 7) == 5)
                          M         movlw   20h
                          M     endif
                          M     if (((007h)  & 7) == 6)
                          M         movlw   40h
                          M     endif
                          M     if (((007h)  & 7) == 7)
0164   3080               M         movlw   80h
                          M     endif
0165   00B5               M         movwf   RM2
                      00094         I2CWRITE?C      0D0h
                          M     if ((high (0D0h)) != 0)
                          M         movlw   (0D0h) >> 8
                          M         L?CALL  I2CWRITE
                          M     endif
                          M         MOVE?CA low (0D0h)
0166   30D0               M         movlw   low (low (0D0h))
                          M         L?CALL  I2CWRITE
MPASM  5.49                      RTCCON~1.ASM   1-27-2021  11:00:41         PAGE 58


LOC  OBJECT CODE     LINE SOURCE TEXT
  VALUE

                          M         RST?RP
                          M     if ((PREV_BANK & 1) != 0)
                          M         bcf     STATUS, RP0
                          M     endif
                          M     if ((PREV_BANK & 2) != 0)
                          M         bcf     STATUS, RP1
                          M     endif
  00000000                M PREV_BANK = 0
                          M 
                          M     if ((I2CWRITE) < 1)
                          M       if (CODE_SIZE >= 4)
                          M         if (((I2CWRITE) & 800h) == 0)
                          M         bcf     PCLATH, 3
                          M         else
                          M         bsf     PCLATH, 3
                          M         endif
                          M       endif
                          M       if (CODE_SIZE == 8)
                          M         if (((I2CWRITE) & 1000h) == 0)
                          M         bcf     PCLATH, 4
                          M         else
                          M         bsf     PCLATH, 4
                          M         endif
                          M       endif
                          M     else
                          M       if ((I2CWRITE) > $)
                          M         if (CODE_SIZE >= 4)
                          M           if (((I2CWRITE) & 800h) == 0)
                          M         bcf     PCLATH, 3
                          M           else
                          M         bsf     PCLATH, 3
                          M           endif
                          M         endif
                          M         if (CODE_SIZE == 8)
                          M           if (((I2CWRITE) & 1000h) == 0)
                          M         bcf     PCLATH, 4
                          M           else
                          M         bsf     PCLATH, 4
                          M           endif
                          M         endif
                          M       else
                          M         if (CODE_SIZE >= 4)
                          M           if (((I2CWRITE) & 1800h) == 0)
                          M         clrf    PCLATH
                          M           else
                          M             if (((I2CWRITE) & 800h) == 0)
                          M         bcf     PCLATH, 3
                          M             else
                          M         bsf     PCLATH, 3
                          M             endif
                          M             if (CODE_SIZE == 8)
                          M               if (((I2CWRITE) & 1000h) == 0)
                          M         bcf     PCLATH, 4
MPASM  5.49                      RTCCON~1.ASM   1-27-2021  11:00:41         PAGE 59


LOC  OBJECT CODE     LINE SOURCE TEXT
  VALUE

                          M               else
                          M         bsf     PCLATH, 4
                          M               endif
                          M             endif
                          M           endif
                          M         endif
                          M       endif
                          M     endif
                          M 
0167   201D               M         call    I2CWRITE
                      00095         I2CWRITE?C      005h
                          M     if ((high (005h)) != 0)
                          M         movlw   (005h) >> 8
                          M         L?CALL  I2CWRITE
                          M     endif
                          M         MOVE?CA low (005h)
0168   3005               M         movlw   low (low (005h))
                          M         L?CALL  I2CWRITE
                          M         RST?RP
                          M     if ((PREV_BANK & 1) != 0)
                          M         bcf     STATUS, RP0
                          M     endif
                          M     if ((PREV_BANK & 2) != 0)
                          M         bcf     STATUS, RP1
                          M     endif
  00000000                M PREV_BANK = 0
                          M 
                          M     if ((I2CWRITE) < 1)
                          M       if (CODE_SIZE >= 4)
                          M         if (((I2CWRITE) & 800h) == 0)
                          M         bcf     PCLATH, 3
                          M         else
                          M         bsf     PCLATH, 3
                          M         endif
                          M       endif
                          M       if (CODE_SIZE == 8)
                          M         if (((I2CWRITE) & 1000h) == 0)
                          M         bcf     PCLATH, 4
                          M         else
                          M         bsf     PCLATH, 4
                          M         endif
                          M       endif
                          M     else
                          M       if ((I2CWRITE) > $)
                          M         if (CODE_SIZE >= 4)
                          M           if (((I2CWRITE) & 800h) == 0)
                          M         bcf     PCLATH, 3
                          M           else
                          M         bsf     PCLATH, 3
                          M           endif
                          M         endif
                          M         if (CODE_SIZE == 8)
                          M           if (((I2CWRITE) & 1000h) == 0)
MPASM  5.49                      RTCCON~1.ASM   1-27-2021  11:00:41         PAGE 60


LOC  OBJECT CODE     LINE SOURCE TEXT
  VALUE

                          M         bcf     PCLATH, 4
                          M           else
                          M         bsf     PCLATH, 4
                          M           endif
                          M         endif
                          M       else
                          M         if (CODE_SIZE >= 4)
                          M           if (((I2CWRITE) & 1800h) == 0)
                          M         clrf    PCLATH
                          M           else
                          M             if (((I2CWRITE) & 800h) == 0)
                          M         bcf     PCLATH, 3
                          M             else
                          M         bsf     PCLATH, 3
                          M             endif
                          M             if (CODE_SIZE == 8)
                          M               if (((I2CWRITE) & 1000h) == 0)
                          M         bcf     PCLATH, 4
                          M               else
                          M         bsf     PCLATH, 4
                          M               endif
                          M             endif
                          M           endif
                          M         endif
                          M       endif
                          M     endif
                          M 
0169   201D               M         call    I2CWRITE
                      00096         I2CREADS?B      _mes
                          M         L?CALL  I2CREADS
                          M         RST?RP
                          M     if ((PREV_BANK & 1) != 0)
                          M         bcf     STATUS, RP0
                          M     endif
                          M     if ((PREV_BANK & 2) != 0)
                          M         bcf     STATUS, RP1
                          M     endif
  00000000                M PREV_BANK = 0
                          M 
                          M     if ((I2CREADS) < 1)
                          M       if (CODE_SIZE >= 4)
                          M         if (((I2CREADS) & 800h) == 0)
                          M         bcf     PCLATH, 3
                          M         else
                          M         bsf     PCLATH, 3
                          M         endif
                          M       endif
                          M       if (CODE_SIZE == 8)
                          M         if (((I2CREADS) & 1000h) == 0)
                          M         bcf     PCLATH, 4
                          M         else
                          M         bsf     PCLATH, 4
                          M         endif
MPASM  5.49                      RTCCON~1.ASM   1-27-2021  11:00:41         PAGE 61


LOC  OBJECT CODE     LINE SOURCE TEXT
  VALUE

                          M       endif
                          M     else
                          M       if ((I2CREADS) > $)
                          M         if (CODE_SIZE >= 4)
                          M           if (((I2CREADS) & 800h) == 0)
                          M         bcf     PCLATH, 3
                          M           else
                          M         bsf     PCLATH, 3
                          M           endif
                          M         endif
                          M         if (CODE_SIZE == 8)
                          M           if (((I2CREADS) & 1000h) == 0)
                          M         bcf     PCLATH, 4
                          M           else
                          M         bsf     PCLATH, 4
                          M           endif
                          M         endif
                          M       else
                          M         if (CODE_SIZE >= 4)
                          M           if (((I2CREADS) & 1800h) == 0)
                          M         clrf    PCLATH
                          M           else
                          M             if (((I2CREADS) & 800h) == 0)
                          M         bcf     PCLATH, 3
                          M             else
                          M         bsf     PCLATH, 3
                          M             endif
                          M             if (CODE_SIZE == 8)
                          M               if (((I2CREADS) & 1000h) == 0)
                          M         bcf     PCLATH, 4
                          M               else
                          M         bsf     PCLATH, 4
                          M               endif
                          M             endif
                          M           endif
                          M         endif
                          M       endif
                          M     endif
                          M 
016A   2002               M         call    I2CREADS
                          M         MOVE?AB _mes
                          M         CHK?RP  _mes
                          M     if (((_mes)  & 180h) == 0)
                          M       if (PREV_BANK == 1)
                          M         bcf     STATUS, RP0
                          M       endif
                          M       if (PREV_BANK == 2)
                          M         bcf     STATUS, RP1
                          M       endif
                          M       if (PREV_BANK == 3)
                          M         bcf     STATUS, RP0
                          M         bcf     STATUS, RP1
                          M       endif
MPASM  5.49                      RTCCON~1.ASM   1-27-2021  11:00:41         PAGE 62


LOC  OBJECT CODE     LINE SOURCE TEXT
  VALUE

  00000000                M PREV_BANK = 0
                          M     endif
                          M 
                          M     if (((_mes)  & 180h) == 80h)
                          M       if (PREV_BANK == 0)
                          M         bsf     STATUS, RP0
                          M       endif
                          M       if (PREV_BANK == 2)
                          M         bsf     STATUS, RP0
                          M         bcf     STATUS, RP1
                          M       endif
                          M       if (PREV_BANK == 3)
                          M         bcf     STATUS, RP1
                          M       endif
                          M PREV_BANK = 1
                          M     endif
                          M 
                          M     if (((_mes)  & 180h) == 100h)
                          M       if (PREV_BANK == 0)
                          M         bsf     STATUS, RP1
                          M       endif
                          M       if (PREV_BANK == 1)
                          M         bcf     STATUS, RP0
                          M         bsf     STATUS, RP1
                          M       endif
                          M       if (PREV_BANK == 3)
                          M         bcf     STATUS, RP0
                          M       endif
                          M PREV_BANK = 2
                          M     endif
                          M 
                          M     if (((_mes)  & 180h) == 180h)
                          M       if (PREV_BANK == 0)
                          M         bsf     STATUS, RP0
                          M         bsf     STATUS, RP1
                          M       endif
                          M       if (PREV_BANK == 1)
                          M         bsf     STATUS, RP1
                          M       endif
                          M       if (PREV_BANK == 2)
                          M         bsf     STATUS, RP0
                          M       endif
                          M PREV_BANK = 3
                          M     endif
016B   00BC               M         movwf   _mes
                      00097         I2CDATA?T       _DPIN
                          M         BIT?R1  PORTB, 006h
016C   3006               M         movlw   low ((PORTB) + ((006h)  >> 3))
                          M         CHK?RP  RR1
                          M     if (((RR1)   & 180h) == 0)
                          M       if (PREV_BANK == 1)
                          M         bcf     STATUS, RP0
                          M       endif
MPASM  5.49                      RTCCON~1.ASM   1-27-2021  11:00:41         PAGE 63


LOC  OBJECT CODE     LINE SOURCE TEXT
  VALUE

                          M       if (PREV_BANK == 2)
                          M         bcf     STATUS, RP1
                          M       endif
                          M       if (PREV_BANK == 3)
                          M         bcf     STATUS, RP0
                          M         bcf     STATUS, RP1
                          M       endif
  00000000                M PREV_BANK = 0
                          M     endif
                          M 
                          M     if (((RR1)   & 180h) == 80h)
                          M       if (PREV_BANK == 0)
                          M         bsf     STATUS, RP0
                          M       endif
                          M       if (PREV_BANK == 2)
                          M         bsf     STATUS, RP0
                          M         bcf     STATUS, RP1
                          M       endif
                          M       if (PREV_BANK == 3)
                          M         bcf     STATUS, RP1
                          M       endif
                          M PREV_BANK = 1
                          M     endif
                          M 
                          M     if (((RR1)   & 180h) == 100h)
                          M       if (PREV_BANK == 0)
                          M         bsf     STATUS, RP1
                          M       endif
                          M       if (PREV_BANK == 1)
                          M         bcf     STATUS, RP0
                          M         bsf     STATUS, RP1
                          M       endif
                          M       if (PREV_BANK == 3)
                          M         bcf     STATUS, RP0
                          M       endif
                          M PREV_BANK = 2
                          M     endif
                          M 
                          M     if (((RR1)   & 180h) == 180h)
                          M       if (PREV_BANK == 0)
                          M         bsf     STATUS, RP0
                          M         bsf     STATUS, RP1
                          M       endif
                          M       if (PREV_BANK == 1)
                          M         bsf     STATUS, RP1
                          M       endif
                          M       if (PREV_BANK == 2)
                          M         bsf     STATUS, RP0
                          M       endif
                          M PREV_BANK = 3
                          M     endif
016D   00B6               M         movwf   RR1
                          M         BIT?W   006h
MPASM  5.49                      RTCCON~1.ASM   1-27-2021  11:00:41         PAGE 64


LOC  OBJECT CODE     LINE SOURCE TEXT
  VALUE

                          M     if (((006h)  & 7) == 0)
                          M         movlw   01h
                          M     endif
                          M     if (((006h)  & 7) == 1)
                          M         movlw   02h
                          M     endif
                          M     if (((006h)  & 7) == 2)
                          M         movlw   04h
                          M     endif
                          M     if (((006h)  & 7) == 3)
                          M         movlw   08h
                          M     endif
                          M     if (((006h)  & 7) == 4)
                          M         movlw   10h
                          M     endif
                          M     if (((006h)  & 7) == 5)
                          M         movlw   20h
                          M     endif
                          M     if (((006h)  & 7) == 6)
016E   3040               M         movlw   40h
                          M     endif
                          M     if (((006h)  & 7) == 7)
                          M         movlw   80h
                          M     endif
016F   00B4               M         movwf   RM1
                      00098         I2CCLOCK?T      _CPIN
                          M         BIT?R2  PORTB, 007h
0170   3006               M         movlw   low ((PORTB) + ((007h)  >> 3))
                          M         CHK?RP  RR2
                          M     if (((RR2)   & 180h) == 0)
                          M       if (PREV_BANK == 1)
                          M         bcf     STATUS, RP0
                          M       endif
                          M       if (PREV_BANK == 2)
                          M         bcf     STATUS, RP1
                          M       endif
                          M       if (PREV_BANK == 3)
                          M         bcf     STATUS, RP0
                          M         bcf     STATUS, RP1
                          M       endif
  00000000                M PREV_BANK = 0
                          M     endif
                          M 
                          M     if (((RR2)   & 180h) == 80h)
                          M       if (PREV_BANK == 0)
                          M         bsf     STATUS, RP0
                          M       endif
                          M       if (PREV_BANK == 2)
                          M         bsf     STATUS, RP0
                          M         bcf     STATUS, RP1
                          M       endif
                          M       if (PREV_BANK == 3)
                          M         bcf     STATUS, RP1
MPASM  5.49                      RTCCON~1.ASM   1-27-2021  11:00:41         PAGE 65


LOC  OBJECT CODE     LINE SOURCE TEXT
  VALUE

                          M       endif
                          M PREV_BANK = 1
                          M     endif
                          M 
                          M     if (((RR2)   & 180h) == 100h)
                          M       if (PREV_BANK == 0)
                          M         bsf     STATUS, RP1
                          M       endif
                          M       if (PREV_BANK == 1)
                          M         bcf     STATUS, RP0
                          M         bsf     STATUS, RP1
                          M       endif
                          M       if (PREV_BANK == 3)
                          M         bcf     STATUS, RP0
                          M       endif
                          M PREV_BANK = 2
                          M     endif
                          M 
                          M     if (((RR2)   & 180h) == 180h)
                          M       if (PREV_BANK == 0)
                          M         bsf     STATUS, RP0
                          M         bsf     STATUS, RP1
                          M       endif
                          M       if (PREV_BANK == 1)
                          M         bsf     STATUS, RP1
                          M       endif
                          M       if (PREV_BANK == 2)
                          M         bsf     STATUS, RP0
                          M       endif
                          M PREV_BANK = 3
                          M     endif
0171   00B7               M         movwf   RR2
                          M         BIT?W   007h
                          M     if (((007h)  & 7) == 0)
                          M         movlw   01h
                          M     endif
                          M     if (((007h)  & 7) == 1)
                          M         movlw   02h
                          M     endif
                          M     if (((007h)  & 7) == 2)
                          M         movlw   04h
                          M     endif
                          M     if (((007h)  & 7) == 3)
                          M         movlw   08h
                          M     endif
                          M     if (((007h)  & 7) == 4)
                          M         movlw   10h
                          M     endif
                          M     if (((007h)  & 7) == 5)
                          M         movlw   20h
                          M     endif
                          M     if (((007h)  & 7) == 6)
                          M         movlw   40h
MPASM  5.49                      RTCCON~1.ASM   1-27-2021  11:00:41         PAGE 66


LOC  OBJECT CODE     LINE SOURCE TEXT
  VALUE

                          M     endif
                          M     if (((007h)  & 7) == 7)
0172   3080               M         movlw   80h
                          M     endif
0173   00B5               M         movwf   RM2
                      00099         I2CWRITE?C      0D0h
                          M     if ((high (0D0h)) != 0)
                          M         movlw   (0D0h) >> 8
                          M         L?CALL  I2CWRITE
                          M     endif
                          M         MOVE?CA low (0D0h)
0174   30D0               M         movlw   low (low (0D0h))
                          M         L?CALL  I2CWRITE
                          M         RST?RP
                          M     if ((PREV_BANK & 1) != 0)
                          M         bcf     STATUS, RP0
                          M     endif
                          M     if ((PREV_BANK & 2) != 0)
                          M         bcf     STATUS, RP1
                          M     endif
  00000000                M PREV_BANK = 0
                          M 
                          M     if ((I2CWRITE) < 1)
                          M       if (CODE_SIZE >= 4)
                          M         if (((I2CWRITE) & 800h) == 0)
                          M         bcf     PCLATH, 3
                          M         else
                          M         bsf     PCLATH, 3
                          M         endif
                          M       endif
                          M       if (CODE_SIZE == 8)
                          M         if (((I2CWRITE) & 1000h) == 0)
                          M         bcf     PCLATH, 4
                          M         else
                          M         bsf     PCLATH, 4
                          M         endif
                          M       endif
                          M     else
                          M       if ((I2CWRITE) > $)
                          M         if (CODE_SIZE >= 4)
                          M           if (((I2CWRITE) & 800h) == 0)
                          M         bcf     PCLATH, 3
                          M           else
                          M         bsf     PCLATH, 3
                          M           endif
                          M         endif
                          M         if (CODE_SIZE == 8)
                          M           if (((I2CWRITE) & 1000h) == 0)
                          M         bcf     PCLATH, 4
                          M           else
                          M         bsf     PCLATH, 4
                          M           endif
                          M         endif
MPASM  5.49                      RTCCON~1.ASM   1-27-2021  11:00:41         PAGE 67


LOC  OBJECT CODE     LINE SOURCE TEXT
  VALUE

                          M       else
                          M         if (CODE_SIZE >= 4)
                          M           if (((I2CWRITE) & 1800h) == 0)
                          M         clrf    PCLATH
                          M           else
                          M             if (((I2CWRITE) & 800h) == 0)
                          M         bcf     PCLATH, 3
                          M             else
                          M         bsf     PCLATH, 3
                          M             endif
                          M             if (CODE_SIZE == 8)
                          M               if (((I2CWRITE) & 1000h) == 0)
                          M         bcf     PCLATH, 4
                          M               else
                          M         bsf     PCLATH, 4
                          M               endif
                          M             endif
                          M           endif
                          M         endif
                          M       endif
                          M     endif
                          M 
0175   201D               M         call    I2CWRITE
                      00100         I2CWRITE?C      006h
                          M     if ((high (006h)) != 0)
                          M         movlw   (006h) >> 8
                          M         L?CALL  I2CWRITE
                          M     endif
                          M         MOVE?CA low (006h)
0176   3006               M         movlw   low (low (006h))
                          M         L?CALL  I2CWRITE
                          M         RST?RP
                          M     if ((PREV_BANK & 1) != 0)
                          M         bcf     STATUS, RP0
                          M     endif
                          M     if ((PREV_BANK & 2) != 0)
                          M         bcf     STATUS, RP1
                          M     endif
  00000000                M PREV_BANK = 0
                          M 
                          M     if ((I2CWRITE) < 1)
                          M       if (CODE_SIZE >= 4)
                          M         if (((I2CWRITE) & 800h) == 0)
                          M         bcf     PCLATH, 3
                          M         else
                          M         bsf     PCLATH, 3
                          M         endif
                          M       endif
                          M       if (CODE_SIZE == 8)
                          M         if (((I2CWRITE) & 1000h) == 0)
                          M         bcf     PCLATH, 4
                          M         else
                          M         bsf     PCLATH, 4
MPASM  5.49                      RTCCON~1.ASM   1-27-2021  11:00:41         PAGE 68


LOC  OBJECT CODE     LINE SOURCE TEXT
  VALUE

                          M         endif
                          M       endif
                          M     else
                          M       if ((I2CWRITE) > $)
                          M         if (CODE_SIZE >= 4)
                          M           if (((I2CWRITE) & 800h) == 0)
                          M         bcf     PCLATH, 3
                          M           else
                          M         bsf     PCLATH, 3
                          M           endif
                          M         endif
                          M         if (CODE_SIZE == 8)
                          M           if (((I2CWRITE) & 1000h) == 0)
                          M         bcf     PCLATH, 4
                          M           else
                          M         bsf     PCLATH, 4
                          M           endif
                          M         endif
                          M       else
                          M         if (CODE_SIZE >= 4)
                          M           if (((I2CWRITE) & 1800h) == 0)
                          M         clrf    PCLATH
                          M           else
                          M             if (((I2CWRITE) & 800h) == 0)
                          M         bcf     PCLATH, 3
                          M             else
                          M         bsf     PCLATH, 3
                          M             endif
                          M             if (CODE_SIZE == 8)
                          M               if (((I2CWRITE) & 1000h) == 0)
                          M         bcf     PCLATH, 4
                          M               else
                          M         bsf     PCLATH, 4
                          M               endif
                          M             endif
                          M           endif
                          M         endif
                          M       endif
                          M     endif
                          M 
0177   201D               M         call    I2CWRITE
                      00101         I2CREADS?B      _anio
                          M         L?CALL  I2CREADS
                          M         RST?RP
                          M     if ((PREV_BANK & 1) != 0)
                          M         bcf     STATUS, RP0
                          M     endif
                          M     if ((PREV_BANK & 2) != 0)
                          M         bcf     STATUS, RP1
                          M     endif
  00000000                M PREV_BANK = 0
                          M 
                          M     if ((I2CREADS) < 1)
MPASM  5.49                      RTCCON~1.ASM   1-27-2021  11:00:41         PAGE 69


LOC  OBJECT CODE     LINE SOURCE TEXT
  VALUE

                          M       if (CODE_SIZE >= 4)
                          M         if (((I2CREADS) & 800h) == 0)
                          M         bcf     PCLATH, 3
                          M         else
                          M         bsf     PCLATH, 3
                          M         endif
                          M       endif
                          M       if (CODE_SIZE == 8)
                          M         if (((I2CREADS) & 1000h) == 0)
                          M         bcf     PCLATH, 4
                          M         else
                          M         bsf     PCLATH, 4
                          M         endif
                          M       endif
                          M     else
                          M       if ((I2CREADS) > $)
                          M         if (CODE_SIZE >= 4)
                          M           if (((I2CREADS) & 800h) == 0)
                          M         bcf     PCLATH, 3
                          M           else
                          M         bsf     PCLATH, 3
                          M           endif
                          M         endif
                          M         if (CODE_SIZE == 8)
                          M           if (((I2CREADS) & 1000h) == 0)
                          M         bcf     PCLATH, 4
                          M           else
                          M         bsf     PCLATH, 4
                          M           endif
                          M         endif
                          M       else
                          M         if (CODE_SIZE >= 4)
                          M           if (((I2CREADS) & 1800h) == 0)
                          M         clrf    PCLATH
                          M           else
                          M             if (((I2CREADS) & 800h) == 0)
                          M         bcf     PCLATH, 3
                          M             else
                          M         bsf     PCLATH, 3
                          M             endif
                          M             if (CODE_SIZE == 8)
                          M               if (((I2CREADS) & 1000h) == 0)
                          M         bcf     PCLATH, 4
                          M               else
                          M         bsf     PCLATH, 4
                          M               endif
                          M             endif
                          M           endif
                          M         endif
                          M       endif
                          M     endif
                          M 
0178   2002               M         call    I2CREADS
MPASM  5.49                      RTCCON~1.ASM   1-27-2021  11:00:41         PAGE 70


LOC  OBJECT CODE     LINE SOURCE TEXT
  VALUE

                          M         MOVE?AB _anio
                          M         CHK?RP  _anio
                          M     if (((_anio) & 180h) == 0)
                          M       if (PREV_BANK == 1)
                          M         bcf     STATUS, RP0
                          M       endif
                          M       if (PREV_BANK == 2)
                          M         bcf     STATUS, RP1
                          M       endif
                          M       if (PREV_BANK == 3)
                          M         bcf     STATUS, RP0
                          M         bcf     STATUS, RP1
                          M       endif
  00000000                M PREV_BANK = 0
                          M     endif
                          M 
                          M     if (((_anio) & 180h) == 80h)
                          M       if (PREV_BANK == 0)
                          M         bsf     STATUS, RP0
                          M       endif
                          M       if (PREV_BANK == 2)
                          M         bsf     STATUS, RP0
                          M         bcf     STATUS, RP1
                          M       endif
                          M       if (PREV_BANK == 3)
                          M         bcf     STATUS, RP1
                          M       endif
                          M PREV_BANK = 1
                          M     endif
                          M 
                          M     if (((_anio) & 180h) == 100h)
                          M       if (PREV_BANK == 0)
                          M         bsf     STATUS, RP1
                          M       endif
                          M       if (PREV_BANK == 1)
                          M         bcf     STATUS, RP0
                          M         bsf     STATUS, RP1
                          M       endif
                          M       if (PREV_BANK == 3)
                          M         bcf     STATUS, RP0
                          M       endif
                          M PREV_BANK = 2
                          M     endif
                          M 
                          M     if (((_anio) & 180h) == 180h)
                          M       if (PREV_BANK == 0)
                          M         bsf     STATUS, RP0
                          M         bsf     STATUS, RP1
                          M       endif
                          M       if (PREV_BANK == 1)
                          M         bsf     STATUS, RP1
                          M       endif
                          M       if (PREV_BANK == 2)
MPASM  5.49                      RTCCON~1.ASM   1-27-2021  11:00:41         PAGE 71


LOC  OBJECT CODE     LINE SOURCE TEXT
  VALUE

                          M         bsf     STATUS, RP0
                          M       endif
                          M PREV_BANK = 3
                          M     endif
0179   00B8               M         movwf   _anio
                      00102         LCDOUT?C        0FEh
017A   30FE               M         movlw   0FEh
                          M         L?CALL  LCDOUT
                          M         RST?RP
                          M     if ((PREV_BANK & 1) != 0)
                          M         bcf     STATUS, RP0
                          M     endif
                          M     if ((PREV_BANK & 2) != 0)
                          M         bcf     STATUS, RP1
                          M     endif
  00000000                M PREV_BANK = 0
                          M 
                          M     if ((LCDOUT) < 1)
                          M       if (CODE_SIZE >= 4)
                          M         if (((LCDOUT) & 800h) == 0)
                          M         bcf     PCLATH, 3
                          M         else
                          M         bsf     PCLATH, 3
                          M         endif
                          M       endif
                          M       if (CODE_SIZE == 8)
                          M         if (((LCDOUT) & 1000h) == 0)
                          M         bcf     PCLATH, 4
                          M         else
                          M         bsf     PCLATH, 4
                          M         endif
                          M       endif
                          M     else
                          M       if ((LCDOUT) > $)
                          M         if (CODE_SIZE >= 4)
                          M           if (((LCDOUT) & 800h) == 0)
                          M         bcf     PCLATH, 3
                          M           else
                          M         bsf     PCLATH, 3
                          M           endif
                          M         endif
                          M         if (CODE_SIZE == 8)
                          M           if (((LCDOUT) & 1000h) == 0)
                          M         bcf     PCLATH, 4
                          M           else
                          M         bsf     PCLATH, 4
                          M           endif
                          M         endif
                          M       else
                          M         if (CODE_SIZE >= 4)
                          M           if (((LCDOUT) & 1800h) == 0)
                          M         clrf    PCLATH
                          M           else
MPASM  5.49                      RTCCON~1.ASM   1-27-2021  11:00:41         PAGE 72


LOC  OBJECT CODE     LINE SOURCE TEXT
  VALUE

                          M             if (((LCDOUT) & 800h) == 0)
                          M         bcf     PCLATH, 3
                          M             else
                          M         bsf     PCLATH, 3
                          M             endif
                          M             if (CODE_SIZE == 8)
                          M               if (((LCDOUT) & 1000h) == 0)
                          M         bcf     PCLATH, 4
                          M               else
                          M         bsf     PCLATH, 4
                          M               endif
                          M             endif
                          M           endif
                          M         endif
                          M       endif
                          M     endif
                          M 
017B   206B               M         call    LCDOUT
                      00103         LCDOUT?C        001h
017C   3001               M         movlw   001h
                          M         L?CALL  LCDOUT
                          M         RST?RP
                          M     if ((PREV_BANK & 1) != 0)
                          M         bcf     STATUS, RP0
                          M     endif
                          M     if ((PREV_BANK & 2) != 0)
                          M         bcf     STATUS, RP1
                          M     endif
  00000000                M PREV_BANK = 0
                          M 
                          M     if ((LCDOUT) < 1)
                          M       if (CODE_SIZE >= 4)
                          M         if (((LCDOUT) & 800h) == 0)
                          M         bcf     PCLATH, 3
                          M         else
                          M         bsf     PCLATH, 3
                          M         endif
                          M       endif
                          M       if (CODE_SIZE == 8)
                          M         if (((LCDOUT) & 1000h) == 0)
                          M         bcf     PCLATH, 4
                          M         else
                          M         bsf     PCLATH, 4
                          M         endif
                          M       endif
                          M     else
                          M       if ((LCDOUT) > $)
                          M         if (CODE_SIZE >= 4)
                          M           if (((LCDOUT) & 800h) == 0)
                          M         bcf     PCLATH, 3
                          M           else
                          M         bsf     PCLATH, 3
                          M           endif
MPASM  5.49                      RTCCON~1.ASM   1-27-2021  11:00:41         PAGE 73


LOC  OBJECT CODE     LINE SOURCE TEXT
  VALUE

                          M         endif
                          M         if (CODE_SIZE == 8)
                          M           if (((LCDOUT) & 1000h) == 0)
                          M         bcf     PCLATH, 4
                          M           else
                          M         bsf     PCLATH, 4
                          M           endif
                          M         endif
                          M       else
                          M         if (CODE_SIZE >= 4)
                          M           if (((LCDOUT) & 1800h) == 0)
                          M         clrf    PCLATH
                          M           else
                          M             if (((LCDOUT) & 800h) == 0)
                          M         bcf     PCLATH, 3
                          M             else
                          M         bsf     PCLATH, 3
                          M             endif
                          M             if (CODE_SIZE == 8)
                          M               if (((LCDOUT) & 1000h) == 0)
                          M         bcf     PCLATH, 4
                          M               else
                          M         bsf     PCLATH, 4
                          M               endif
                          M             endif
                          M           endif
                          M         endif
                          M       endif
                          M     endif
                          M 
017D   206B               M         call    LCDOUT
                      00104         LCDOUT?C        0FEh
017E   30FE               M         movlw   0FEh
                          M         L?CALL  LCDOUT
                          M         RST?RP
                          M     if ((PREV_BANK & 1) != 0)
                          M         bcf     STATUS, RP0
                          M     endif
                          M     if ((PREV_BANK & 2) != 0)
                          M         bcf     STATUS, RP1
                          M     endif
  00000000                M PREV_BANK = 0
                          M 
                          M     if ((LCDOUT) < 1)
                          M       if (CODE_SIZE >= 4)
                          M         if (((LCDOUT) & 800h) == 0)
                          M         bcf     PCLATH, 3
                          M         else
                          M         bsf     PCLATH, 3
                          M         endif
                          M       endif
                          M       if (CODE_SIZE == 8)
                          M         if (((LCDOUT) & 1000h) == 0)
MPASM  5.49                      RTCCON~1.ASM   1-27-2021  11:00:41         PAGE 74


LOC  OBJECT CODE     LINE SOURCE TEXT
  VALUE

                          M         bcf     PCLATH, 4
                          M         else
                          M         bsf     PCLATH, 4
                          M         endif
                          M       endif
                          M     else
                          M       if ((LCDOUT) > $)
                          M         if (CODE_SIZE >= 4)
                          M           if (((LCDOUT) & 800h) == 0)
                          M         bcf     PCLATH, 3
                          M           else
                          M         bsf     PCLATH, 3
                          M           endif
                          M         endif
                          M         if (CODE_SIZE == 8)
                          M           if (((LCDOUT) & 1000h) == 0)
                          M         bcf     PCLATH, 4
                          M           else
                          M         bsf     PCLATH, 4
                          M           endif
                          M         endif
                          M       else
                          M         if (CODE_SIZE >= 4)
                          M           if (((LCDOUT) & 1800h) == 0)
                          M         clrf    PCLATH
                          M           else
                          M             if (((LCDOUT) & 800h) == 0)
                          M         bcf     PCLATH, 3
                          M             else
                          M         bsf     PCLATH, 3
                          M             endif
                          M             if (CODE_SIZE == 8)
                          M               if (((LCDOUT) & 1000h) == 0)
                          M         bcf     PCLATH, 4
                          M               else
                          M         bsf     PCLATH, 4
                          M               endif
                          M             endif
                          M           endif
                          M         endif
                          M       endif
                          M     endif
                          M 
017F   206B               M         call    LCDOUT
                      00105         LCDOUT?C        002h
0180   3002               M         movlw   002h
                          M         L?CALL  LCDOUT
                          M         RST?RP
                          M     if ((PREV_BANK & 1) != 0)
                          M         bcf     STATUS, RP0
                          M     endif
                          M     if ((PREV_BANK & 2) != 0)
                          M         bcf     STATUS, RP1
MPASM  5.49                      RTCCON~1.ASM   1-27-2021  11:00:41         PAGE 75


LOC  OBJECT CODE     LINE SOURCE TEXT
  VALUE

                          M     endif
  00000000                M PREV_BANK = 0
                          M 
                          M     if ((LCDOUT) < 1)
                          M       if (CODE_SIZE >= 4)
                          M         if (((LCDOUT) & 800h) == 0)
                          M         bcf     PCLATH, 3
                          M         else
                          M         bsf     PCLATH, 3
                          M         endif
                          M       endif
                          M       if (CODE_SIZE == 8)
                          M         if (((LCDOUT) & 1000h) == 0)
                          M         bcf     PCLATH, 4
                          M         else
                          M         bsf     PCLATH, 4
                          M         endif
                          M       endif
                          M     else
                          M       if ((LCDOUT) > $)
                          M         if (CODE_SIZE >= 4)
                          M           if (((LCDOUT) & 800h) == 0)
                          M         bcf     PCLATH, 3
                          M           else
                          M         bsf     PCLATH, 3
                          M           endif
                          M         endif
                          M         if (CODE_SIZE == 8)
                          M           if (((LCDOUT) & 1000h) == 0)
                          M         bcf     PCLATH, 4
                          M           else
                          M         bsf     PCLATH, 4
                          M           endif
                          M         endif
                          M       else
                          M         if (CODE_SIZE >= 4)
                          M           if (((LCDOUT) & 1800h) == 0)
                          M         clrf    PCLATH
                          M           else
                          M             if (((LCDOUT) & 800h) == 0)
                          M         bcf     PCLATH, 3
                          M             else
                          M         bsf     PCLATH, 3
                          M             endif
                          M             if (CODE_SIZE == 8)
                          M               if (((LCDOUT) & 1000h) == 0)
                          M         bcf     PCLATH, 4
                          M               else
                          M         bsf     PCLATH, 4
                          M               endif
                          M             endif
                          M           endif
                          M         endif
MPASM  5.49                      RTCCON~1.ASM   1-27-2021  11:00:41         PAGE 76


LOC  OBJECT CODE     LINE SOURCE TEXT
  VALUE

                          M       endif
                          M     endif
                          M 
0181   206B               M         call    LCDOUT
                      00106         CMPNE?BCL       _diaS, 001h, L00001
                          M     if (((001h) > -100h) & ((001h) < 100h))
                          M         CLRWDT?
                          M     ifndef NO_CLRWDT
0182   0064               M         clrwdt
                          M     endif
                          M         MOVE?BA _diaS
                          M         CHK?RP  _diaS
                          M     if (((_diaS) & 180h) == 0)
                          M       if (PREV_BANK == 1)
                          M         bcf     STATUS, RP0
                          M       endif
                          M       if (PREV_BANK == 2)
                          M         bcf     STATUS, RP1
                          M       endif
                          M       if (PREV_BANK == 3)
                          M         bcf     STATUS, RP0
                          M         bcf     STATUS, RP1
                          M       endif
  00000000                M PREV_BANK = 0
                          M     endif
                          M 
                          M     if (((_diaS) & 180h) == 80h)
                          M       if (PREV_BANK == 0)
                          M         bsf     STATUS, RP0
                          M       endif
                          M       if (PREV_BANK == 2)
                          M         bsf     STATUS, RP0
                          M         bcf     STATUS, RP1
                          M       endif
                          M       if (PREV_BANK == 3)
                          M         bcf     STATUS, RP1
                          M       endif
                          M PREV_BANK = 1
                          M     endif
                          M 
                          M     if (((_diaS) & 180h) == 100h)
                          M       if (PREV_BANK == 0)
                          M         bsf     STATUS, RP1
                          M       endif
                          M       if (PREV_BANK == 1)
                          M         bcf     STATUS, RP0
                          M         bsf     STATUS, RP1
                          M       endif
                          M       if (PREV_BANK == 3)
                          M         bcf     STATUS, RP0
                          M       endif
                          M PREV_BANK = 2
                          M     endif
MPASM  5.49                      RTCCON~1.ASM   1-27-2021  11:00:41         PAGE 77


LOC  OBJECT CODE     LINE SOURCE TEXT
  VALUE

                          M 
                          M     if (((_diaS) & 180h) == 180h)
                          M       if (PREV_BANK == 0)
                          M         bsf     STATUS, RP0
                          M         bsf     STATUS, RP1
                          M       endif
                          M       if (PREV_BANK == 1)
                          M         bsf     STATUS, RP1
                          M       endif
                          M       if (PREV_BANK == 2)
                          M         bsf     STATUS, RP0
                          M       endif
                          M PREV_BANK = 3
                          M     endif
0183   083A               M         movf    _diaS, W
0184   3C01               M         sublw   001h
                          M         BIT?GOTO 0, STATUS, Z, L00001
                          M     if ($ == (L00001))
                          M         CLRWDT?
                          M     endif
                          M 
                          M     if (CODE_SIZE >= 4)
                          M       if (((L00001) & 800h) == 0)
                          M         bcf     PCLATH, 3
                          M       else
                          M         bsf     PCLATH, 3
                          M       endif
                          M     endif
                          M     if (CODE_SIZE == 8)
                          M       if (((L00001) & 1000h) == 0)
                          M         bcf     PCLATH, 4
                          M       else
                          M         bsf     PCLATH, 4
                          M       endif
                          M     endif
                          M 
                          M     if (((STATUS) & 0ff80h) != 0)
                          M         CHK?RP  STATUS
                          M         bcf     STATUS, DC
                          M       if ((0)      == 0)
                          M         btfss   STATUS, Z
                          M       else
                          M         btfsc   STATUS, Z
                          M       endif
                          M         bsf     STATUS, DC
                          M         RST?RP
                          M         btfsc   STATUS, DC
                          M     else
                          M         RST?RP
                          M     if ((PREV_BANK & 1) != 0)
                          M         bcf     STATUS, RP0
                          M     endif
                          M     if ((PREV_BANK & 2) != 0)
MPASM  5.49                      RTCCON~1.ASM   1-27-2021  11:00:41         PAGE 78


LOC  OBJECT CODE     LINE SOURCE TEXT
  VALUE

                          M         bcf     STATUS, RP1
                          M     endif
  00000000                M PREV_BANK = 0
                          M       if ((0)      == 0)
0185   1D03               M         btfss   STATUS, Z
                          M       else
                          M         btfsc   STATUS, Z
                          M       endif
                          M     endif
                          M 
0186   298F               M         goto    L00001
                          M     else
                          M         L?GOTO  L00001
                          M     endif
                      00107         LCDOUT?C        044h
0187   3044               M         movlw   044h
                          M         L?CALL  LCDOUT
                          M         RST?RP
                          M     if ((PREV_BANK & 1) != 0)
                          M         bcf     STATUS, RP0
                          M     endif
                          M     if ((PREV_BANK & 2) != 0)
                          M         bcf     STATUS, RP1
                          M     endif
  00000000                M PREV_BANK = 0
                          M 
                          M     if ((LCDOUT) < 1)
                          M       if (CODE_SIZE >= 4)
                          M         if (((LCDOUT) & 800h) == 0)
                          M         bcf     PCLATH, 3
                          M         else
                          M         bsf     PCLATH, 3
                          M         endif
                          M       endif
                          M       if (CODE_SIZE == 8)
                          M         if (((LCDOUT) & 1000h) == 0)
                          M         bcf     PCLATH, 4
                          M         else
                          M         bsf     PCLATH, 4
                          M         endif
                          M       endif
                          M     else
                          M       if ((LCDOUT) > $)
                          M         if (CODE_SIZE >= 4)
                          M           if (((LCDOUT) & 800h) == 0)
                          M         bcf     PCLATH, 3
                          M           else
                          M         bsf     PCLATH, 3
                          M           endif
                          M         endif
                          M         if (CODE_SIZE == 8)
                          M           if (((LCDOUT) & 1000h) == 0)
                          M         bcf     PCLATH, 4
MPASM  5.49                      RTCCON~1.ASM   1-27-2021  11:00:41         PAGE 79


LOC  OBJECT CODE     LINE SOURCE TEXT
  VALUE

                          M           else
                          M         bsf     PCLATH, 4
                          M           endif
                          M         endif
                          M       else
                          M         if (CODE_SIZE >= 4)
                          M           if (((LCDOUT) & 1800h) == 0)
                          M         clrf    PCLATH
                          M           else
                          M             if (((LCDOUT) & 800h) == 0)
                          M         bcf     PCLATH, 3
                          M             else
                          M         bsf     PCLATH, 3
                          M             endif
                          M             if (CODE_SIZE == 8)
                          M               if (((LCDOUT) & 1000h) == 0)
                          M         bcf     PCLATH, 4
                          M               else
                          M         bsf     PCLATH, 4
                          M               endif
                          M             endif
                          M           endif
                          M         endif
                          M       endif
                          M     endif
                          M 
0188   206B               M         call    LCDOUT
                      00108         LCDOUT?C        06Fh
0189   306F               M         movlw   06Fh
                          M         L?CALL  LCDOUT
                          M         RST?RP
                          M     if ((PREV_BANK & 1) != 0)
                          M         bcf     STATUS, RP0
                          M     endif
                          M     if ((PREV_BANK & 2) != 0)
                          M         bcf     STATUS, RP1
                          M     endif
  00000000                M PREV_BANK = 0
                          M 
                          M     if ((LCDOUT) < 1)
                          M       if (CODE_SIZE >= 4)
                          M         if (((LCDOUT) & 800h) == 0)
                          M         bcf     PCLATH, 3
                          M         else
                          M         bsf     PCLATH, 3
                          M         endif
                          M       endif
                          M       if (CODE_SIZE == 8)
                          M         if (((LCDOUT) & 1000h) == 0)
                          M         bcf     PCLATH, 4
                          M         else
                          M         bsf     PCLATH, 4
                          M         endif
MPASM  5.49                      RTCCON~1.ASM   1-27-2021  11:00:41         PAGE 80


LOC  OBJECT CODE     LINE SOURCE TEXT
  VALUE

                          M       endif
                          M     else
                          M       if ((LCDOUT) > $)
                          M         if (CODE_SIZE >= 4)
                          M           if (((LCDOUT) & 800h) == 0)
                          M         bcf     PCLATH, 3
                          M           else
                          M         bsf     PCLATH, 3
                          M           endif
                          M         endif
                          M         if (CODE_SIZE == 8)
                          M           if (((LCDOUT) & 1000h) == 0)
                          M         bcf     PCLATH, 4
                          M           else
                          M         bsf     PCLATH, 4
                          M           endif
                          M         endif
                          M       else
                          M         if (CODE_SIZE >= 4)
                          M           if (((LCDOUT) & 1800h) == 0)
                          M         clrf    PCLATH
                          M           else
                          M             if (((LCDOUT) & 800h) == 0)
                          M         bcf     PCLATH, 3
                          M             else
                          M         bsf     PCLATH, 3
                          M             endif
                          M             if (CODE_SIZE == 8)
                          M               if (((LCDOUT) & 1000h) == 0)
                          M         bcf     PCLATH, 4
                          M               else
                          M         bsf     PCLATH, 4
                          M               endif
                          M             endif
                          M           endif
                          M         endif
                          M       endif
                          M     endif
                          M 
018A   206B               M         call    LCDOUT
                      00109         LCDOUT?C        06Dh
018B   306D               M         movlw   06Dh
                          M         L?CALL  LCDOUT
                          M         RST?RP
                          M     if ((PREV_BANK & 1) != 0)
                          M         bcf     STATUS, RP0
                          M     endif
                          M     if ((PREV_BANK & 2) != 0)
                          M         bcf     STATUS, RP1
                          M     endif
  00000000                M PREV_BANK = 0
                          M 
                          M     if ((LCDOUT) < 1)
MPASM  5.49                      RTCCON~1.ASM   1-27-2021  11:00:41         PAGE 81


LOC  OBJECT CODE     LINE SOURCE TEXT
  VALUE

                          M       if (CODE_SIZE >= 4)
                          M         if (((LCDOUT) & 800h) == 0)
                          M         bcf     PCLATH, 3
                          M         else
                          M         bsf     PCLATH, 3
                          M         endif
                          M       endif
                          M       if (CODE_SIZE == 8)
                          M         if (((LCDOUT) & 1000h) == 0)
                          M         bcf     PCLATH, 4
                          M         else
                          M         bsf     PCLATH, 4
                          M         endif
                          M       endif
                          M     else
                          M       if ((LCDOUT) > $)
                          M         if (CODE_SIZE >= 4)
                          M           if (((LCDOUT) & 800h) == 0)
                          M         bcf     PCLATH, 3
                          M           else
                          M         bsf     PCLATH, 3
                          M           endif
                          M         endif
                          M         if (CODE_SIZE == 8)
                          M           if (((LCDOUT) & 1000h) == 0)
                          M         bcf     PCLATH, 4
                          M           else
                          M         bsf     PCLATH, 4
                          M           endif
                          M         endif
                          M       else
                          M         if (CODE_SIZE >= 4)
                          M           if (((LCDOUT) & 1800h) == 0)
                          M         clrf    PCLATH
                          M           else
                          M             if (((LCDOUT) & 800h) == 0)
                          M         bcf     PCLATH, 3
                          M             else
                          M         bsf     PCLATH, 3
                          M             endif
                          M             if (CODE_SIZE == 8)
                          M               if (((LCDOUT) & 1000h) == 0)
                          M         bcf     PCLATH, 4
                          M               else
                          M         bsf     PCLATH, 4
                          M               endif
                          M             endif
                          M           endif
                          M         endif
                          M       endif
                          M     endif
                          M 
018C   206B               M         call    LCDOUT
MPASM  5.49                      RTCCON~1.ASM   1-27-2021  11:00:41         PAGE 82


LOC  OBJECT CODE     LINE SOURCE TEXT
  VALUE

                      00110         LCDOUT?C        02Eh
018D   302E               M         movlw   02Eh
                          M         L?CALL  LCDOUT
                          M         RST?RP
                          M     if ((PREV_BANK & 1) != 0)
                          M         bcf     STATUS, RP0
                          M     endif
                          M     if ((PREV_BANK & 2) != 0)
                          M         bcf     STATUS, RP1
                          M     endif
  00000000                M PREV_BANK = 0
                          M 
                          M     if ((LCDOUT) < 1)
                          M       if (CODE_SIZE >= 4)
                          M         if (((LCDOUT) & 800h) == 0)
                          M         bcf     PCLATH, 3
                          M         else
                          M         bsf     PCLATH, 3
                          M         endif
                          M       endif
                          M       if (CODE_SIZE == 8)
                          M         if (((LCDOUT) & 1000h) == 0)
                          M         bcf     PCLATH, 4
                          M         else
                          M         bsf     PCLATH, 4
                          M         endif
                          M       endif
                          M     else
                          M       if ((LCDOUT) > $)
                          M         if (CODE_SIZE >= 4)
                          M           if (((LCDOUT) & 800h) == 0)
                          M         bcf     PCLATH, 3
                          M           else
                          M         bsf     PCLATH, 3
                          M           endif
                          M         endif
                          M         if (CODE_SIZE == 8)
                          M           if (((LCDOUT) & 1000h) == 0)
                          M         bcf     PCLATH, 4
                          M           else
                          M         bsf     PCLATH, 4
                          M           endif
                          M         endif
                          M       else
                          M         if (CODE_SIZE >= 4)
                          M           if (((LCDOUT) & 1800h) == 0)
                          M         clrf    PCLATH
                          M           else
                          M             if (((LCDOUT) & 800h) == 0)
                          M         bcf     PCLATH, 3
                          M             else
                          M         bsf     PCLATH, 3
                          M             endif
MPASM  5.49                      RTCCON~1.ASM   1-27-2021  11:00:41         PAGE 83


LOC  OBJECT CODE     LINE SOURCE TEXT
  VALUE

                          M             if (CODE_SIZE == 8)
                          M               if (((LCDOUT) & 1000h) == 0)
                          M         bcf     PCLATH, 4
                          M               else
                          M         bsf     PCLATH, 4
                          M               endif
                          M             endif
                          M           endif
                          M         endif
                          M       endif
                          M     endif
                          M 
018E   206B               M         call    LCDOUT
                      00111         LABEL?L L00001  
                          M         RST?RP
                          M     if ((PREV_BANK & 1) != 0)
                          M         bcf     STATUS, RP0
                          M     endif
                          M     if ((PREV_BANK & 2) != 0)
                          M         bcf     STATUS, RP1
                          M     endif
  00000000                M PREV_BANK = 0
                          M     ifdef PM_USED
                          M         LALL
                          M L00001
                          M         XALL
                          M     else
018F                      M L00001
                          M     endif
                      00112         CMPNE?BCL       _diaS, 002h, L00003
                          M     if (((002h) > -100h) & ((002h) < 100h))
                          M         CLRWDT?
                          M     ifndef NO_CLRWDT
018F   0064               M         clrwdt
                          M     endif
                          M         MOVE?BA _diaS
                          M         CHK?RP  _diaS
                          M     if (((_diaS) & 180h) == 0)
                          M       if (PREV_BANK == 1)
                          M         bcf     STATUS, RP0
                          M       endif
                          M       if (PREV_BANK == 2)
                          M         bcf     STATUS, RP1
                          M       endif
                          M       if (PREV_BANK == 3)
                          M         bcf     STATUS, RP0
                          M         bcf     STATUS, RP1
                          M       endif
  00000000                M PREV_BANK = 0
                          M     endif
                          M 
                          M     if (((_diaS) & 180h) == 80h)
                          M       if (PREV_BANK == 0)
MPASM  5.49                      RTCCON~1.ASM   1-27-2021  11:00:41         PAGE 84


LOC  OBJECT CODE     LINE SOURCE TEXT
  VALUE

                          M         bsf     STATUS, RP0
                          M       endif
                          M       if (PREV_BANK == 2)
                          M         bsf     STATUS, RP0
                          M         bcf     STATUS, RP1
                          M       endif
                          M       if (PREV_BANK == 3)
                          M         bcf     STATUS, RP1
                          M       endif
                          M PREV_BANK = 1
                          M     endif
                          M 
                          M     if (((_diaS) & 180h) == 100h)
                          M       if (PREV_BANK == 0)
                          M         bsf     STATUS, RP1
                          M       endif
                          M       if (PREV_BANK == 1)
                          M         bcf     STATUS, RP0
                          M         bsf     STATUS, RP1
                          M       endif
                          M       if (PREV_BANK == 3)
                          M         bcf     STATUS, RP0
                          M       endif
                          M PREV_BANK = 2
                          M     endif
                          M 
                          M     if (((_diaS) & 180h) == 180h)
                          M       if (PREV_BANK == 0)
                          M         bsf     STATUS, RP0
                          M         bsf     STATUS, RP1
                          M       endif
                          M       if (PREV_BANK == 1)
                          M         bsf     STATUS, RP1
                          M       endif
                          M       if (PREV_BANK == 2)
                          M         bsf     STATUS, RP0
                          M       endif
                          M PREV_BANK = 3
                          M     endif
0190   083A               M         movf    _diaS, W
0191   3C02               M         sublw   002h
                          M         BIT?GOTO 0, STATUS, Z, L00003
                          M     if ($ == (L00003))
                          M         CLRWDT?
                          M     endif
                          M 
                          M     if (CODE_SIZE >= 4)
                          M       if (((L00003) & 800h) == 0)
                          M         bcf     PCLATH, 3
                          M       else
                          M         bsf     PCLATH, 3
                          M       endif
                          M     endif
MPASM  5.49                      RTCCON~1.ASM   1-27-2021  11:00:41         PAGE 85


LOC  OBJECT CODE     LINE SOURCE TEXT
  VALUE

                          M     if (CODE_SIZE == 8)
                          M       if (((L00003) & 1000h) == 0)
                          M         bcf     PCLATH, 4
                          M       else
                          M         bsf     PCLATH, 4
                          M       endif
                          M     endif
                          M 
                          M     if (((STATUS) & 0ff80h) != 0)
                          M         CHK?RP  STATUS
                          M         bcf     STATUS, DC
                          M       if ((0)      == 0)
                          M         btfss   STATUS, Z
                          M       else
                          M         btfsc   STATUS, Z
                          M       endif
                          M         bsf     STATUS, DC
                          M         RST?RP
                          M         btfsc   STATUS, DC
                          M     else
                          M         RST?RP
                          M     if ((PREV_BANK & 1) != 0)
                          M         bcf     STATUS, RP0
                          M     endif
                          M     if ((PREV_BANK & 2) != 0)
                          M         bcf     STATUS, RP1
                          M     endif
  00000000                M PREV_BANK = 0
                          M       if ((0)      == 0)
0192   1D03               M         btfss   STATUS, Z
                          M       else
                          M         btfsc   STATUS, Z
                          M       endif
                          M     endif
                          M 
0193   299C               M         goto    L00003
                          M     else
                          M         L?GOTO  L00003
                          M     endif
                      00113         LCDOUT?C        04Ch
0194   304C               M         movlw   04Ch
                          M         L?CALL  LCDOUT
                          M         RST?RP
                          M     if ((PREV_BANK & 1) != 0)
                          M         bcf     STATUS, RP0
                          M     endif
                          M     if ((PREV_BANK & 2) != 0)
                          M         bcf     STATUS, RP1
                          M     endif
  00000000                M PREV_BANK = 0
                          M 
                          M     if ((LCDOUT) < 1)
                          M       if (CODE_SIZE >= 4)
MPASM  5.49                      RTCCON~1.ASM   1-27-2021  11:00:41         PAGE 86


LOC  OBJECT CODE     LINE SOURCE TEXT
  VALUE

                          M         if (((LCDOUT) & 800h) == 0)
                          M         bcf     PCLATH, 3
                          M         else
                          M         bsf     PCLATH, 3
                          M         endif
                          M       endif
                          M       if (CODE_SIZE == 8)
                          M         if (((LCDOUT) & 1000h) == 0)
                          M         bcf     PCLATH, 4
                          M         else
                          M         bsf     PCLATH, 4
                          M         endif
                          M       endif
                          M     else
                          M       if ((LCDOUT) > $)
                          M         if (CODE_SIZE >= 4)
                          M           if (((LCDOUT) & 800h) == 0)
                          M         bcf     PCLATH, 3
                          M           else
                          M         bsf     PCLATH, 3
                          M           endif
                          M         endif
                          M         if (CODE_SIZE == 8)
                          M           if (((LCDOUT) & 1000h) == 0)
                          M         bcf     PCLATH, 4
                          M           else
                          M         bsf     PCLATH, 4
                          M           endif
                          M         endif
                          M       else
                          M         if (CODE_SIZE >= 4)
                          M           if (((LCDOUT) & 1800h) == 0)
                          M         clrf    PCLATH
                          M           else
                          M             if (((LCDOUT) & 800h) == 0)
                          M         bcf     PCLATH, 3
                          M             else
                          M         bsf     PCLATH, 3
                          M             endif
                          M             if (CODE_SIZE == 8)
                          M               if (((LCDOUT) & 1000h) == 0)
                          M         bcf     PCLATH, 4
                          M               else
                          M         bsf     PCLATH, 4
                          M               endif
                          M             endif
                          M           endif
                          M         endif
                          M       endif
                          M     endif
                          M 
0195   206B               M         call    LCDOUT
                      00114         LCDOUT?C        075h
MPASM  5.49                      RTCCON~1.ASM   1-27-2021  11:00:41         PAGE 87


LOC  OBJECT CODE     LINE SOURCE TEXT
  VALUE

0196   3075               M         movlw   075h
                          M         L?CALL  LCDOUT
                          M         RST?RP
                          M     if ((PREV_BANK & 1) != 0)
                          M         bcf     STATUS, RP0
                          M     endif
                          M     if ((PREV_BANK & 2) != 0)
                          M         bcf     STATUS, RP1
                          M     endif
  00000000                M PREV_BANK = 0
                          M 
                          M     if ((LCDOUT) < 1)
                          M       if (CODE_SIZE >= 4)
                          M         if (((LCDOUT) & 800h) == 0)
                          M         bcf     PCLATH, 3
                          M         else
                          M         bsf     PCLATH, 3
                          M         endif
                          M       endif
                          M       if (CODE_SIZE == 8)
                          M         if (((LCDOUT) & 1000h) == 0)
                          M         bcf     PCLATH, 4
                          M         else
                          M         bsf     PCLATH, 4
                          M         endif
                          M       endif
                          M     else
                          M       if ((LCDOUT) > $)
                          M         if (CODE_SIZE >= 4)
                          M           if (((LCDOUT) & 800h) == 0)
                          M         bcf     PCLATH, 3
                          M           else
                          M         bsf     PCLATH, 3
                          M           endif
                          M         endif
                          M         if (CODE_SIZE == 8)
                          M           if (((LCDOUT) & 1000h) == 0)
                          M         bcf     PCLATH, 4
                          M           else
                          M         bsf     PCLATH, 4
                          M           endif
                          M         endif
                          M       else
                          M         if (CODE_SIZE >= 4)
                          M           if (((LCDOUT) & 1800h) == 0)
                          M         clrf    PCLATH
                          M           else
                          M             if (((LCDOUT) & 800h) == 0)
                          M         bcf     PCLATH, 3
                          M             else
                          M         bsf     PCLATH, 3
                          M             endif
                          M             if (CODE_SIZE == 8)
MPASM  5.49                      RTCCON~1.ASM   1-27-2021  11:00:41         PAGE 88


LOC  OBJECT CODE     LINE SOURCE TEXT
  VALUE

                          M               if (((LCDOUT) & 1000h) == 0)
                          M         bcf     PCLATH, 4
                          M               else
                          M         bsf     PCLATH, 4
                          M               endif
                          M             endif
                          M           endif
                          M         endif
                          M       endif
                          M     endif
                          M 
0197   206B               M         call    LCDOUT
                      00115         LCDOUT?C        06Eh
0198   306E               M         movlw   06Eh
                          M         L?CALL  LCDOUT
                          M         RST?RP
                          M     if ((PREV_BANK & 1) != 0)
                          M         bcf     STATUS, RP0
                          M     endif
                          M     if ((PREV_BANK & 2) != 0)
                          M         bcf     STATUS, RP1
                          M     endif
  00000000                M PREV_BANK = 0
                          M 
                          M     if ((LCDOUT) < 1)
                          M       if (CODE_SIZE >= 4)
                          M         if (((LCDOUT) & 800h) == 0)
                          M         bcf     PCLATH, 3
                          M         else
                          M         bsf     PCLATH, 3
                          M         endif
                          M       endif
                          M       if (CODE_SIZE == 8)
                          M         if (((LCDOUT) & 1000h) == 0)
                          M         bcf     PCLATH, 4
                          M         else
                          M         bsf     PCLATH, 4
                          M         endif
                          M       endif
                          M     else
                          M       if ((LCDOUT) > $)
                          M         if (CODE_SIZE >= 4)
                          M           if (((LCDOUT) & 800h) == 0)
                          M         bcf     PCLATH, 3
                          M           else
                          M         bsf     PCLATH, 3
                          M           endif
                          M         endif
                          M         if (CODE_SIZE == 8)
                          M           if (((LCDOUT) & 1000h) == 0)
                          M         bcf     PCLATH, 4
                          M           else
                          M         bsf     PCLATH, 4
MPASM  5.49                      RTCCON~1.ASM   1-27-2021  11:00:41         PAGE 89


LOC  OBJECT CODE     LINE SOURCE TEXT
  VALUE

                          M           endif
                          M         endif
                          M       else
                          M         if (CODE_SIZE >= 4)
                          M           if (((LCDOUT) & 1800h) == 0)
                          M         clrf    PCLATH
                          M           else
                          M             if (((LCDOUT) & 800h) == 0)
                          M         bcf     PCLATH, 3
                          M             else
                          M         bsf     PCLATH, 3
                          M             endif
                          M             if (CODE_SIZE == 8)
                          M               if (((LCDOUT) & 1000h) == 0)
                          M         bcf     PCLATH, 4
                          M               else
                          M         bsf     PCLATH, 4
                          M               endif
                          M             endif
                          M           endif
                          M         endif
                          M       endif
                          M     endif
                          M 
0199   206B               M         call    LCDOUT
                      00116         LCDOUT?C        02Eh
019A   302E               M         movlw   02Eh
                          M         L?CALL  LCDOUT
                          M         RST?RP
                          M     if ((PREV_BANK & 1) != 0)
                          M         bcf     STATUS, RP0
                          M     endif
                          M     if ((PREV_BANK & 2) != 0)
                          M         bcf     STATUS, RP1
                          M     endif
  00000000                M PREV_BANK = 0
                          M 
                          M     if ((LCDOUT) < 1)
                          M       if (CODE_SIZE >= 4)
                          M         if (((LCDOUT) & 800h) == 0)
                          M         bcf     PCLATH, 3
                          M         else
                          M         bsf     PCLATH, 3
                          M         endif
                          M       endif
                          M       if (CODE_SIZE == 8)
                          M         if (((LCDOUT) & 1000h) == 0)
                          M         bcf     PCLATH, 4
                          M         else
                          M         bsf     PCLATH, 4
                          M         endif
                          M       endif
                          M     else
MPASM  5.49                      RTCCON~1.ASM   1-27-2021  11:00:41         PAGE 90


LOC  OBJECT CODE     LINE SOURCE TEXT
  VALUE

                          M       if ((LCDOUT) > $)
                          M         if (CODE_SIZE >= 4)
                          M           if (((LCDOUT) & 800h) == 0)
                          M         bcf     PCLATH, 3
                          M           else
                          M         bsf     PCLATH, 3
                          M           endif
                          M         endif
                          M         if (CODE_SIZE == 8)
                          M           if (((LCDOUT) & 1000h) == 0)
                          M         bcf     PCLATH, 4
                          M           else
                          M         bsf     PCLATH, 4
                          M           endif
                          M         endif
                          M       else
                          M         if (CODE_SIZE >= 4)
                          M           if (((LCDOUT) & 1800h) == 0)
                          M         clrf    PCLATH
                          M           else
                          M             if (((LCDOUT) & 800h) == 0)
                          M         bcf     PCLATH, 3
                          M             else
                          M         bsf     PCLATH, 3
                          M             endif
                          M             if (CODE_SIZE == 8)
                          M               if (((LCDOUT) & 1000h) == 0)
                          M         bcf     PCLATH, 4
                          M               else
                          M         bsf     PCLATH, 4
                          M               endif
                          M             endif
                          M           endif
                          M         endif
                          M       endif
                          M     endif
                          M 
019B   206B               M         call    LCDOUT
                      00117         LABEL?L L00003  
                          M         RST?RP
                          M     if ((PREV_BANK & 1) != 0)
                          M         bcf     STATUS, RP0
                          M     endif
                          M     if ((PREV_BANK & 2) != 0)
                          M         bcf     STATUS, RP1
                          M     endif
  00000000                M PREV_BANK = 0
                          M     ifdef PM_USED
                          M         LALL
                          M L00003
                          M         XALL
                          M     else
019C                      M L00003
MPASM  5.49                      RTCCON~1.ASM   1-27-2021  11:00:41         PAGE 91


LOC  OBJECT CODE     LINE SOURCE TEXT
  VALUE

                          M     endif
                      00118         CMPNE?BCL       _diaS, 003h, L00005
                          M     if (((003h) > -100h) & ((003h) < 100h))
                          M         CLRWDT?
                          M     ifndef NO_CLRWDT
019C   0064               M         clrwdt
                          M     endif
                          M         MOVE?BA _diaS
                          M         CHK?RP  _diaS
                          M     if (((_diaS) & 180h) == 0)
                          M       if (PREV_BANK == 1)
                          M         bcf     STATUS, RP0
                          M       endif
                          M       if (PREV_BANK == 2)
                          M         bcf     STATUS, RP1
                          M       endif
                          M       if (PREV_BANK == 3)
                          M         bcf     STATUS, RP0
                          M         bcf     STATUS, RP1
                          M       endif
  00000000                M PREV_BANK = 0
                          M     endif
                          M 
                          M     if (((_diaS) & 180h) == 80h)
                          M       if (PREV_BANK == 0)
                          M         bsf     STATUS, RP0
                          M       endif
                          M       if (PREV_BANK == 2)
                          M         bsf     STATUS, RP0
                          M         bcf     STATUS, RP1
                          M       endif
                          M       if (PREV_BANK == 3)
                          M         bcf     STATUS, RP1
                          M       endif
                          M PREV_BANK = 1
                          M     endif
                          M 
                          M     if (((_diaS) & 180h) == 100h)
                          M       if (PREV_BANK == 0)
                          M         bsf     STATUS, RP1
                          M       endif
                          M       if (PREV_BANK == 1)
                          M         bcf     STATUS, RP0
                          M         bsf     STATUS, RP1
                          M       endif
                          M       if (PREV_BANK == 3)
                          M         bcf     STATUS, RP0
                          M       endif
                          M PREV_BANK = 2
                          M     endif
                          M 
                          M     if (((_diaS) & 180h) == 180h)
                          M       if (PREV_BANK == 0)
MPASM  5.49                      RTCCON~1.ASM   1-27-2021  11:00:41         PAGE 92


LOC  OBJECT CODE     LINE SOURCE TEXT
  VALUE

                          M         bsf     STATUS, RP0
                          M         bsf     STATUS, RP1
                          M       endif
                          M       if (PREV_BANK == 1)
                          M         bsf     STATUS, RP1
                          M       endif
                          M       if (PREV_BANK == 2)
                          M         bsf     STATUS, RP0
                          M       endif
                          M PREV_BANK = 3
                          M     endif
019D   083A               M         movf    _diaS, W
019E   3C03               M         sublw   003h
                          M         BIT?GOTO 0, STATUS, Z, L00005
                          M     if ($ == (L00005))
                          M         CLRWDT?
                          M     endif
                          M 
                          M     if (CODE_SIZE >= 4)
                          M       if (((L00005) & 800h) == 0)
                          M         bcf     PCLATH, 3
                          M       else
                          M         bsf     PCLATH, 3
                          M       endif
                          M     endif
                          M     if (CODE_SIZE == 8)
                          M       if (((L00005) & 1000h) == 0)
                          M         bcf     PCLATH, 4
                          M       else
                          M         bsf     PCLATH, 4
                          M       endif
                          M     endif
                          M 
                          M     if (((STATUS) & 0ff80h) != 0)
                          M         CHK?RP  STATUS
                          M         bcf     STATUS, DC
                          M       if ((0)      == 0)
                          M         btfss   STATUS, Z
                          M       else
                          M         btfsc   STATUS, Z
                          M       endif
                          M         bsf     STATUS, DC
                          M         RST?RP
                          M         btfsc   STATUS, DC
                          M     else
                          M         RST?RP
                          M     if ((PREV_BANK & 1) != 0)
                          M         bcf     STATUS, RP0
                          M     endif
                          M     if ((PREV_BANK & 2) != 0)
                          M         bcf     STATUS, RP1
                          M     endif
  00000000                M PREV_BANK = 0
MPASM  5.49                      RTCCON~1.ASM   1-27-2021  11:00:41         PAGE 93


LOC  OBJECT CODE     LINE SOURCE TEXT
  VALUE

                          M       if ((0)      == 0)
019F   1D03               M         btfss   STATUS, Z
                          M       else
                          M         btfsc   STATUS, Z
                          M       endif
                          M     endif
                          M 
01A0   29A9               M         goto    L00005
                          M     else
                          M         L?GOTO  L00005
                          M     endif
                      00119         LCDOUT?C        04Dh
01A1   304D               M         movlw   04Dh
                          M         L?CALL  LCDOUT
                          M         RST?RP
                          M     if ((PREV_BANK & 1) != 0)
                          M         bcf     STATUS, RP0
                          M     endif
                          M     if ((PREV_BANK & 2) != 0)
                          M         bcf     STATUS, RP1
                          M     endif
  00000000                M PREV_BANK = 0
                          M 
                          M     if ((LCDOUT) < 1)
                          M       if (CODE_SIZE >= 4)
                          M         if (((LCDOUT) & 800h) == 0)
                          M         bcf     PCLATH, 3
                          M         else
                          M         bsf     PCLATH, 3
                          M         endif
                          M       endif
                          M       if (CODE_SIZE == 8)
                          M         if (((LCDOUT) & 1000h) == 0)
                          M         bcf     PCLATH, 4
                          M         else
                          M         bsf     PCLATH, 4
                          M         endif
                          M       endif
                          M     else
                          M       if ((LCDOUT) > $)
                          M         if (CODE_SIZE >= 4)
                          M           if (((LCDOUT) & 800h) == 0)
                          M         bcf     PCLATH, 3
                          M           else
                          M         bsf     PCLATH, 3
                          M           endif
                          M         endif
                          M         if (CODE_SIZE == 8)
                          M           if (((LCDOUT) & 1000h) == 0)
                          M         bcf     PCLATH, 4
                          M           else
                          M         bsf     PCLATH, 4
                          M           endif
MPASM  5.49                      RTCCON~1.ASM   1-27-2021  11:00:41         PAGE 94


LOC  OBJECT CODE     LINE SOURCE TEXT
  VALUE

                          M         endif
                          M       else
                          M         if (CODE_SIZE >= 4)
                          M           if (((LCDOUT) & 1800h) == 0)
                          M         clrf    PCLATH
                          M           else
                          M             if (((LCDOUT) & 800h) == 0)
                          M         bcf     PCLATH, 3
                          M             else
                          M         bsf     PCLATH, 3
                          M             endif
                          M             if (CODE_SIZE == 8)
                          M               if (((LCDOUT) & 1000h) == 0)
                          M         bcf     PCLATH, 4
                          M               else
                          M         bsf     PCLATH, 4
                          M               endif
                          M             endif
                          M           endif
                          M         endif
                          M       endif
                          M     endif
                          M 
01A2   206B               M         call    LCDOUT
                      00120         LCDOUT?C        061h
01A3   3061               M         movlw   061h
                          M         L?CALL  LCDOUT
                          M         RST?RP
                          M     if ((PREV_BANK & 1) != 0)
                          M         bcf     STATUS, RP0
                          M     endif
                          M     if ((PREV_BANK & 2) != 0)
                          M         bcf     STATUS, RP1
                          M     endif
  00000000                M PREV_BANK = 0
                          M 
                          M     if ((LCDOUT) < 1)
                          M       if (CODE_SIZE >= 4)
                          M         if (((LCDOUT) & 800h) == 0)
                          M         bcf     PCLATH, 3
                          M         else
                          M         bsf     PCLATH, 3
                          M         endif
                          M       endif
                          M       if (CODE_SIZE == 8)
                          M         if (((LCDOUT) & 1000h) == 0)
                          M         bcf     PCLATH, 4
                          M         else
                          M         bsf     PCLATH, 4
                          M         endif
                          M       endif
                          M     else
                          M       if ((LCDOUT) > $)
MPASM  5.49                      RTCCON~1.ASM   1-27-2021  11:00:41         PAGE 95


LOC  OBJECT CODE     LINE SOURCE TEXT
  VALUE

                          M         if (CODE_SIZE >= 4)
                          M           if (((LCDOUT) & 800h) == 0)
                          M         bcf     PCLATH, 3
                          M           else
                          M         bsf     PCLATH, 3
                          M           endif
                          M         endif
                          M         if (CODE_SIZE == 8)
                          M           if (((LCDOUT) & 1000h) == 0)
                          M         bcf     PCLATH, 4
                          M           else
                          M         bsf     PCLATH, 4
                          M           endif
                          M         endif
                          M       else
                          M         if (CODE_SIZE >= 4)
                          M           if (((LCDOUT) & 1800h) == 0)
                          M         clrf    PCLATH
                          M           else
                          M             if (((LCDOUT) & 800h) == 0)
                          M         bcf     PCLATH, 3
                          M             else
                          M         bsf     PCLATH, 3
                          M             endif
                          M             if (CODE_SIZE == 8)
                          M               if (((LCDOUT) & 1000h) == 0)
                          M         bcf     PCLATH, 4
                          M               else
                          M         bsf     PCLATH, 4
                          M               endif
                          M             endif
                          M           endif
                          M         endif
                          M       endif
                          M     endif
                          M 
01A4   206B               M         call    LCDOUT
                      00121         LCDOUT?C        072h
01A5   3072               M         movlw   072h
                          M         L?CALL  LCDOUT
                          M         RST?RP
                          M     if ((PREV_BANK & 1) != 0)
                          M         bcf     STATUS, RP0
                          M     endif
                          M     if ((PREV_BANK & 2) != 0)
                          M         bcf     STATUS, RP1
                          M     endif
  00000000                M PREV_BANK = 0
                          M 
                          M     if ((LCDOUT) < 1)
                          M       if (CODE_SIZE >= 4)
                          M         if (((LCDOUT) & 800h) == 0)
                          M         bcf     PCLATH, 3
MPASM  5.49                      RTCCON~1.ASM   1-27-2021  11:00:41         PAGE 96


LOC  OBJECT CODE     LINE SOURCE TEXT
  VALUE

                          M         else
                          M         bsf     PCLATH, 3
                          M         endif
                          M       endif
                          M       if (CODE_SIZE == 8)
                          M         if (((LCDOUT) & 1000h) == 0)
                          M         bcf     PCLATH, 4
                          M         else
                          M         bsf     PCLATH, 4
                          M         endif
                          M       endif
                          M     else
                          M       if ((LCDOUT) > $)
                          M         if (CODE_SIZE >= 4)
                          M           if (((LCDOUT) & 800h) == 0)
                          M         bcf     PCLATH, 3
                          M           else
                          M         bsf     PCLATH, 3
                          M           endif
                          M         endif
                          M         if (CODE_SIZE == 8)
                          M           if (((LCDOUT) & 1000h) == 0)
                          M         bcf     PCLATH, 4
                          M           else
                          M         bsf     PCLATH, 4
                          M           endif
                          M         endif
                          M       else
                          M         if (CODE_SIZE >= 4)
                          M           if (((LCDOUT) & 1800h) == 0)
                          M         clrf    PCLATH
                          M           else
                          M             if (((LCDOUT) & 800h) == 0)
                          M         bcf     PCLATH, 3
                          M             else
                          M         bsf     PCLATH, 3
                          M             endif
                          M             if (CODE_SIZE == 8)
                          M               if (((LCDOUT) & 1000h) == 0)
                          M         bcf     PCLATH, 4
                          M               else
                          M         bsf     PCLATH, 4
                          M               endif
                          M             endif
                          M           endif
                          M         endif
                          M       endif
                          M     endif
                          M 
01A6   206B               M         call    LCDOUT
                      00122         LCDOUT?C        02Eh
01A7   302E               M         movlw   02Eh
                          M         L?CALL  LCDOUT
MPASM  5.49                      RTCCON~1.ASM   1-27-2021  11:00:41         PAGE 97


LOC  OBJECT CODE     LINE SOURCE TEXT
  VALUE

                          M         RST?RP
                          M     if ((PREV_BANK & 1) != 0)
                          M         bcf     STATUS, RP0
                          M     endif
                          M     if ((PREV_BANK & 2) != 0)
                          M         bcf     STATUS, RP1
                          M     endif
  00000000                M PREV_BANK = 0
                          M 
                          M     if ((LCDOUT) < 1)
                          M       if (CODE_SIZE >= 4)
                          M         if (((LCDOUT) & 800h) == 0)
                          M         bcf     PCLATH, 3
                          M         else
                          M         bsf     PCLATH, 3
                          M         endif
                          M       endif
                          M       if (CODE_SIZE == 8)
                          M         if (((LCDOUT) & 1000h) == 0)
                          M         bcf     PCLATH, 4
                          M         else
                          M         bsf     PCLATH, 4
                          M         endif
                          M       endif
                          M     else
                          M       if ((LCDOUT) > $)
                          M         if (CODE_SIZE >= 4)
                          M           if (((LCDOUT) & 800h) == 0)
                          M         bcf     PCLATH, 3
                          M           else
                          M         bsf     PCLATH, 3
                          M           endif
                          M         endif
                          M         if (CODE_SIZE == 8)
                          M           if (((LCDOUT) & 1000h) == 0)
                          M         bcf     PCLATH, 4
                          M           else
                          M         bsf     PCLATH, 4
                          M           endif
                          M         endif
                          M       else
                          M         if (CODE_SIZE >= 4)
                          M           if (((LCDOUT) & 1800h) == 0)
                          M         clrf    PCLATH
                          M           else
                          M             if (((LCDOUT) & 800h) == 0)
                          M         bcf     PCLATH, 3
                          M             else
                          M         bsf     PCLATH, 3
                          M             endif
                          M             if (CODE_SIZE == 8)
                          M               if (((LCDOUT) & 1000h) == 0)
                          M         bcf     PCLATH, 4
MPASM  5.49                      RTCCON~1.ASM   1-27-2021  11:00:41         PAGE 98


LOC  OBJECT CODE     LINE SOURCE TEXT
  VALUE

                          M               else
                          M         bsf     PCLATH, 4
                          M               endif
                          M             endif
                          M           endif
                          M         endif
                          M       endif
                          M     endif
                          M 
01A8   206B               M         call    LCDOUT
                      00123         LABEL?L L00005  
                          M         RST?RP
                          M     if ((PREV_BANK & 1) != 0)
                          M         bcf     STATUS, RP0
                          M     endif
                          M     if ((PREV_BANK & 2) != 0)
                          M         bcf     STATUS, RP1
                          M     endif
  00000000                M PREV_BANK = 0
                          M     ifdef PM_USED
                          M         LALL
                          M L00005
                          M         XALL
                          M     else
01A9                      M L00005
                          M     endif
                      00124         CMPNE?BCL       _diaS, 004h, L00007
                          M     if (((004h) > -100h) & ((004h) < 100h))
                          M         CLRWDT?
                          M     ifndef NO_CLRWDT
01A9   0064               M         clrwdt
                          M     endif
                          M         MOVE?BA _diaS
                          M         CHK?RP  _diaS
                          M     if (((_diaS) & 180h) == 0)
                          M       if (PREV_BANK == 1)
                          M         bcf     STATUS, RP0
                          M       endif
                          M       if (PREV_BANK == 2)
                          M         bcf     STATUS, RP1
                          M       endif
                          M       if (PREV_BANK == 3)
                          M         bcf     STATUS, RP0
                          M         bcf     STATUS, RP1
                          M       endif
  00000000                M PREV_BANK = 0
                          M     endif
                          M 
                          M     if (((_diaS) & 180h) == 80h)
                          M       if (PREV_BANK == 0)
                          M         bsf     STATUS, RP0
                          M       endif
                          M       if (PREV_BANK == 2)
MPASM  5.49                      RTCCON~1.ASM   1-27-2021  11:00:41         PAGE 99


LOC  OBJECT CODE     LINE SOURCE TEXT
  VALUE

                          M         bsf     STATUS, RP0
                          M         bcf     STATUS, RP1
                          M       endif
                          M       if (PREV_BANK == 3)
                          M         bcf     STATUS, RP1
                          M       endif
                          M PREV_BANK = 1
                          M     endif
                          M 
                          M     if (((_diaS) & 180h) == 100h)
                          M       if (PREV_BANK == 0)
                          M         bsf     STATUS, RP1
                          M       endif
                          M       if (PREV_BANK == 1)
                          M         bcf     STATUS, RP0
                          M         bsf     STATUS, RP1
                          M       endif
                          M       if (PREV_BANK == 3)
                          M         bcf     STATUS, RP0
                          M       endif
                          M PREV_BANK = 2
                          M     endif
                          M 
                          M     if (((_diaS) & 180h) == 180h)
                          M       if (PREV_BANK == 0)
                          M         bsf     STATUS, RP0
                          M         bsf     STATUS, RP1
                          M       endif
                          M       if (PREV_BANK == 1)
                          M         bsf     STATUS, RP1
                          M       endif
                          M       if (PREV_BANK == 2)
                          M         bsf     STATUS, RP0
                          M       endif
                          M PREV_BANK = 3
                          M     endif
01AA   083A               M         movf    _diaS, W
01AB   3C04               M         sublw   004h
                          M         BIT?GOTO 0, STATUS, Z, L00007
                          M     if ($ == (L00007))
                          M         CLRWDT?
                          M     endif
                          M 
                          M     if (CODE_SIZE >= 4)
                          M       if (((L00007) & 800h) == 0)
                          M         bcf     PCLATH, 3
                          M       else
                          M         bsf     PCLATH, 3
                          M       endif
                          M     endif
                          M     if (CODE_SIZE == 8)
                          M       if (((L00007) & 1000h) == 0)
                          M         bcf     PCLATH, 4
MPASM  5.49                      RTCCON~1.ASM   1-27-2021  11:00:41         PAGE 100


LOC  OBJECT CODE     LINE SOURCE TEXT
  VALUE

                          M       else
                          M         bsf     PCLATH, 4
                          M       endif
                          M     endif
                          M 
                          M     if (((STATUS) & 0ff80h) != 0)
                          M         CHK?RP  STATUS
                          M         bcf     STATUS, DC
                          M       if ((0)      == 0)
                          M         btfss   STATUS, Z
                          M       else
                          M         btfsc   STATUS, Z
                          M       endif
                          M         bsf     STATUS, DC
                          M         RST?RP
                          M         btfsc   STATUS, DC
                          M     else
                          M         RST?RP
                          M     if ((PREV_BANK & 1) != 0)
                          M         bcf     STATUS, RP0
                          M     endif
                          M     if ((PREV_BANK & 2) != 0)
                          M         bcf     STATUS, RP1
                          M     endif
  00000000                M PREV_BANK = 0
                          M       if ((0)      == 0)
01AC   1D03               M         btfss   STATUS, Z
                          M       else
                          M         btfsc   STATUS, Z
                          M       endif
                          M     endif
                          M 
01AD   29B6               M         goto    L00007
                          M     else
                          M         L?GOTO  L00007
                          M     endif
                      00125         LCDOUT?C        04Dh
01AE   304D               M         movlw   04Dh
                          M         L?CALL  LCDOUT
                          M         RST?RP
                          M     if ((PREV_BANK & 1) != 0)
                          M         bcf     STATUS, RP0
                          M     endif
                          M     if ((PREV_BANK & 2) != 0)
                          M         bcf     STATUS, RP1
                          M     endif
  00000000                M PREV_BANK = 0
                          M 
                          M     if ((LCDOUT) < 1)
                          M       if (CODE_SIZE >= 4)
                          M         if (((LCDOUT) & 800h) == 0)
                          M         bcf     PCLATH, 3
                          M         else
MPASM  5.49                      RTCCON~1.ASM   1-27-2021  11:00:41         PAGE 101


LOC  OBJECT CODE     LINE SOURCE TEXT
  VALUE

                          M         bsf     PCLATH, 3
                          M         endif
                          M       endif
                          M       if (CODE_SIZE == 8)
                          M         if (((LCDOUT) & 1000h) == 0)
                          M         bcf     PCLATH, 4
                          M         else
                          M         bsf     PCLATH, 4
                          M         endif
                          M       endif
                          M     else
                          M       if ((LCDOUT) > $)
                          M         if (CODE_SIZE >= 4)
                          M           if (((LCDOUT) & 800h) == 0)
                          M         bcf     PCLATH, 3
                          M           else
                          M         bsf     PCLATH, 3
                          M           endif
                          M         endif
                          M         if (CODE_SIZE == 8)
                          M           if (((LCDOUT) & 1000h) == 0)
                          M         bcf     PCLATH, 4
                          M           else
                          M         bsf     PCLATH, 4
                          M           endif
                          M         endif
                          M       else
                          M         if (CODE_SIZE >= 4)
                          M           if (((LCDOUT) & 1800h) == 0)
                          M         clrf    PCLATH
                          M           else
                          M             if (((LCDOUT) & 800h) == 0)
                          M         bcf     PCLATH, 3
                          M             else
                          M         bsf     PCLATH, 3
                          M             endif
                          M             if (CODE_SIZE == 8)
                          M               if (((LCDOUT) & 1000h) == 0)
                          M         bcf     PCLATH, 4
                          M               else
                          M         bsf     PCLATH, 4
                          M               endif
                          M             endif
                          M           endif
                          M         endif
                          M       endif
                          M     endif
                          M 
01AF   206B               M         call    LCDOUT
                      00126         LCDOUT?C        069h
01B0   3069               M         movlw   069h
                          M         L?CALL  LCDOUT
                          M         RST?RP
MPASM  5.49                      RTCCON~1.ASM   1-27-2021  11:00:41         PAGE 102


LOC  OBJECT CODE     LINE SOURCE TEXT
  VALUE

                          M     if ((PREV_BANK & 1) != 0)
                          M         bcf     STATUS, RP0
                          M     endif
                          M     if ((PREV_BANK & 2) != 0)
                          M         bcf     STATUS, RP1
                          M     endif
  00000000                M PREV_BANK = 0
                          M 
                          M     if ((LCDOUT) < 1)
                          M       if (CODE_SIZE >= 4)
                          M         if (((LCDOUT) & 800h) == 0)
                          M         bcf     PCLATH, 3
                          M         else
                          M         bsf     PCLATH, 3
                          M         endif
                          M       endif
                          M       if (CODE_SIZE == 8)
                          M         if (((LCDOUT) & 1000h) == 0)
                          M         bcf     PCLATH, 4
                          M         else
                          M         bsf     PCLATH, 4
                          M         endif
                          M       endif
                          M     else
                          M       if ((LCDOUT) > $)
                          M         if (CODE_SIZE >= 4)
                          M           if (((LCDOUT) & 800h) == 0)
                          M         bcf     PCLATH, 3
                          M           else
                          M         bsf     PCLATH, 3
                          M           endif
                          M         endif
                          M         if (CODE_SIZE == 8)
                          M           if (((LCDOUT) & 1000h) == 0)
                          M         bcf     PCLATH, 4
                          M           else
                          M         bsf     PCLATH, 4
                          M           endif
                          M         endif
                          M       else
                          M         if (CODE_SIZE >= 4)
                          M           if (((LCDOUT) & 1800h) == 0)
                          M         clrf    PCLATH
                          M           else
                          M             if (((LCDOUT) & 800h) == 0)
                          M         bcf     PCLATH, 3
                          M             else
                          M         bsf     PCLATH, 3
                          M             endif
                          M             if (CODE_SIZE == 8)
                          M               if (((LCDOUT) & 1000h) == 0)
                          M         bcf     PCLATH, 4
                          M               else
MPASM  5.49                      RTCCON~1.ASM   1-27-2021  11:00:41         PAGE 103


LOC  OBJECT CODE     LINE SOURCE TEXT
  VALUE

                          M         bsf     PCLATH, 4
                          M               endif
                          M             endif
                          M           endif
                          M         endif
                          M       endif
                          M     endif
                          M 
01B1   206B               M         call    LCDOUT
                      00127         LCDOUT?C        065h
01B2   3065               M         movlw   065h
                          M         L?CALL  LCDOUT
                          M         RST?RP
                          M     if ((PREV_BANK & 1) != 0)
                          M         bcf     STATUS, RP0
                          M     endif
                          M     if ((PREV_BANK & 2) != 0)
                          M         bcf     STATUS, RP1
                          M     endif
  00000000                M PREV_BANK = 0
                          M 
                          M     if ((LCDOUT) < 1)
                          M       if (CODE_SIZE >= 4)
                          M         if (((LCDOUT) & 800h) == 0)
                          M         bcf     PCLATH, 3
                          M         else
                          M         bsf     PCLATH, 3
                          M         endif
                          M       endif
                          M       if (CODE_SIZE == 8)
                          M         if (((LCDOUT) & 1000h) == 0)
                          M         bcf     PCLATH, 4
                          M         else
                          M         bsf     PCLATH, 4
                          M         endif
                          M       endif
                          M     else
                          M       if ((LCDOUT) > $)
                          M         if (CODE_SIZE >= 4)
                          M           if (((LCDOUT) & 800h) == 0)
                          M         bcf     PCLATH, 3
                          M           else
                          M         bsf     PCLATH, 3
                          M           endif
                          M         endif
                          M         if (CODE_SIZE == 8)
                          M           if (((LCDOUT) & 1000h) == 0)
                          M         bcf     PCLATH, 4
                          M           else
                          M         bsf     PCLATH, 4
                          M           endif
                          M         endif
                          M       else
MPASM  5.49                      RTCCON~1.ASM   1-27-2021  11:00:41         PAGE 104


LOC  OBJECT CODE     LINE SOURCE TEXT
  VALUE

                          M         if (CODE_SIZE >= 4)
                          M           if (((LCDOUT) & 1800h) == 0)
                          M         clrf    PCLATH
                          M           else
                          M             if (((LCDOUT) & 800h) == 0)
                          M         bcf     PCLATH, 3
                          M             else
                          M         bsf     PCLATH, 3
                          M             endif
                          M             if (CODE_SIZE == 8)
                          M               if (((LCDOUT) & 1000h) == 0)
                          M         bcf     PCLATH, 4
                          M               else
                          M         bsf     PCLATH, 4
                          M               endif
                          M             endif
                          M           endif
                          M         endif
                          M       endif
                          M     endif
                          M 
01B3   206B               M         call    LCDOUT
                      00128         LCDOUT?C        02Eh
01B4   302E               M         movlw   02Eh
                          M         L?CALL  LCDOUT
                          M         RST?RP
                          M     if ((PREV_BANK & 1) != 0)
                          M         bcf     STATUS, RP0
                          M     endif
                          M     if ((PREV_BANK & 2) != 0)
                          M         bcf     STATUS, RP1
                          M     endif
  00000000                M PREV_BANK = 0
                          M 
                          M     if ((LCDOUT) < 1)
                          M       if (CODE_SIZE >= 4)
                          M         if (((LCDOUT) & 800h) == 0)
                          M         bcf     PCLATH, 3
                          M         else
                          M         bsf     PCLATH, 3
                          M         endif
                          M       endif
                          M       if (CODE_SIZE == 8)
                          M         if (((LCDOUT) & 1000h) == 0)
                          M         bcf     PCLATH, 4
                          M         else
                          M         bsf     PCLATH, 4
                          M         endif
                          M       endif
                          M     else
                          M       if ((LCDOUT) > $)
                          M         if (CODE_SIZE >= 4)
                          M           if (((LCDOUT) & 800h) == 0)
MPASM  5.49                      RTCCON~1.ASM   1-27-2021  11:00:41         PAGE 105


LOC  OBJECT CODE     LINE SOURCE TEXT
  VALUE

                          M         bcf     PCLATH, 3
                          M           else
                          M         bsf     PCLATH, 3
                          M           endif
                          M         endif
                          M         if (CODE_SIZE == 8)
                          M           if (((LCDOUT) & 1000h) == 0)
                          M         bcf     PCLATH, 4
                          M           else
                          M         bsf     PCLATH, 4
                          M           endif
                          M         endif
                          M       else
                          M         if (CODE_SIZE >= 4)
                          M           if (((LCDOUT) & 1800h) == 0)
                          M         clrf    PCLATH
                          M           else
                          M             if (((LCDOUT) & 800h) == 0)
                          M         bcf     PCLATH, 3
                          M             else
                          M         bsf     PCLATH, 3
                          M             endif
                          M             if (CODE_SIZE == 8)
                          M               if (((LCDOUT) & 1000h) == 0)
                          M         bcf     PCLATH, 4
                          M               else
                          M         bsf     PCLATH, 4
                          M               endif
                          M             endif
                          M           endif
                          M         endif
                          M       endif
                          M     endif
                          M 
01B5   206B               M         call    LCDOUT
                      00129         LABEL?L L00007  
                          M         RST?RP
                          M     if ((PREV_BANK & 1) != 0)
                          M         bcf     STATUS, RP0
                          M     endif
                          M     if ((PREV_BANK & 2) != 0)
                          M         bcf     STATUS, RP1
                          M     endif
  00000000                M PREV_BANK = 0
                          M     ifdef PM_USED
                          M         LALL
                          M L00007
                          M         XALL
                          M     else
01B6                      M L00007
                          M     endif
                      00130         CMPNE?BCL       _diaS, 005h, L00009
                          M     if (((005h) > -100h) & ((005h) < 100h))
MPASM  5.49                      RTCCON~1.ASM   1-27-2021  11:00:41         PAGE 106


LOC  OBJECT CODE     LINE SOURCE TEXT
  VALUE

                          M         CLRWDT?
                          M     ifndef NO_CLRWDT
01B6   0064               M         clrwdt
                          M     endif
                          M         MOVE?BA _diaS
                          M         CHK?RP  _diaS
                          M     if (((_diaS) & 180h) == 0)
                          M       if (PREV_BANK == 1)
                          M         bcf     STATUS, RP0
                          M       endif
                          M       if (PREV_BANK == 2)
                          M         bcf     STATUS, RP1
                          M       endif
                          M       if (PREV_BANK == 3)
                          M         bcf     STATUS, RP0
                          M         bcf     STATUS, RP1
                          M       endif
  00000000                M PREV_BANK = 0
                          M     endif
                          M 
                          M     if (((_diaS) & 180h) == 80h)
                          M       if (PREV_BANK == 0)
                          M         bsf     STATUS, RP0
                          M       endif
                          M       if (PREV_BANK == 2)
                          M         bsf     STATUS, RP0
                          M         bcf     STATUS, RP1
                          M       endif
                          M       if (PREV_BANK == 3)
                          M         bcf     STATUS, RP1
                          M       endif
                          M PREV_BANK = 1
                          M     endif
                          M 
                          M     if (((_diaS) & 180h) == 100h)
                          M       if (PREV_BANK == 0)
                          M         bsf     STATUS, RP1
                          M       endif
                          M       if (PREV_BANK == 1)
                          M         bcf     STATUS, RP0
                          M         bsf     STATUS, RP1
                          M       endif
                          M       if (PREV_BANK == 3)
                          M         bcf     STATUS, RP0
                          M       endif
                          M PREV_BANK = 2
                          M     endif
                          M 
                          M     if (((_diaS) & 180h) == 180h)
                          M       if (PREV_BANK == 0)
                          M         bsf     STATUS, RP0
                          M         bsf     STATUS, RP1
                          M       endif
MPASM  5.49                      RTCCON~1.ASM   1-27-2021  11:00:41         PAGE 107


LOC  OBJECT CODE     LINE SOURCE TEXT
  VALUE

                          M       if (PREV_BANK == 1)
                          M         bsf     STATUS, RP1
                          M       endif
                          M       if (PREV_BANK == 2)
                          M         bsf     STATUS, RP0
                          M       endif
                          M PREV_BANK = 3
                          M     endif
01B7   083A               M         movf    _diaS, W
01B8   3C05               M         sublw   005h
                          M         BIT?GOTO 0, STATUS, Z, L00009
                          M     if ($ == (L00009))
                          M         CLRWDT?
                          M     endif
                          M 
                          M     if (CODE_SIZE >= 4)
                          M       if (((L00009) & 800h) == 0)
                          M         bcf     PCLATH, 3
                          M       else
                          M         bsf     PCLATH, 3
                          M       endif
                          M     endif
                          M     if (CODE_SIZE == 8)
                          M       if (((L00009) & 1000h) == 0)
                          M         bcf     PCLATH, 4
                          M       else
                          M         bsf     PCLATH, 4
                          M       endif
                          M     endif
                          M 
                          M     if (((STATUS) & 0ff80h) != 0)
                          M         CHK?RP  STATUS
                          M         bcf     STATUS, DC
                          M       if ((0)      == 0)
                          M         btfss   STATUS, Z
                          M       else
                          M         btfsc   STATUS, Z
                          M       endif
                          M         bsf     STATUS, DC
                          M         RST?RP
                          M         btfsc   STATUS, DC
                          M     else
                          M         RST?RP
                          M     if ((PREV_BANK & 1) != 0)
                          M         bcf     STATUS, RP0
                          M     endif
                          M     if ((PREV_BANK & 2) != 0)
                          M         bcf     STATUS, RP1
                          M     endif
  00000000                M PREV_BANK = 0
                          M       if ((0)      == 0)
01B9   1D03               M         btfss   STATUS, Z
                          M       else
MPASM  5.49                      RTCCON~1.ASM   1-27-2021  11:00:41         PAGE 108


LOC  OBJECT CODE     LINE SOURCE TEXT
  VALUE

                          M         btfsc   STATUS, Z
                          M       endif
                          M     endif
                          M 
01BA   29C3               M         goto    L00009
                          M     else
                          M         L?GOTO  L00009
                          M     endif
                      00131         LCDOUT?C        04Ah
01BB   304A               M         movlw   04Ah
                          M         L?CALL  LCDOUT
                          M         RST?RP
                          M     if ((PREV_BANK & 1) != 0)
                          M         bcf     STATUS, RP0
                          M     endif
                          M     if ((PREV_BANK & 2) != 0)
                          M         bcf     STATUS, RP1
                          M     endif
  00000000                M PREV_BANK = 0
                          M 
                          M     if ((LCDOUT) < 1)
                          M       if (CODE_SIZE >= 4)
                          M         if (((LCDOUT) & 800h) == 0)
                          M         bcf     PCLATH, 3
                          M         else
                          M         bsf     PCLATH, 3
                          M         endif
                          M       endif
                          M       if (CODE_SIZE == 8)
                          M         if (((LCDOUT) & 1000h) == 0)
                          M         bcf     PCLATH, 4
                          M         else
                          M         bsf     PCLATH, 4
                          M         endif
                          M       endif
                          M     else
                          M       if ((LCDOUT) > $)
                          M         if (CODE_SIZE >= 4)
                          M           if (((LCDOUT) & 800h) == 0)
                          M         bcf     PCLATH, 3
                          M           else
                          M         bsf     PCLATH, 3
                          M           endif
                          M         endif
                          M         if (CODE_SIZE == 8)
                          M           if (((LCDOUT) & 1000h) == 0)
                          M         bcf     PCLATH, 4
                          M           else
                          M         bsf     PCLATH, 4
                          M           endif
                          M         endif
                          M       else
                          M         if (CODE_SIZE >= 4)
MPASM  5.49                      RTCCON~1.ASM   1-27-2021  11:00:41         PAGE 109


LOC  OBJECT CODE     LINE SOURCE TEXT
  VALUE

                          M           if (((LCDOUT) & 1800h) == 0)
                          M         clrf    PCLATH
                          M           else
                          M             if (((LCDOUT) & 800h) == 0)
                          M         bcf     PCLATH, 3
                          M             else
                          M         bsf     PCLATH, 3
                          M             endif
                          M             if (CODE_SIZE == 8)
                          M               if (((LCDOUT) & 1000h) == 0)
                          M         bcf     PCLATH, 4
                          M               else
                          M         bsf     PCLATH, 4
                          M               endif
                          M             endif
                          M           endif
                          M         endif
                          M       endif
                          M     endif
                          M 
01BC   206B               M         call    LCDOUT
                      00132         LCDOUT?C        075h
01BD   3075               M         movlw   075h
                          M         L?CALL  LCDOUT
                          M         RST?RP
                          M     if ((PREV_BANK & 1) != 0)
                          M         bcf     STATUS, RP0
                          M     endif
                          M     if ((PREV_BANK & 2) != 0)
                          M         bcf     STATUS, RP1
                          M     endif
  00000000                M PREV_BANK = 0
                          M 
                          M     if ((LCDOUT) < 1)
                          M       if (CODE_SIZE >= 4)
                          M         if (((LCDOUT) & 800h) == 0)
                          M         bcf     PCLATH, 3
                          M         else
                          M         bsf     PCLATH, 3
                          M         endif
                          M       endif
                          M       if (CODE_SIZE == 8)
                          M         if (((LCDOUT) & 1000h) == 0)
                          M         bcf     PCLATH, 4
                          M         else
                          M         bsf     PCLATH, 4
                          M         endif
                          M       endif
                          M     else
                          M       if ((LCDOUT) > $)
                          M         if (CODE_SIZE >= 4)
                          M           if (((LCDOUT) & 800h) == 0)
                          M         bcf     PCLATH, 3
MPASM  5.49                      RTCCON~1.ASM   1-27-2021  11:00:41         PAGE 110


LOC  OBJECT CODE     LINE SOURCE TEXT
  VALUE

                          M           else
                          M         bsf     PCLATH, 3
                          M           endif
                          M         endif
                          M         if (CODE_SIZE == 8)
                          M           if (((LCDOUT) & 1000h) == 0)
                          M         bcf     PCLATH, 4
                          M           else
                          M         bsf     PCLATH, 4
                          M           endif
                          M         endif
                          M       else
                          M         if (CODE_SIZE >= 4)
                          M           if (((LCDOUT) & 1800h) == 0)
                          M         clrf    PCLATH
                          M           else
                          M             if (((LCDOUT) & 800h) == 0)
                          M         bcf     PCLATH, 3
                          M             else
                          M         bsf     PCLATH, 3
                          M             endif
                          M             if (CODE_SIZE == 8)
                          M               if (((LCDOUT) & 1000h) == 0)
                          M         bcf     PCLATH, 4
                          M               else
                          M         bsf     PCLATH, 4
                          M               endif
                          M             endif
                          M           endif
                          M         endif
                          M       endif
                          M     endif
                          M 
01BE   206B               M         call    LCDOUT
                      00133         LCDOUT?C        065h
01BF   3065               M         movlw   065h
                          M         L?CALL  LCDOUT
                          M         RST?RP
                          M     if ((PREV_BANK & 1) != 0)
                          M         bcf     STATUS, RP0
                          M     endif
                          M     if ((PREV_BANK & 2) != 0)
                          M         bcf     STATUS, RP1
                          M     endif
  00000000                M PREV_BANK = 0
                          M 
                          M     if ((LCDOUT) < 1)
                          M       if (CODE_SIZE >= 4)
                          M         if (((LCDOUT) & 800h) == 0)
                          M         bcf     PCLATH, 3
                          M         else
                          M         bsf     PCLATH, 3
                          M         endif
MPASM  5.49                      RTCCON~1.ASM   1-27-2021  11:00:41         PAGE 111


LOC  OBJECT CODE     LINE SOURCE TEXT
  VALUE

                          M       endif
                          M       if (CODE_SIZE == 8)
                          M         if (((LCDOUT) & 1000h) == 0)
                          M         bcf     PCLATH, 4
                          M         else
                          M         bsf     PCLATH, 4
                          M         endif
                          M       endif
                          M     else
                          M       if ((LCDOUT) > $)
                          M         if (CODE_SIZE >= 4)
                          M           if (((LCDOUT) & 800h) == 0)
                          M         bcf     PCLATH, 3
                          M           else
                          M         bsf     PCLATH, 3
                          M           endif
                          M         endif
                          M         if (CODE_SIZE == 8)
                          M           if (((LCDOUT) & 1000h) == 0)
                          M         bcf     PCLATH, 4
                          M           else
                          M         bsf     PCLATH, 4
                          M           endif
                          M         endif
                          M       else
                          M         if (CODE_SIZE >= 4)
                          M           if (((LCDOUT) & 1800h) == 0)
                          M         clrf    PCLATH
                          M           else
                          M             if (((LCDOUT) & 800h) == 0)
                          M         bcf     PCLATH, 3
                          M             else
                          M         bsf     PCLATH, 3
                          M             endif
                          M             if (CODE_SIZE == 8)
                          M               if (((LCDOUT) & 1000h) == 0)
                          M         bcf     PCLATH, 4
                          M               else
                          M         bsf     PCLATH, 4
                          M               endif
                          M             endif
                          M           endif
                          M         endif
                          M       endif
                          M     endif
                          M 
01C0   206B               M         call    LCDOUT
                      00134         LCDOUT?C        02Eh
01C1   302E               M         movlw   02Eh
                          M         L?CALL  LCDOUT
                          M         RST?RP
                          M     if ((PREV_BANK & 1) != 0)
                          M         bcf     STATUS, RP0
MPASM  5.49                      RTCCON~1.ASM   1-27-2021  11:00:41         PAGE 112


LOC  OBJECT CODE     LINE SOURCE TEXT
  VALUE

                          M     endif
                          M     if ((PREV_BANK & 2) != 0)
                          M         bcf     STATUS, RP1
                          M     endif
  00000000                M PREV_BANK = 0
                          M 
                          M     if ((LCDOUT) < 1)
                          M       if (CODE_SIZE >= 4)
                          M         if (((LCDOUT) & 800h) == 0)
                          M         bcf     PCLATH, 3
                          M         else
                          M         bsf     PCLATH, 3
                          M         endif
                          M       endif
                          M       if (CODE_SIZE == 8)
                          M         if (((LCDOUT) & 1000h) == 0)
                          M         bcf     PCLATH, 4
                          M         else
                          M         bsf     PCLATH, 4
                          M         endif
                          M       endif
                          M     else
                          M       if ((LCDOUT) > $)
                          M         if (CODE_SIZE >= 4)
                          M           if (((LCDOUT) & 800h) == 0)
                          M         bcf     PCLATH, 3
                          M           else
                          M         bsf     PCLATH, 3
                          M           endif
                          M         endif
                          M         if (CODE_SIZE == 8)
                          M           if (((LCDOUT) & 1000h) == 0)
                          M         bcf     PCLATH, 4
                          M           else
                          M         bsf     PCLATH, 4
                          M           endif
                          M         endif
                          M       else
                          M         if (CODE_SIZE >= 4)
                          M           if (((LCDOUT) & 1800h) == 0)
                          M         clrf    PCLATH
                          M           else
                          M             if (((LCDOUT) & 800h) == 0)
                          M         bcf     PCLATH, 3
                          M             else
                          M         bsf     PCLATH, 3
                          M             endif
                          M             if (CODE_SIZE == 8)
                          M               if (((LCDOUT) & 1000h) == 0)
                          M         bcf     PCLATH, 4
                          M               else
                          M         bsf     PCLATH, 4
                          M               endif
MPASM  5.49                      RTCCON~1.ASM   1-27-2021  11:00:41         PAGE 113


LOC  OBJECT CODE     LINE SOURCE TEXT
  VALUE

                          M             endif
                          M           endif
                          M         endif
                          M       endif
                          M     endif
                          M 
01C2   206B               M         call    LCDOUT
                      00135         LABEL?L L00009  
                          M         RST?RP
                          M     if ((PREV_BANK & 1) != 0)
                          M         bcf     STATUS, RP0
                          M     endif
                          M     if ((PREV_BANK & 2) != 0)
                          M         bcf     STATUS, RP1
                          M     endif
  00000000                M PREV_BANK = 0
                          M     ifdef PM_USED
                          M         LALL
                          M L00009
                          M         XALL
                          M     else
01C3                      M L00009
                          M     endif
                      00136         CMPNE?BCL       _diaS, 006h, L00011
                          M     if (((006h) > -100h) & ((006h) < 100h))
                          M         CLRWDT?
                          M     ifndef NO_CLRWDT
01C3   0064               M         clrwdt
                          M     endif
                          M         MOVE?BA _diaS
                          M         CHK?RP  _diaS
                          M     if (((_diaS) & 180h) == 0)
                          M       if (PREV_BANK == 1)
                          M         bcf     STATUS, RP0
                          M       endif
                          M       if (PREV_BANK == 2)
                          M         bcf     STATUS, RP1
                          M       endif
                          M       if (PREV_BANK == 3)
                          M         bcf     STATUS, RP0
                          M         bcf     STATUS, RP1
                          M       endif
  00000000                M PREV_BANK = 0
                          M     endif
                          M 
                          M     if (((_diaS) & 180h) == 80h)
                          M       if (PREV_BANK == 0)
                          M         bsf     STATUS, RP0
                          M       endif
                          M       if (PREV_BANK == 2)
                          M         bsf     STATUS, RP0
                          M         bcf     STATUS, RP1
                          M       endif
MPASM  5.49                      RTCCON~1.ASM   1-27-2021  11:00:41         PAGE 114


LOC  OBJECT CODE     LINE SOURCE TEXT
  VALUE

                          M       if (PREV_BANK == 3)
                          M         bcf     STATUS, RP1
                          M       endif
                          M PREV_BANK = 1
                          M     endif
                          M 
                          M     if (((_diaS) & 180h) == 100h)
                          M       if (PREV_BANK == 0)
                          M         bsf     STATUS, RP1
                          M       endif
                          M       if (PREV_BANK == 1)
                          M         bcf     STATUS, RP0
                          M         bsf     STATUS, RP1
                          M       endif
                          M       if (PREV_BANK == 3)
                          M         bcf     STATUS, RP0
                          M       endif
                          M PREV_BANK = 2
                          M     endif
                          M 
                          M     if (((_diaS) & 180h) == 180h)
                          M       if (PREV_BANK == 0)
                          M         bsf     STATUS, RP0
                          M         bsf     STATUS, RP1
                          M       endif
                          M       if (PREV_BANK == 1)
                          M         bsf     STATUS, RP1
                          M       endif
                          M       if (PREV_BANK == 2)
                          M         bsf     STATUS, RP0
                          M       endif
                          M PREV_BANK = 3
                          M     endif
01C4   083A               M         movf    _diaS, W
01C5   3C06               M         sublw   006h
                          M         BIT?GOTO 0, STATUS, Z, L00011
                          M     if ($ == (L00011))
                          M         CLRWDT?
                          M     endif
                          M 
                          M     if (CODE_SIZE >= 4)
                          M       if (((L00011) & 800h) == 0)
                          M         bcf     PCLATH, 3
                          M       else
                          M         bsf     PCLATH, 3
                          M       endif
                          M     endif
                          M     if (CODE_SIZE == 8)
                          M       if (((L00011) & 1000h) == 0)
                          M         bcf     PCLATH, 4
                          M       else
                          M         bsf     PCLATH, 4
                          M       endif
MPASM  5.49                      RTCCON~1.ASM   1-27-2021  11:00:41         PAGE 115


LOC  OBJECT CODE     LINE SOURCE TEXT
  VALUE

                          M     endif
                          M 
                          M     if (((STATUS) & 0ff80h) != 0)
                          M         CHK?RP  STATUS
                          M         bcf     STATUS, DC
                          M       if ((0)      == 0)
                          M         btfss   STATUS, Z
                          M       else
                          M         btfsc   STATUS, Z
                          M       endif
                          M         bsf     STATUS, DC
                          M         RST?RP
                          M         btfsc   STATUS, DC
                          M     else
                          M         RST?RP
                          M     if ((PREV_BANK & 1) != 0)
                          M         bcf     STATUS, RP0
                          M     endif
                          M     if ((PREV_BANK & 2) != 0)
                          M         bcf     STATUS, RP1
                          M     endif
  00000000                M PREV_BANK = 0
                          M       if ((0)      == 0)
01C6   1D03               M         btfss   STATUS, Z
                          M       else
                          M         btfsc   STATUS, Z
                          M       endif
                          M     endif
                          M 
01C7   29D0               M         goto    L00011
                          M     else
                          M         L?GOTO  L00011
                          M     endif
                      00137         LCDOUT?C        056h
01C8   3056               M         movlw   056h
                          M         L?CALL  LCDOUT
                          M         RST?RP
                          M     if ((PREV_BANK & 1) != 0)
                          M         bcf     STATUS, RP0
                          M     endif
                          M     if ((PREV_BANK & 2) != 0)
                          M         bcf     STATUS, RP1
                          M     endif
  00000000                M PREV_BANK = 0
                          M 
                          M     if ((LCDOUT) < 1)
                          M       if (CODE_SIZE >= 4)
                          M         if (((LCDOUT) & 800h) == 0)
                          M         bcf     PCLATH, 3
                          M         else
                          M         bsf     PCLATH, 3
                          M         endif
                          M       endif
MPASM  5.49                      RTCCON~1.ASM   1-27-2021  11:00:41         PAGE 116


LOC  OBJECT CODE     LINE SOURCE TEXT
  VALUE

                          M       if (CODE_SIZE == 8)
                          M         if (((LCDOUT) & 1000h) == 0)
                          M         bcf     PCLATH, 4
                          M         else
                          M         bsf     PCLATH, 4
                          M         endif
                          M       endif
                          M     else
                          M       if ((LCDOUT) > $)
                          M         if (CODE_SIZE >= 4)
                          M           if (((LCDOUT) & 800h) == 0)
                          M         bcf     PCLATH, 3
                          M           else
                          M         bsf     PCLATH, 3
                          M           endif
                          M         endif
                          M         if (CODE_SIZE == 8)
                          M           if (((LCDOUT) & 1000h) == 0)
                          M         bcf     PCLATH, 4
                          M           else
                          M         bsf     PCLATH, 4
                          M           endif
                          M         endif
                          M       else
                          M         if (CODE_SIZE >= 4)
                          M           if (((LCDOUT) & 1800h) == 0)
                          M         clrf    PCLATH
                          M           else
                          M             if (((LCDOUT) & 800h) == 0)
                          M         bcf     PCLATH, 3
                          M             else
                          M         bsf     PCLATH, 3
                          M             endif
                          M             if (CODE_SIZE == 8)
                          M               if (((LCDOUT) & 1000h) == 0)
                          M         bcf     PCLATH, 4
                          M               else
                          M         bsf     PCLATH, 4
                          M               endif
                          M             endif
                          M           endif
                          M         endif
                          M       endif
                          M     endif
                          M 
01C9   206B               M         call    LCDOUT
                      00138         LCDOUT?C        069h
01CA   3069               M         movlw   069h
                          M         L?CALL  LCDOUT
                          M         RST?RP
                          M     if ((PREV_BANK & 1) != 0)
                          M         bcf     STATUS, RP0
                          M     endif
MPASM  5.49                      RTCCON~1.ASM   1-27-2021  11:00:41         PAGE 117


LOC  OBJECT CODE     LINE SOURCE TEXT
  VALUE

                          M     if ((PREV_BANK & 2) != 0)
                          M         bcf     STATUS, RP1
                          M     endif
  00000000                M PREV_BANK = 0
                          M 
                          M     if ((LCDOUT) < 1)
                          M       if (CODE_SIZE >= 4)
                          M         if (((LCDOUT) & 800h) == 0)
                          M         bcf     PCLATH, 3
                          M         else
                          M         bsf     PCLATH, 3
                          M         endif
                          M       endif
                          M       if (CODE_SIZE == 8)
                          M         if (((LCDOUT) & 1000h) == 0)
                          M         bcf     PCLATH, 4
                          M         else
                          M         bsf     PCLATH, 4
                          M         endif
                          M       endif
                          M     else
                          M       if ((LCDOUT) > $)
                          M         if (CODE_SIZE >= 4)
                          M           if (((LCDOUT) & 800h) == 0)
                          M         bcf     PCLATH, 3
                          M           else
                          M         bsf     PCLATH, 3
                          M           endif
                          M         endif
                          M         if (CODE_SIZE == 8)
                          M           if (((LCDOUT) & 1000h) == 0)
                          M         bcf     PCLATH, 4
                          M           else
                          M         bsf     PCLATH, 4
                          M           endif
                          M         endif
                          M       else
                          M         if (CODE_SIZE >= 4)
                          M           if (((LCDOUT) & 1800h) == 0)
                          M         clrf    PCLATH
                          M           else
                          M             if (((LCDOUT) & 800h) == 0)
                          M         bcf     PCLATH, 3
                          M             else
                          M         bsf     PCLATH, 3
                          M             endif
                          M             if (CODE_SIZE == 8)
                          M               if (((LCDOUT) & 1000h) == 0)
                          M         bcf     PCLATH, 4
                          M               else
                          M         bsf     PCLATH, 4
                          M               endif
                          M             endif
MPASM  5.49                      RTCCON~1.ASM   1-27-2021  11:00:41         PAGE 118


LOC  OBJECT CODE     LINE SOURCE TEXT
  VALUE

                          M           endif
                          M         endif
                          M       endif
                          M     endif
                          M 
01CB   206B               M         call    LCDOUT
                      00139         LCDOUT?C        065h
01CC   3065               M         movlw   065h
                          M         L?CALL  LCDOUT
                          M         RST?RP
                          M     if ((PREV_BANK & 1) != 0)
                          M         bcf     STATUS, RP0
                          M     endif
                          M     if ((PREV_BANK & 2) != 0)
                          M         bcf     STATUS, RP1
                          M     endif
  00000000                M PREV_BANK = 0
                          M 
                          M     if ((LCDOUT) < 1)
                          M       if (CODE_SIZE >= 4)
                          M         if (((LCDOUT) & 800h) == 0)
                          M         bcf     PCLATH, 3
                          M         else
                          M         bsf     PCLATH, 3
                          M         endif
                          M       endif
                          M       if (CODE_SIZE == 8)
                          M         if (((LCDOUT) & 1000h) == 0)
                          M         bcf     PCLATH, 4
                          M         else
                          M         bsf     PCLATH, 4
                          M         endif
                          M       endif
                          M     else
                          M       if ((LCDOUT) > $)
                          M         if (CODE_SIZE >= 4)
                          M           if (((LCDOUT) & 800h) == 0)
                          M         bcf     PCLATH, 3
                          M           else
                          M         bsf     PCLATH, 3
                          M           endif
                          M         endif
                          M         if (CODE_SIZE == 8)
                          M           if (((LCDOUT) & 1000h) == 0)
                          M         bcf     PCLATH, 4
                          M           else
                          M         bsf     PCLATH, 4
                          M           endif
                          M         endif
                          M       else
                          M         if (CODE_SIZE >= 4)
                          M           if (((LCDOUT) & 1800h) == 0)
                          M         clrf    PCLATH
MPASM  5.49                      RTCCON~1.ASM   1-27-2021  11:00:41         PAGE 119


LOC  OBJECT CODE     LINE SOURCE TEXT
  VALUE

                          M           else
                          M             if (((LCDOUT) & 800h) == 0)
                          M         bcf     PCLATH, 3
                          M             else
                          M         bsf     PCLATH, 3
                          M             endif
                          M             if (CODE_SIZE == 8)
                          M               if (((LCDOUT) & 1000h) == 0)
                          M         bcf     PCLATH, 4
                          M               else
                          M         bsf     PCLATH, 4
                          M               endif
                          M             endif
                          M           endif
                          M         endif
                          M       endif
                          M     endif
                          M 
01CD   206B               M         call    LCDOUT
                      00140         LCDOUT?C        02Eh
01CE   302E               M         movlw   02Eh
                          M         L?CALL  LCDOUT
                          M         RST?RP
                          M     if ((PREV_BANK & 1) != 0)
                          M         bcf     STATUS, RP0
                          M     endif
                          M     if ((PREV_BANK & 2) != 0)
                          M         bcf     STATUS, RP1
                          M     endif
  00000000                M PREV_BANK = 0
                          M 
                          M     if ((LCDOUT) < 1)
                          M       if (CODE_SIZE >= 4)
                          M         if (((LCDOUT) & 800h) == 0)
                          M         bcf     PCLATH, 3
                          M         else
                          M         bsf     PCLATH, 3
                          M         endif
                          M       endif
                          M       if (CODE_SIZE == 8)
                          M         if (((LCDOUT) & 1000h) == 0)
                          M         bcf     PCLATH, 4
                          M         else
                          M         bsf     PCLATH, 4
                          M         endif
                          M       endif
                          M     else
                          M       if ((LCDOUT) > $)
                          M         if (CODE_SIZE >= 4)
                          M           if (((LCDOUT) & 800h) == 0)
                          M         bcf     PCLATH, 3
                          M           else
                          M         bsf     PCLATH, 3
MPASM  5.49                      RTCCON~1.ASM   1-27-2021  11:00:41         PAGE 120


LOC  OBJECT CODE     LINE SOURCE TEXT
  VALUE

                          M           endif
                          M         endif
                          M         if (CODE_SIZE == 8)
                          M           if (((LCDOUT) & 1000h) == 0)
                          M         bcf     PCLATH, 4
                          M           else
                          M         bsf     PCLATH, 4
                          M           endif
                          M         endif
                          M       else
                          M         if (CODE_SIZE >= 4)
                          M           if (((LCDOUT) & 1800h) == 0)
                          M         clrf    PCLATH
                          M           else
                          M             if (((LCDOUT) & 800h) == 0)
                          M         bcf     PCLATH, 3
                          M             else
                          M         bsf     PCLATH, 3
                          M             endif
                          M             if (CODE_SIZE == 8)
                          M               if (((LCDOUT) & 1000h) == 0)
                          M         bcf     PCLATH, 4
                          M               else
                          M         bsf     PCLATH, 4
                          M               endif
                          M             endif
                          M           endif
                          M         endif
                          M       endif
                          M     endif
                          M 
01CF   206B               M         call    LCDOUT
                      00141         LABEL?L L00011  
                          M         RST?RP
                          M     if ((PREV_BANK & 1) != 0)
                          M         bcf     STATUS, RP0
                          M     endif
                          M     if ((PREV_BANK & 2) != 0)
                          M         bcf     STATUS, RP1
                          M     endif
  00000000                M PREV_BANK = 0
                          M     ifdef PM_USED
                          M         LALL
                          M L00011
                          M         XALL
                          M     else
01D0                      M L00011
                          M     endif
                      00142         CMPNE?BCL       _diaS, 007h, L00013
                          M     if (((007h) > -100h) & ((007h) < 100h))
                          M         CLRWDT?
                          M     ifndef NO_CLRWDT
01D0   0064               M         clrwdt
MPASM  5.49                      RTCCON~1.ASM   1-27-2021  11:00:41         PAGE 121


LOC  OBJECT CODE     LINE SOURCE TEXT
  VALUE

                          M     endif
                          M         MOVE?BA _diaS
                          M         CHK?RP  _diaS
                          M     if (((_diaS) & 180h) == 0)
                          M       if (PREV_BANK == 1)
                          M         bcf     STATUS, RP0
                          M       endif
                          M       if (PREV_BANK == 2)
                          M         bcf     STATUS, RP1
                          M       endif
                          M       if (PREV_BANK == 3)
                          M         bcf     STATUS, RP0
                          M         bcf     STATUS, RP1
                          M       endif
  00000000                M PREV_BANK = 0
                          M     endif
                          M 
                          M     if (((_diaS) & 180h) == 80h)
                          M       if (PREV_BANK == 0)
                          M         bsf     STATUS, RP0
                          M       endif
                          M       if (PREV_BANK == 2)
                          M         bsf     STATUS, RP0
                          M         bcf     STATUS, RP1
                          M       endif
                          M       if (PREV_BANK == 3)
                          M         bcf     STATUS, RP1
                          M       endif
                          M PREV_BANK = 1
                          M     endif
                          M 
                          M     if (((_diaS) & 180h) == 100h)
                          M       if (PREV_BANK == 0)
                          M         bsf     STATUS, RP1
                          M       endif
                          M       if (PREV_BANK == 1)
                          M         bcf     STATUS, RP0
                          M         bsf     STATUS, RP1
                          M       endif
                          M       if (PREV_BANK == 3)
                          M         bcf     STATUS, RP0
                          M       endif
                          M PREV_BANK = 2
                          M     endif
                          M 
                          M     if (((_diaS) & 180h) == 180h)
                          M       if (PREV_BANK == 0)
                          M         bsf     STATUS, RP0
                          M         bsf     STATUS, RP1
                          M       endif
                          M       if (PREV_BANK == 1)
                          M         bsf     STATUS, RP1
                          M       endif
MPASM  5.49                      RTCCON~1.ASM   1-27-2021  11:00:41         PAGE 122


LOC  OBJECT CODE     LINE SOURCE TEXT
  VALUE

                          M       if (PREV_BANK == 2)
                          M         bsf     STATUS, RP0
                          M       endif
                          M PREV_BANK = 3
                          M     endif
01D1   083A               M         movf    _diaS, W
01D2   3C07               M         sublw   007h
                          M         BIT?GOTO 0, STATUS, Z, L00013
                          M     if ($ == (L00013))
                          M         CLRWDT?
                          M     endif
                          M 
                          M     if (CODE_SIZE >= 4)
                          M       if (((L00013) & 800h) == 0)
                          M         bcf     PCLATH, 3
                          M       else
                          M         bsf     PCLATH, 3
                          M       endif
                          M     endif
                          M     if (CODE_SIZE == 8)
                          M       if (((L00013) & 1000h) == 0)
                          M         bcf     PCLATH, 4
                          M       else
                          M         bsf     PCLATH, 4
                          M       endif
                          M     endif
                          M 
                          M     if (((STATUS) & 0ff80h) != 0)
                          M         CHK?RP  STATUS
                          M         bcf     STATUS, DC
                          M       if ((0)      == 0)
                          M         btfss   STATUS, Z
                          M       else
                          M         btfsc   STATUS, Z
                          M       endif
                          M         bsf     STATUS, DC
                          M         RST?RP
                          M         btfsc   STATUS, DC
                          M     else
                          M         RST?RP
                          M     if ((PREV_BANK & 1) != 0)
                          M         bcf     STATUS, RP0
                          M     endif
                          M     if ((PREV_BANK & 2) != 0)
                          M         bcf     STATUS, RP1
                          M     endif
  00000000                M PREV_BANK = 0
                          M       if ((0)      == 0)
01D3   1D03               M         btfss   STATUS, Z
                          M       else
                          M         btfsc   STATUS, Z
                          M       endif
                          M     endif
MPASM  5.49                      RTCCON~1.ASM   1-27-2021  11:00:41         PAGE 123


LOC  OBJECT CODE     LINE SOURCE TEXT
  VALUE

                          M 
01D4   29DD               M         goto    L00013
                          M     else
                          M         L?GOTO  L00013
                          M     endif
                      00143         LCDOUT?C        053h
01D5   3053               M         movlw   053h
                          M         L?CALL  LCDOUT
                          M         RST?RP
                          M     if ((PREV_BANK & 1) != 0)
                          M         bcf     STATUS, RP0
                          M     endif
                          M     if ((PREV_BANK & 2) != 0)
                          M         bcf     STATUS, RP1
                          M     endif
  00000000                M PREV_BANK = 0
                          M 
                          M     if ((LCDOUT) < 1)
                          M       if (CODE_SIZE >= 4)
                          M         if (((LCDOUT) & 800h) == 0)
                          M         bcf     PCLATH, 3
                          M         else
                          M         bsf     PCLATH, 3
                          M         endif
                          M       endif
                          M       if (CODE_SIZE == 8)
                          M         if (((LCDOUT) & 1000h) == 0)
                          M         bcf     PCLATH, 4
                          M         else
                          M         bsf     PCLATH, 4
                          M         endif
                          M       endif
                          M     else
                          M       if ((LCDOUT) > $)
                          M         if (CODE_SIZE >= 4)
                          M           if (((LCDOUT) & 800h) == 0)
                          M         bcf     PCLATH, 3
                          M           else
                          M         bsf     PCLATH, 3
                          M           endif
                          M         endif
                          M         if (CODE_SIZE == 8)
                          M           if (((LCDOUT) & 1000h) == 0)
                          M         bcf     PCLATH, 4
                          M           else
                          M         bsf     PCLATH, 4
                          M           endif
                          M         endif
                          M       else
                          M         if (CODE_SIZE >= 4)
                          M           if (((LCDOUT) & 1800h) == 0)
                          M         clrf    PCLATH
                          M           else
MPASM  5.49                      RTCCON~1.ASM   1-27-2021  11:00:41         PAGE 124


LOC  OBJECT CODE     LINE SOURCE TEXT
  VALUE

                          M             if (((LCDOUT) & 800h) == 0)
                          M         bcf     PCLATH, 3
                          M             else
                          M         bsf     PCLATH, 3
                          M             endif
                          M             if (CODE_SIZE == 8)
                          M               if (((LCDOUT) & 1000h) == 0)
                          M         bcf     PCLATH, 4
                          M               else
                          M         bsf     PCLATH, 4
                          M               endif
                          M             endif
                          M           endif
                          M         endif
                          M       endif
                          M     endif
                          M 
01D6   206B               M         call    LCDOUT
                      00144         LCDOUT?C        061h
01D7   3061               M         movlw   061h
                          M         L?CALL  LCDOUT
                          M         RST?RP
                          M     if ((PREV_BANK & 1) != 0)
                          M         bcf     STATUS, RP0
                          M     endif
                          M     if ((PREV_BANK & 2) != 0)
                          M         bcf     STATUS, RP1
                          M     endif
  00000000                M PREV_BANK = 0
                          M 
                          M     if ((LCDOUT) < 1)
                          M       if (CODE_SIZE >= 4)
                          M         if (((LCDOUT) & 800h) == 0)
                          M         bcf     PCLATH, 3
                          M         else
                          M         bsf     PCLATH, 3
                          M         endif
                          M       endif
                          M       if (CODE_SIZE == 8)
                          M         if (((LCDOUT) & 1000h) == 0)
                          M         bcf     PCLATH, 4
                          M         else
                          M         bsf     PCLATH, 4
                          M         endif
                          M       endif
                          M     else
                          M       if ((LCDOUT) > $)
                          M         if (CODE_SIZE >= 4)
                          M           if (((LCDOUT) & 800h) == 0)
                          M         bcf     PCLATH, 3
                          M           else
                          M         bsf     PCLATH, 3
                          M           endif
MPASM  5.49                      RTCCON~1.ASM   1-27-2021  11:00:41         PAGE 125


LOC  OBJECT CODE     LINE SOURCE TEXT
  VALUE

                          M         endif
                          M         if (CODE_SIZE == 8)
                          M           if (((LCDOUT) & 1000h) == 0)
                          M         bcf     PCLATH, 4
                          M           else
                          M         bsf     PCLATH, 4
                          M           endif
                          M         endif
                          M       else
                          M         if (CODE_SIZE >= 4)
                          M           if (((LCDOUT) & 1800h) == 0)
                          M         clrf    PCLATH
                          M           else
                          M             if (((LCDOUT) & 800h) == 0)
                          M         bcf     PCLATH, 3
                          M             else
                          M         bsf     PCLATH, 3
                          M             endif
                          M             if (CODE_SIZE == 8)
                          M               if (((LCDOUT) & 1000h) == 0)
                          M         bcf     PCLATH, 4
                          M               else
                          M         bsf     PCLATH, 4
                          M               endif
                          M             endif
                          M           endif
                          M         endif
                          M       endif
                          M     endif
                          M 
01D8   206B               M         call    LCDOUT
                      00145         LCDOUT?C        062h
01D9   3062               M         movlw   062h
                          M         L?CALL  LCDOUT
                          M         RST?RP
                          M     if ((PREV_BANK & 1) != 0)
                          M         bcf     STATUS, RP0
                          M     endif
                          M     if ((PREV_BANK & 2) != 0)
                          M         bcf     STATUS, RP1
                          M     endif
  00000000                M PREV_BANK = 0
                          M 
                          M     if ((LCDOUT) < 1)
                          M       if (CODE_SIZE >= 4)
                          M         if (((LCDOUT) & 800h) == 0)
                          M         bcf     PCLATH, 3
                          M         else
                          M         bsf     PCLATH, 3
                          M         endif
                          M       endif
                          M       if (CODE_SIZE == 8)
                          M         if (((LCDOUT) & 1000h) == 0)
MPASM  5.49                      RTCCON~1.ASM   1-27-2021  11:00:41         PAGE 126


LOC  OBJECT CODE     LINE SOURCE TEXT
  VALUE

                          M         bcf     PCLATH, 4
                          M         else
                          M         bsf     PCLATH, 4
                          M         endif
                          M       endif
                          M     else
                          M       if ((LCDOUT) > $)
                          M         if (CODE_SIZE >= 4)
                          M           if (((LCDOUT) & 800h) == 0)
                          M         bcf     PCLATH, 3
                          M           else
                          M         bsf     PCLATH, 3
                          M           endif
                          M         endif
                          M         if (CODE_SIZE == 8)
                          M           if (((LCDOUT) & 1000h) == 0)
                          M         bcf     PCLATH, 4
                          M           else
                          M         bsf     PCLATH, 4
                          M           endif
                          M         endif
                          M       else
                          M         if (CODE_SIZE >= 4)
                          M           if (((LCDOUT) & 1800h) == 0)
                          M         clrf    PCLATH
                          M           else
                          M             if (((LCDOUT) & 800h) == 0)
                          M         bcf     PCLATH, 3
                          M             else
                          M         bsf     PCLATH, 3
                          M             endif
                          M             if (CODE_SIZE == 8)
                          M               if (((LCDOUT) & 1000h) == 0)
                          M         bcf     PCLATH, 4
                          M               else
                          M         bsf     PCLATH, 4
                          M               endif
                          M             endif
                          M           endif
                          M         endif
                          M       endif
                          M     endif
                          M 
01DA   206B               M         call    LCDOUT
                      00146         LCDOUT?C        02Eh
01DB   302E               M         movlw   02Eh
                          M         L?CALL  LCDOUT
                          M         RST?RP
                          M     if ((PREV_BANK & 1) != 0)
                          M         bcf     STATUS, RP0
                          M     endif
                          M     if ((PREV_BANK & 2) != 0)
                          M         bcf     STATUS, RP1
MPASM  5.49                      RTCCON~1.ASM   1-27-2021  11:00:41         PAGE 127


LOC  OBJECT CODE     LINE SOURCE TEXT
  VALUE

                          M     endif
  00000000                M PREV_BANK = 0
                          M 
                          M     if ((LCDOUT) < 1)
                          M       if (CODE_SIZE >= 4)
                          M         if (((LCDOUT) & 800h) == 0)
                          M         bcf     PCLATH, 3
                          M         else
                          M         bsf     PCLATH, 3
                          M         endif
                          M       endif
                          M       if (CODE_SIZE == 8)
                          M         if (((LCDOUT) & 1000h) == 0)
                          M         bcf     PCLATH, 4
                          M         else
                          M         bsf     PCLATH, 4
                          M         endif
                          M       endif
                          M     else
                          M       if ((LCDOUT) > $)
                          M         if (CODE_SIZE >= 4)
                          M           if (((LCDOUT) & 800h) == 0)
                          M         bcf     PCLATH, 3
                          M           else
                          M         bsf     PCLATH, 3
                          M           endif
                          M         endif
                          M         if (CODE_SIZE == 8)
                          M           if (((LCDOUT) & 1000h) == 0)
                          M         bcf     PCLATH, 4
                          M           else
                          M         bsf     PCLATH, 4
                          M           endif
                          M         endif
                          M       else
                          M         if (CODE_SIZE >= 4)
                          M           if (((LCDOUT) & 1800h) == 0)
                          M         clrf    PCLATH
                          M           else
                          M             if (((LCDOUT) & 800h) == 0)
                          M         bcf     PCLATH, 3
                          M             else
                          M         bsf     PCLATH, 3
                          M             endif
                          M             if (CODE_SIZE == 8)
                          M               if (((LCDOUT) & 1000h) == 0)
                          M         bcf     PCLATH, 4
                          M               else
                          M         bsf     PCLATH, 4
                          M               endif
                          M             endif
                          M           endif
                          M         endif
MPASM  5.49                      RTCCON~1.ASM   1-27-2021  11:00:41         PAGE 128


LOC  OBJECT CODE     LINE SOURCE TEXT
  VALUE

                          M       endif
                          M     endif
                          M 
01DC   206B               M         call    LCDOUT
                      00147         LABEL?L L00013  
                          M         RST?RP
                          M     if ((PREV_BANK & 1) != 0)
                          M         bcf     STATUS, RP0
                          M     endif
                          M     if ((PREV_BANK & 2) != 0)
                          M         bcf     STATUS, RP1
                          M     endif
  00000000                M PREV_BANK = 0
                          M     ifdef PM_USED
                          M         LALL
                          M L00013
                          M         XALL
                          M     else
01DD                      M L00013
                          M     endif
                      00148         LCDOUTCOUNT?C   002h
                          M         MOVE?CB 002h, R4 + 1
                          M         CHK?RP  R4 + 1
                          M     if (((R4 + 1) & 180h) == 0)
                          M       if (PREV_BANK == 1)
                          M         bcf     STATUS, RP0
                          M       endif
                          M       if (PREV_BANK == 2)
                          M         bcf     STATUS, RP1
                          M       endif
                          M       if (PREV_BANK == 3)
                          M         bcf     STATUS, RP0
                          M         bcf     STATUS, RP1
                          M       endif
  00000000                M PREV_BANK = 0
                          M     endif
                          M 
                          M     if (((R4 + 1) & 180h) == 80h)
                          M       if (PREV_BANK == 0)
                          M         bsf     STATUS, RP0
                          M       endif
                          M       if (PREV_BANK == 2)
                          M         bsf     STATUS, RP0
                          M         bcf     STATUS, RP1
                          M       endif
                          M       if (PREV_BANK == 3)
                          M         bcf     STATUS, RP1
                          M       endif
                          M PREV_BANK = 1
                          M     endif
                          M 
                          M     if (((R4 + 1) & 180h) == 100h)
                          M       if (PREV_BANK == 0)
MPASM  5.49                      RTCCON~1.ASM   1-27-2021  11:00:41         PAGE 129


LOC  OBJECT CODE     LINE SOURCE TEXT
  VALUE

                          M         bsf     STATUS, RP1
                          M       endif
                          M       if (PREV_BANK == 1)
                          M         bcf     STATUS, RP0
                          M         bsf     STATUS, RP1
                          M       endif
                          M       if (PREV_BANK == 3)
                          M         bcf     STATUS, RP0
                          M       endif
                          M PREV_BANK = 2
                          M     endif
                          M 
                          M     if (((R4 + 1) & 180h) == 180h)
                          M       if (PREV_BANK == 0)
                          M         bsf     STATUS, RP0
                          M         bsf     STATUS, RP1
                          M       endif
                          M       if (PREV_BANK == 1)
                          M         bsf     STATUS, RP1
                          M       endif
                          M       if (PREV_BANK == 2)
                          M         bsf     STATUS, RP0
                          M       endif
                          M PREV_BANK = 3
                          M     endif
                          M     if (low (002h) == 0)
                          M         clrf    R4 + 1
                          M     else
01DD   3002               M         movlw   low (002h)
01DE   00A9               M         movwf   R4 + 1
                          M     endif
                      00149         LCDOUTNUM?B     _diaF
                          M         MOVE?BW _diaF, R2
                          M         CHK?RP  _diaF
                          M     if (((_diaF) & 180h) == 0)
                          M       if (PREV_BANK == 1)
                          M         bcf     STATUS, RP0
                          M       endif
                          M       if (PREV_BANK == 2)
                          M         bcf     STATUS, RP1
                          M       endif
                          M       if (PREV_BANK == 3)
                          M         bcf     STATUS, RP0
                          M         bcf     STATUS, RP1
                          M       endif
  00000000                M PREV_BANK = 0
                          M     endif
                          M 
                          M     if (((_diaF) & 180h) == 80h)
                          M       if (PREV_BANK == 0)
                          M         bsf     STATUS, RP0
                          M       endif
                          M       if (PREV_BANK == 2)
MPASM  5.49                      RTCCON~1.ASM   1-27-2021  11:00:41         PAGE 130


LOC  OBJECT CODE     LINE SOURCE TEXT
  VALUE

                          M         bsf     STATUS, RP0
                          M         bcf     STATUS, RP1
                          M       endif
                          M       if (PREV_BANK == 3)
                          M         bcf     STATUS, RP1
                          M       endif
                          M PREV_BANK = 1
                          M     endif
                          M 
                          M     if (((_diaF) & 180h) == 100h)
                          M       if (PREV_BANK == 0)
                          M         bsf     STATUS, RP1
                          M       endif
                          M       if (PREV_BANK == 1)
                          M         bcf     STATUS, RP0
                          M         bsf     STATUS, RP1
                          M       endif
                          M       if (PREV_BANK == 3)
                          M         bcf     STATUS, RP0
                          M       endif
                          M PREV_BANK = 2
                          M     endif
                          M 
                          M     if (((_diaF) & 180h) == 180h)
                          M       if (PREV_BANK == 0)
                          M         bsf     STATUS, RP0
                          M         bsf     STATUS, RP1
                          M       endif
                          M       if (PREV_BANK == 1)
                          M         bsf     STATUS, RP1
                          M       endif
                          M       if (PREV_BANK == 2)
                          M         bsf     STATUS, RP0
                          M       endif
                          M PREV_BANK = 3
                          M     endif
01DF   0839               M         movf    _diaF, W
                          M         CHK?RP  R2
                          M     if (((R2)    & 180h) == 0)
                          M       if (PREV_BANK == 1)
                          M         bcf     STATUS, RP0
                          M       endif
                          M       if (PREV_BANK == 2)
                          M         bcf     STATUS, RP1
                          M       endif
                          M       if (PREV_BANK == 3)
                          M         bcf     STATUS, RP0
                          M         bcf     STATUS, RP1
                          M       endif
  00000000                M PREV_BANK = 0
                          M     endif
                          M 
                          M     if (((R2)    & 180h) == 80h)
MPASM  5.49                      RTCCON~1.ASM   1-27-2021  11:00:41         PAGE 131


LOC  OBJECT CODE     LINE SOURCE TEXT
  VALUE

                          M       if (PREV_BANK == 0)
                          M         bsf     STATUS, RP0
                          M       endif
                          M       if (PREV_BANK == 2)
                          M         bsf     STATUS, RP0
                          M         bcf     STATUS, RP1
                          M       endif
                          M       if (PREV_BANK == 3)
                          M         bcf     STATUS, RP1
                          M       endif
                          M PREV_BANK = 1
                          M     endif
                          M 
                          M     if (((R2)    & 180h) == 100h)
                          M       if (PREV_BANK == 0)
                          M         bsf     STATUS, RP1
                          M       endif
                          M       if (PREV_BANK == 1)
                          M         bcf     STATUS, RP0
                          M         bsf     STATUS, RP1
                          M       endif
                          M       if (PREV_BANK == 3)
                          M         bcf     STATUS, RP0
                          M       endif
                          M PREV_BANK = 2
                          M     endif
                          M 
                          M     if (((R2)    & 180h) == 180h)
                          M       if (PREV_BANK == 0)
                          M         bsf     STATUS, RP0
                          M         bsf     STATUS, RP1
                          M       endif
                          M       if (PREV_BANK == 1)
                          M         bsf     STATUS, RP1
                          M       endif
                          M       if (PREV_BANK == 2)
                          M         bsf     STATUS, RP0
                          M       endif
                          M PREV_BANK = 3
                          M     endif
01E0   00A4               M         movwf   R2
01E1   01A5               M         clrf    (R2)   + 1
                      00150         LCDOUTHEX?      
                          M         MOVE?CW LCDOUTJ, R8
                          M         MOVE?CB low (LCDOUTJ), R8
                          M         CHK?RP  R8
                          M     if (((R8)    & 180h) == 0)
                          M       if (PREV_BANK == 1)
                          M         bcf     STATUS, RP0
                          M       endif
                          M       if (PREV_BANK == 2)
                          M         bcf     STATUS, RP1
                          M       endif
MPASM  5.49                      RTCCON~1.ASM   1-27-2021  11:00:41         PAGE 132


LOC  OBJECT CODE     LINE SOURCE TEXT
  VALUE

                          M       if (PREV_BANK == 3)
                          M         bcf     STATUS, RP0
                          M         bcf     STATUS, RP1
                          M       endif
  00000000                M PREV_BANK = 0
                          M     endif
                          M 
                          M     if (((R8)    & 180h) == 80h)
                          M       if (PREV_BANK == 0)
                          M         bsf     STATUS, RP0
                          M       endif
                          M       if (PREV_BANK == 2)
                          M         bsf     STATUS, RP0
                          M         bcf     STATUS, RP1
                          M       endif
                          M       if (PREV_BANK == 3)
                          M         bcf     STATUS, RP1
                          M       endif
                          M PREV_BANK = 1
                          M     endif
                          M 
                          M     if (((R8)    & 180h) == 100h)
                          M       if (PREV_BANK == 0)
                          M         bsf     STATUS, RP1
                          M       endif
                          M       if (PREV_BANK == 1)
                          M         bcf     STATUS, RP0
                          M         bsf     STATUS, RP1
                          M       endif
                          M       if (PREV_BANK == 3)
                          M         bcf     STATUS, RP0
                          M       endif
                          M PREV_BANK = 2
                          M     endif
                          M 
                          M     if (((R8)    & 180h) == 180h)
                          M       if (PREV_BANK == 0)
                          M         bsf     STATUS, RP0
                          M         bsf     STATUS, RP1
                          M       endif
                          M       if (PREV_BANK == 1)
                          M         bsf     STATUS, RP1
                          M       endif
                          M       if (PREV_BANK == 2)
                          M         bsf     STATUS, RP0
                          M       endif
                          M PREV_BANK = 3
                          M     endif
                          M     if (low (low (LCDOUTJ)) == 0)
                          M         clrf    R8
                          M     else
01E2   306A               M         movlw   low (low (LCDOUTJ))
01E3   00B0               M         movwf   R8
MPASM  5.49                      RTCCON~1.ASM   1-27-2021  11:00:41         PAGE 133


LOC  OBJECT CODE     LINE SOURCE TEXT
  VALUE

                          M     endif
                          M         MOVE?CB high (LCDOUTJ), (R8) + 1
                          M         CHK?RP  (R8) + 1
                          M     if ((((R8) + 1) & 180h) == 0)
                          M       if (PREV_BANK == 1)
                          M         bcf     STATUS, RP0
                          M       endif
                          M       if (PREV_BANK == 2)
                          M         bcf     STATUS, RP1
                          M       endif
                          M       if (PREV_BANK == 3)
                          M         bcf     STATUS, RP0
                          M         bcf     STATUS, RP1
                          M       endif
  00000000                M PREV_BANK = 0
                          M     endif
                          M 
                          M     if ((((R8) + 1) & 180h) == 80h)
                          M       if (PREV_BANK == 0)
                          M         bsf     STATUS, RP0
                          M       endif
                          M       if (PREV_BANK == 2)
                          M         bsf     STATUS, RP0
                          M         bcf     STATUS, RP1
                          M       endif
                          M       if (PREV_BANK == 3)
                          M         bcf     STATUS, RP1
                          M       endif
                          M PREV_BANK = 1
                          M     endif
                          M 
                          M     if ((((R8) + 1) & 180h) == 100h)
                          M       if (PREV_BANK == 0)
                          M         bsf     STATUS, RP1
                          M       endif
                          M       if (PREV_BANK == 1)
                          M         bcf     STATUS, RP0
                          M         bsf     STATUS, RP1
                          M       endif
                          M       if (PREV_BANK == 3)
                          M         bcf     STATUS, RP0
                          M       endif
                          M PREV_BANK = 2
                          M     endif
                          M 
                          M     if ((((R8) + 1) & 180h) == 180h)
                          M       if (PREV_BANK == 0)
                          M         bsf     STATUS, RP0
                          M         bsf     STATUS, RP1
                          M       endif
                          M       if (PREV_BANK == 1)
                          M         bsf     STATUS, RP1
                          M       endif
MPASM  5.49                      RTCCON~1.ASM   1-27-2021  11:00:41         PAGE 134


LOC  OBJECT CODE     LINE SOURCE TEXT
  VALUE

                          M       if (PREV_BANK == 2)
                          M         bsf     STATUS, RP0
                          M       endif
                          M PREV_BANK = 3
                          M     endif
                          M     if (low (high (LCDOUTJ)) == 0)
01E4   01B1               M         clrf    (R8) + 1
                          M     else
                          M         movlw   low (high (LCDOUTJ))
                          M         movwf   (R8) + 1
                          M     endif
                          M         L?CALL  SEROUT2HEX
                          M         RST?RP
                          M     if ((PREV_BANK & 1) != 0)
                          M         bcf     STATUS, RP0
                          M     endif
                          M     if ((PREV_BANK & 2) != 0)
                          M         bcf     STATUS, RP1
                          M     endif
  00000000                M PREV_BANK = 0
                          M 
                          M     if ((SEROUT2HEX) < 1)
                          M       if (CODE_SIZE >= 4)
                          M         if (((SEROUT2HEX) & 800h) == 0)
                          M         bcf     PCLATH, 3
                          M         else
                          M         bsf     PCLATH, 3
                          M         endif
                          M       endif
                          M       if (CODE_SIZE == 8)
                          M         if (((SEROUT2HEX) & 1000h) == 0)
                          M         bcf     PCLATH, 4
                          M         else
                          M         bsf     PCLATH, 4
                          M         endif
                          M       endif
                          M     else
                          M       if ((SEROUT2HEX) > $)
                          M         if (CODE_SIZE >= 4)
                          M           if (((SEROUT2HEX) & 800h) == 0)
                          M         bcf     PCLATH, 3
                          M           else
                          M         bsf     PCLATH, 3
                          M           endif
                          M         endif
                          M         if (CODE_SIZE == 8)
                          M           if (((SEROUT2HEX) & 1000h) == 0)
                          M         bcf     PCLATH, 4
                          M           else
                          M         bsf     PCLATH, 4
                          M           endif
                          M         endif
                          M       else
MPASM  5.49                      RTCCON~1.ASM   1-27-2021  11:00:41         PAGE 135


LOC  OBJECT CODE     LINE SOURCE TEXT
  VALUE

                          M         if (CODE_SIZE >= 4)
                          M           if (((SEROUT2HEX) & 1800h) == 0)
                          M         clrf    PCLATH
                          M           else
                          M             if (((SEROUT2HEX) & 800h) == 0)
                          M         bcf     PCLATH, 3
                          M             else
                          M         bsf     PCLATH, 3
                          M             endif
                          M             if (CODE_SIZE == 8)
                          M               if (((SEROUT2HEX) & 1000h) == 0)
                          M         bcf     PCLATH, 4
                          M               else
                          M         bsf     PCLATH, 4
                          M               endif
                          M             endif
                          M           endif
                          M         endif
                          M       endif
                          M     endif
                          M 
01E5   20BA               M         call    SEROUT2HEX
                      00151         LCDOUT?C        02Fh
01E6   302F               M         movlw   02Fh
                          M         L?CALL  LCDOUT
                          M         RST?RP
                          M     if ((PREV_BANK & 1) != 0)
                          M         bcf     STATUS, RP0
                          M     endif
                          M     if ((PREV_BANK & 2) != 0)
                          M         bcf     STATUS, RP1
                          M     endif
  00000000                M PREV_BANK = 0
                          M 
                          M     if ((LCDOUT) < 1)
                          M       if (CODE_SIZE >= 4)
                          M         if (((LCDOUT) & 800h) == 0)
                          M         bcf     PCLATH, 3
                          M         else
                          M         bsf     PCLATH, 3
                          M         endif
                          M       endif
                          M       if (CODE_SIZE == 8)
                          M         if (((LCDOUT) & 1000h) == 0)
                          M         bcf     PCLATH, 4
                          M         else
                          M         bsf     PCLATH, 4
                          M         endif
                          M       endif
                          M     else
                          M       if ((LCDOUT) > $)
                          M         if (CODE_SIZE >= 4)
                          M           if (((LCDOUT) & 800h) == 0)
MPASM  5.49                      RTCCON~1.ASM   1-27-2021  11:00:41         PAGE 136


LOC  OBJECT CODE     LINE SOURCE TEXT
  VALUE

                          M         bcf     PCLATH, 3
                          M           else
                          M         bsf     PCLATH, 3
                          M           endif
                          M         endif
                          M         if (CODE_SIZE == 8)
                          M           if (((LCDOUT) & 1000h) == 0)
                          M         bcf     PCLATH, 4
                          M           else
                          M         bsf     PCLATH, 4
                          M           endif
                          M         endif
                          M       else
                          M         if (CODE_SIZE >= 4)
                          M           if (((LCDOUT) & 1800h) == 0)
                          M         clrf    PCLATH
                          M           else
                          M             if (((LCDOUT) & 800h) == 0)
                          M         bcf     PCLATH, 3
                          M             else
                          M         bsf     PCLATH, 3
                          M             endif
                          M             if (CODE_SIZE == 8)
                          M               if (((LCDOUT) & 1000h) == 0)
                          M         bcf     PCLATH, 4
                          M               else
                          M         bsf     PCLATH, 4
                          M               endif
                          M             endif
                          M           endif
                          M         endif
                          M       endif
                          M     endif
                          M 
01E7   206B               M         call    LCDOUT
                      00152         CMPNE?BCL       _mes, 001h, L00015
                          M     if (((001h) > -100h) & ((001h) < 100h))
                          M         CLRWDT?
                          M     ifndef NO_CLRWDT
01E8   0064               M         clrwdt
                          M     endif
                          M         MOVE?BA _mes
                          M         CHK?RP  _mes
                          M     if (((_mes)  & 180h) == 0)
                          M       if (PREV_BANK == 1)
                          M         bcf     STATUS, RP0
                          M       endif
                          M       if (PREV_BANK == 2)
                          M         bcf     STATUS, RP1
                          M       endif
                          M       if (PREV_BANK == 3)
                          M         bcf     STATUS, RP0
                          M         bcf     STATUS, RP1
MPASM  5.49                      RTCCON~1.ASM   1-27-2021  11:00:41         PAGE 137


LOC  OBJECT CODE     LINE SOURCE TEXT
  VALUE

                          M       endif
  00000000                M PREV_BANK = 0
                          M     endif
                          M 
                          M     if (((_mes)  & 180h) == 80h)
                          M       if (PREV_BANK == 0)
                          M         bsf     STATUS, RP0
                          M       endif
                          M       if (PREV_BANK == 2)
                          M         bsf     STATUS, RP0
                          M         bcf     STATUS, RP1
                          M       endif
                          M       if (PREV_BANK == 3)
                          M         bcf     STATUS, RP1
                          M       endif
                          M PREV_BANK = 1
                          M     endif
                          M 
                          M     if (((_mes)  & 180h) == 100h)
                          M       if (PREV_BANK == 0)
                          M         bsf     STATUS, RP1
                          M       endif
                          M       if (PREV_BANK == 1)
                          M         bcf     STATUS, RP0
                          M         bsf     STATUS, RP1
                          M       endif
                          M       if (PREV_BANK == 3)
                          M         bcf     STATUS, RP0
                          M       endif
                          M PREV_BANK = 2
                          M     endif
                          M 
                          M     if (((_mes)  & 180h) == 180h)
                          M       if (PREV_BANK == 0)
                          M         bsf     STATUS, RP0
                          M         bsf     STATUS, RP1
                          M       endif
                          M       if (PREV_BANK == 1)
                          M         bsf     STATUS, RP1
                          M       endif
                          M       if (PREV_BANK == 2)
                          M         bsf     STATUS, RP0
                          M       endif
                          M PREV_BANK = 3
                          M     endif
01E9   083C               M         movf    _mes, W
01EA   3C01               M         sublw   001h
                          M         BIT?GOTO 0, STATUS, Z, L00015
                          M     if ($ == (L00015))
                          M         CLRWDT?
                          M     endif
                          M 
                          M     if (CODE_SIZE >= 4)
MPASM  5.49                      RTCCON~1.ASM   1-27-2021  11:00:41         PAGE 138


LOC  OBJECT CODE     LINE SOURCE TEXT
  VALUE

                          M       if (((L00015) & 800h) == 0)
                          M         bcf     PCLATH, 3
                          M       else
                          M         bsf     PCLATH, 3
                          M       endif
                          M     endif
                          M     if (CODE_SIZE == 8)
                          M       if (((L00015) & 1000h) == 0)
                          M         bcf     PCLATH, 4
                          M       else
                          M         bsf     PCLATH, 4
                          M       endif
                          M     endif
                          M 
                          M     if (((STATUS) & 0ff80h) != 0)
                          M         CHK?RP  STATUS
                          M         bcf     STATUS, DC
                          M       if ((0)      == 0)
                          M         btfss   STATUS, Z
                          M       else
                          M         btfsc   STATUS, Z
                          M       endif
                          M         bsf     STATUS, DC
                          M         RST?RP
                          M         btfsc   STATUS, DC
                          M     else
                          M         RST?RP
                          M     if ((PREV_BANK & 1) != 0)
                          M         bcf     STATUS, RP0
                          M     endif
                          M     if ((PREV_BANK & 2) != 0)
                          M         bcf     STATUS, RP1
                          M     endif
  00000000                M PREV_BANK = 0
                          M       if ((0)      == 0)
01EB   1D03               M         btfss   STATUS, Z
                          M       else
                          M         btfsc   STATUS, Z
                          M       endif
                          M     endif
                          M 
01EC   29F3               M         goto    L00015
                          M     else
                          M         L?GOTO  L00015
                          M     endif
                      00153         LCDOUT?C        065h
01ED   3065               M         movlw   065h
                          M         L?CALL  LCDOUT
                          M         RST?RP
                          M     if ((PREV_BANK & 1) != 0)
                          M         bcf     STATUS, RP0
                          M     endif
                          M     if ((PREV_BANK & 2) != 0)
MPASM  5.49                      RTCCON~1.ASM   1-27-2021  11:00:41         PAGE 139


LOC  OBJECT CODE     LINE SOURCE TEXT
  VALUE

                          M         bcf     STATUS, RP1
                          M     endif
  00000000                M PREV_BANK = 0
                          M 
                          M     if ((LCDOUT) < 1)
                          M       if (CODE_SIZE >= 4)
                          M         if (((LCDOUT) & 800h) == 0)
                          M         bcf     PCLATH, 3
                          M         else
                          M         bsf     PCLATH, 3
                          M         endif
                          M       endif
                          M       if (CODE_SIZE == 8)
                          M         if (((LCDOUT) & 1000h) == 0)
                          M         bcf     PCLATH, 4
                          M         else
                          M         bsf     PCLATH, 4
                          M         endif
                          M       endif
                          M     else
                          M       if ((LCDOUT) > $)
                          M         if (CODE_SIZE >= 4)
                          M           if (((LCDOUT) & 800h) == 0)
                          M         bcf     PCLATH, 3
                          M           else
                          M         bsf     PCLATH, 3
                          M           endif
                          M         endif
                          M         if (CODE_SIZE == 8)
                          M           if (((LCDOUT) & 1000h) == 0)
                          M         bcf     PCLATH, 4
                          M           else
                          M         bsf     PCLATH, 4
                          M           endif
                          M         endif
                          M       else
                          M         if (CODE_SIZE >= 4)
                          M           if (((LCDOUT) & 1800h) == 0)
                          M         clrf    PCLATH
                          M           else
                          M             if (((LCDOUT) & 800h) == 0)
                          M         bcf     PCLATH, 3
                          M             else
                          M         bsf     PCLATH, 3
                          M             endif
                          M             if (CODE_SIZE == 8)
                          M               if (((LCDOUT) & 1000h) == 0)
                          M         bcf     PCLATH, 4
                          M               else
                          M         bsf     PCLATH, 4
                          M               endif
                          M             endif
                          M           endif
MPASM  5.49                      RTCCON~1.ASM   1-27-2021  11:00:41         PAGE 140


LOC  OBJECT CODE     LINE SOURCE TEXT
  VALUE

                          M         endif
                          M       endif
                          M     endif
                          M 
01EE   206B               M         call    LCDOUT
                      00154         LCDOUT?C        06Eh
01EF   306E               M         movlw   06Eh
                          M         L?CALL  LCDOUT
                          M         RST?RP
                          M     if ((PREV_BANK & 1) != 0)
                          M         bcf     STATUS, RP0
                          M     endif
                          M     if ((PREV_BANK & 2) != 0)
                          M         bcf     STATUS, RP1
                          M     endif
  00000000                M PREV_BANK = 0
                          M 
                          M     if ((LCDOUT) < 1)
                          M       if (CODE_SIZE >= 4)
                          M         if (((LCDOUT) & 800h) == 0)
                          M         bcf     PCLATH, 3
                          M         else
                          M         bsf     PCLATH, 3
                          M         endif
                          M       endif
                          M       if (CODE_SIZE == 8)
                          M         if (((LCDOUT) & 1000h) == 0)
                          M         bcf     PCLATH, 4
                          M         else
                          M         bsf     PCLATH, 4
                          M         endif
                          M       endif
                          M     else
                          M       if ((LCDOUT) > $)
                          M         if (CODE_SIZE >= 4)
                          M           if (((LCDOUT) & 800h) == 0)
                          M         bcf     PCLATH, 3
                          M           else
                          M         bsf     PCLATH, 3
                          M           endif
                          M         endif
                          M         if (CODE_SIZE == 8)
                          M           if (((LCDOUT) & 1000h) == 0)
                          M         bcf     PCLATH, 4
                          M           else
                          M         bsf     PCLATH, 4
                          M           endif
                          M         endif
                          M       else
                          M         if (CODE_SIZE >= 4)
                          M           if (((LCDOUT) & 1800h) == 0)
                          M         clrf    PCLATH
                          M           else
MPASM  5.49                      RTCCON~1.ASM   1-27-2021  11:00:41         PAGE 141


LOC  OBJECT CODE     LINE SOURCE TEXT
  VALUE

                          M             if (((LCDOUT) & 800h) == 0)
                          M         bcf     PCLATH, 3
                          M             else
                          M         bsf     PCLATH, 3
                          M             endif
                          M             if (CODE_SIZE == 8)
                          M               if (((LCDOUT) & 1000h) == 0)
                          M         bcf     PCLATH, 4
                          M               else
                          M         bsf     PCLATH, 4
                          M               endif
                          M             endif
                          M           endif
                          M         endif
                          M       endif
                          M     endif
                          M 
01F0   206B               M         call    LCDOUT
                      00155         LCDOUT?C        065h
01F1   3065               M         movlw   065h
                          M         L?CALL  LCDOUT
                          M         RST?RP
                          M     if ((PREV_BANK & 1) != 0)
                          M         bcf     STATUS, RP0
                          M     endif
                          M     if ((PREV_BANK & 2) != 0)
                          M         bcf     STATUS, RP1
                          M     endif
  00000000                M PREV_BANK = 0
                          M 
                          M     if ((LCDOUT) < 1)
                          M       if (CODE_SIZE >= 4)
                          M         if (((LCDOUT) & 800h) == 0)
                          M         bcf     PCLATH, 3
                          M         else
                          M         bsf     PCLATH, 3
                          M         endif
                          M       endif
                          M       if (CODE_SIZE == 8)
                          M         if (((LCDOUT) & 1000h) == 0)
                          M         bcf     PCLATH, 4
                          M         else
                          M         bsf     PCLATH, 4
                          M         endif
                          M       endif
                          M     else
                          M       if ((LCDOUT) > $)
                          M         if (CODE_SIZE >= 4)
                          M           if (((LCDOUT) & 800h) == 0)
                          M         bcf     PCLATH, 3
                          M           else
                          M         bsf     PCLATH, 3
                          M           endif
MPASM  5.49                      RTCCON~1.ASM   1-27-2021  11:00:41         PAGE 142


LOC  OBJECT CODE     LINE SOURCE TEXT
  VALUE

                          M         endif
                          M         if (CODE_SIZE == 8)
                          M           if (((LCDOUT) & 1000h) == 0)
                          M         bcf     PCLATH, 4
                          M           else
                          M         bsf     PCLATH, 4
                          M           endif
                          M         endif
                          M       else
                          M         if (CODE_SIZE >= 4)
                          M           if (((LCDOUT) & 1800h) == 0)
                          M         clrf    PCLATH
                          M           else
                          M             if (((LCDOUT) & 800h) == 0)
                          M         bcf     PCLATH, 3
                          M             else
                          M         bsf     PCLATH, 3
                          M             endif
                          M             if (CODE_SIZE == 8)
                          M               if (((LCDOUT) & 1000h) == 0)
                          M         bcf     PCLATH, 4
                          M               else
                          M         bsf     PCLATH, 4
                          M               endif
                          M             endif
                          M           endif
                          M         endif
                          M       endif
                          M     endif
                          M 
01F2   206B               M         call    LCDOUT
                      00156         LABEL?L L00015  
                          M         RST?RP
                          M     if ((PREV_BANK & 1) != 0)
                          M         bcf     STATUS, RP0
                          M     endif
                          M     if ((PREV_BANK & 2) != 0)
                          M         bcf     STATUS, RP1
                          M     endif
  00000000                M PREV_BANK = 0
                          M     ifdef PM_USED
                          M         LALL
                          M L00015
                          M         XALL
                          M     else
01F3                      M L00015
                          M     endif
                      00157         CMPNE?BCL       _mes, 002h, L00017
                          M     if (((002h) > -100h) & ((002h) < 100h))
                          M         CLRWDT?
                          M     ifndef NO_CLRWDT
01F3   0064               M         clrwdt
                          M     endif
MPASM  5.49                      RTCCON~1.ASM   1-27-2021  11:00:41         PAGE 143


LOC  OBJECT CODE     LINE SOURCE TEXT
  VALUE

                          M         MOVE?BA _mes
                          M         CHK?RP  _mes
                          M     if (((_mes)  & 180h) == 0)
                          M       if (PREV_BANK == 1)
                          M         bcf     STATUS, RP0
                          M       endif
                          M       if (PREV_BANK == 2)
                          M         bcf     STATUS, RP1
                          M       endif
                          M       if (PREV_BANK == 3)
                          M         bcf     STATUS, RP0
                          M         bcf     STATUS, RP1
                          M       endif
  00000000                M PREV_BANK = 0
                          M     endif
                          M 
                          M     if (((_mes)  & 180h) == 80h)
                          M       if (PREV_BANK == 0)
                          M         bsf     STATUS, RP0
                          M       endif
                          M       if (PREV_BANK == 2)
                          M         bsf     STATUS, RP0
                          M         bcf     STATUS, RP1
                          M       endif
                          M       if (PREV_BANK == 3)
                          M         bcf     STATUS, RP1
                          M       endif
                          M PREV_BANK = 1
                          M     endif
                          M 
                          M     if (((_mes)  & 180h) == 100h)
                          M       if (PREV_BANK == 0)
                          M         bsf     STATUS, RP1
                          M       endif
                          M       if (PREV_BANK == 1)
                          M         bcf     STATUS, RP0
                          M         bsf     STATUS, RP1
                          M       endif
                          M       if (PREV_BANK == 3)
                          M         bcf     STATUS, RP0
                          M       endif
                          M PREV_BANK = 2
                          M     endif
                          M 
                          M     if (((_mes)  & 180h) == 180h)
                          M       if (PREV_BANK == 0)
                          M         bsf     STATUS, RP0
                          M         bsf     STATUS, RP1
                          M       endif
                          M       if (PREV_BANK == 1)
                          M         bsf     STATUS, RP1
                          M       endif
                          M       if (PREV_BANK == 2)
MPASM  5.49                      RTCCON~1.ASM   1-27-2021  11:00:41         PAGE 144


LOC  OBJECT CODE     LINE SOURCE TEXT
  VALUE

                          M         bsf     STATUS, RP0
                          M       endif
                          M PREV_BANK = 3
                          M     endif
01F4   083C               M         movf    _mes, W
01F5   3C02               M         sublw   002h
                          M         BIT?GOTO 0, STATUS, Z, L00017
                          M     if ($ == (L00017))
                          M         CLRWDT?
                          M     endif
                          M 
                          M     if (CODE_SIZE >= 4)
                          M       if (((L00017) & 800h) == 0)
                          M         bcf     PCLATH, 3
                          M       else
                          M         bsf     PCLATH, 3
                          M       endif
                          M     endif
                          M     if (CODE_SIZE == 8)
                          M       if (((L00017) & 1000h) == 0)
                          M         bcf     PCLATH, 4
                          M       else
                          M         bsf     PCLATH, 4
                          M       endif
                          M     endif
                          M 
                          M     if (((STATUS) & 0ff80h) != 0)
                          M         CHK?RP  STATUS
                          M         bcf     STATUS, DC
                          M       if ((0)      == 0)
                          M         btfss   STATUS, Z
                          M       else
                          M         btfsc   STATUS, Z
                          M       endif
                          M         bsf     STATUS, DC
                          M         RST?RP
                          M         btfsc   STATUS, DC
                          M     else
                          M         RST?RP
                          M     if ((PREV_BANK & 1) != 0)
                          M         bcf     STATUS, RP0
                          M     endif
                          M     if ((PREV_BANK & 2) != 0)
                          M         bcf     STATUS, RP1
                          M     endif
  00000000                M PREV_BANK = 0
                          M       if ((0)      == 0)
01F6   1D03               M         btfss   STATUS, Z
                          M       else
                          M         btfsc   STATUS, Z
                          M       endif
                          M     endif
                          M 
MPASM  5.49                      RTCCON~1.ASM   1-27-2021  11:00:41         PAGE 145


LOC  OBJECT CODE     LINE SOURCE TEXT
  VALUE

01F7   29FE               M         goto    L00017
                          M     else
                          M         L?GOTO  L00017
                          M     endif
                      00158         LCDOUT?C        066h
01F8   3066               M         movlw   066h
                          M         L?CALL  LCDOUT
                          M         RST?RP
                          M     if ((PREV_BANK & 1) != 0)
                          M         bcf     STATUS, RP0
                          M     endif
                          M     if ((PREV_BANK & 2) != 0)
                          M         bcf     STATUS, RP1
                          M     endif
  00000000                M PREV_BANK = 0
                          M 
                          M     if ((LCDOUT) < 1)
                          M       if (CODE_SIZE >= 4)
                          M         if (((LCDOUT) & 800h) == 0)
                          M         bcf     PCLATH, 3
                          M         else
                          M         bsf     PCLATH, 3
                          M         endif
                          M       endif
                          M       if (CODE_SIZE == 8)
                          M         if (((LCDOUT) & 1000h) == 0)
                          M         bcf     PCLATH, 4
                          M         else
                          M         bsf     PCLATH, 4
                          M         endif
                          M       endif
                          M     else
                          M       if ((LCDOUT) > $)
                          M         if (CODE_SIZE >= 4)
                          M           if (((LCDOUT) & 800h) == 0)
                          M         bcf     PCLATH, 3
                          M           else
                          M         bsf     PCLATH, 3
                          M           endif
                          M         endif
                          M         if (CODE_SIZE == 8)
                          M           if (((LCDOUT) & 1000h) == 0)
                          M         bcf     PCLATH, 4
                          M           else
                          M         bsf     PCLATH, 4
                          M           endif
                          M         endif
                          M       else
                          M         if (CODE_SIZE >= 4)
                          M           if (((LCDOUT) & 1800h) == 0)
                          M         clrf    PCLATH
                          M           else
                          M             if (((LCDOUT) & 800h) == 0)
MPASM  5.49                      RTCCON~1.ASM   1-27-2021  11:00:41         PAGE 146


LOC  OBJECT CODE     LINE SOURCE TEXT
  VALUE

                          M         bcf     PCLATH, 3
                          M             else
                          M         bsf     PCLATH, 3
                          M             endif
                          M             if (CODE_SIZE == 8)
                          M               if (((LCDOUT) & 1000h) == 0)
                          M         bcf     PCLATH, 4
                          M               else
                          M         bsf     PCLATH, 4
                          M               endif
                          M             endif
                          M           endif
                          M         endif
                          M       endif
                          M     endif
                          M 
01F9   206B               M         call    LCDOUT
                      00159         LCDOUT?C        065h
01FA   3065               M         movlw   065h
                          M         L?CALL  LCDOUT
                          M         RST?RP
                          M     if ((PREV_BANK & 1) != 0)
                          M         bcf     STATUS, RP0
                          M     endif
                          M     if ((PREV_BANK & 2) != 0)
                          M         bcf     STATUS, RP1
                          M     endif
  00000000                M PREV_BANK = 0
                          M 
                          M     if ((LCDOUT) < 1)
                          M       if (CODE_SIZE >= 4)
                          M         if (((LCDOUT) & 800h) == 0)
                          M         bcf     PCLATH, 3
                          M         else
                          M         bsf     PCLATH, 3
                          M         endif
                          M       endif
                          M       if (CODE_SIZE == 8)
                          M         if (((LCDOUT) & 1000h) == 0)
                          M         bcf     PCLATH, 4
                          M         else
                          M         bsf     PCLATH, 4
                          M         endif
                          M       endif
                          M     else
                          M       if ((LCDOUT) > $)
                          M         if (CODE_SIZE >= 4)
                          M           if (((LCDOUT) & 800h) == 0)
                          M         bcf     PCLATH, 3
                          M           else
                          M         bsf     PCLATH, 3
                          M           endif
                          M         endif
MPASM  5.49                      RTCCON~1.ASM   1-27-2021  11:00:41         PAGE 147


LOC  OBJECT CODE     LINE SOURCE TEXT
  VALUE

                          M         if (CODE_SIZE == 8)
                          M           if (((LCDOUT) & 1000h) == 0)
                          M         bcf     PCLATH, 4
                          M           else
                          M         bsf     PCLATH, 4
                          M           endif
                          M         endif
                          M       else
                          M         if (CODE_SIZE >= 4)
                          M           if (((LCDOUT) & 1800h) == 0)
                          M         clrf    PCLATH
                          M           else
                          M             if (((LCDOUT) & 800h) == 0)
                          M         bcf     PCLATH, 3
                          M             else
                          M         bsf     PCLATH, 3
                          M             endif
                          M             if (CODE_SIZE == 8)
                          M               if (((LCDOUT) & 1000h) == 0)
                          M         bcf     PCLATH, 4
                          M               else
                          M         bsf     PCLATH, 4
                          M               endif
                          M             endif
                          M           endif
                          M         endif
                          M       endif
                          M     endif
                          M 
01FB   206B               M         call    LCDOUT
                      00160         LCDOUT?C        062h
01FC   3062               M         movlw   062h
                          M         L?CALL  LCDOUT
                          M         RST?RP
                          M     if ((PREV_BANK & 1) != 0)
                          M         bcf     STATUS, RP0
                          M     endif
                          M     if ((PREV_BANK & 2) != 0)
                          M         bcf     STATUS, RP1
                          M     endif
  00000000                M PREV_BANK = 0
                          M 
                          M     if ((LCDOUT) < 1)
                          M       if (CODE_SIZE >= 4)
                          M         if (((LCDOUT) & 800h) == 0)
                          M         bcf     PCLATH, 3
                          M         else
                          M         bsf     PCLATH, 3
                          M         endif
                          M       endif
                          M       if (CODE_SIZE == 8)
                          M         if (((LCDOUT) & 1000h) == 0)
                          M         bcf     PCLATH, 4
MPASM  5.49                      RTCCON~1.ASM   1-27-2021  11:00:41         PAGE 148


LOC  OBJECT CODE     LINE SOURCE TEXT
  VALUE

                          M         else
                          M         bsf     PCLATH, 4
                          M         endif
                          M       endif
                          M     else
                          M       if ((LCDOUT) > $)
                          M         if (CODE_SIZE >= 4)
                          M           if (((LCDOUT) & 800h) == 0)
                          M         bcf     PCLATH, 3
                          M           else
                          M         bsf     PCLATH, 3
                          M           endif
                          M         endif
                          M         if (CODE_SIZE == 8)
                          M           if (((LCDOUT) & 1000h) == 0)
                          M         bcf     PCLATH, 4
                          M           else
                          M         bsf     PCLATH, 4
                          M           endif
                          M         endif
                          M       else
                          M         if (CODE_SIZE >= 4)
                          M           if (((LCDOUT) & 1800h) == 0)
                          M         clrf    PCLATH
                          M           else
                          M             if (((LCDOUT) & 800h) == 0)
                          M         bcf     PCLATH, 3
                          M             else
                          M         bsf     PCLATH, 3
                          M             endif
                          M             if (CODE_SIZE == 8)
                          M               if (((LCDOUT) & 1000h) == 0)
                          M         bcf     PCLATH, 4
                          M               else
                          M         bsf     PCLATH, 4
                          M               endif
                          M             endif
                          M           endif
                          M         endif
                          M       endif
                          M     endif
                          M 
01FD   206B               M         call    LCDOUT
                      00161         LABEL?L L00017  
                          M         RST?RP
                          M     if ((PREV_BANK & 1) != 0)
                          M         bcf     STATUS, RP0
                          M     endif
                          M     if ((PREV_BANK & 2) != 0)
                          M         bcf     STATUS, RP1
                          M     endif
  00000000                M PREV_BANK = 0
                          M     ifdef PM_USED
MPASM  5.49                      RTCCON~1.ASM   1-27-2021  11:00:41         PAGE 149


LOC  OBJECT CODE     LINE SOURCE TEXT
  VALUE

                          M         LALL
                          M L00017
                          M         XALL
                          M     else
01FE                      M L00017
                          M     endif
                      00162         CMPNE?BCL       _mes, 003h, L00019
                          M     if (((003h) > -100h) & ((003h) < 100h))
                          M         CLRWDT?
                          M     ifndef NO_CLRWDT
01FE   0064               M         clrwdt
                          M     endif
                          M         MOVE?BA _mes
                          M         CHK?RP  _mes
                          M     if (((_mes)  & 180h) == 0)
                          M       if (PREV_BANK == 1)
                          M         bcf     STATUS, RP0
                          M       endif
                          M       if (PREV_BANK == 2)
                          M         bcf     STATUS, RP1
                          M       endif
                          M       if (PREV_BANK == 3)
                          M         bcf     STATUS, RP0
                          M         bcf     STATUS, RP1
                          M       endif
  00000000                M PREV_BANK = 0
                          M     endif
                          M 
                          M     if (((_mes)  & 180h) == 80h)
                          M       if (PREV_BANK == 0)
                          M         bsf     STATUS, RP0
                          M       endif
                          M       if (PREV_BANK == 2)
                          M         bsf     STATUS, RP0
                          M         bcf     STATUS, RP1
                          M       endif
                          M       if (PREV_BANK == 3)
                          M         bcf     STATUS, RP1
                          M       endif
                          M PREV_BANK = 1
                          M     endif
                          M 
                          M     if (((_mes)  & 180h) == 100h)
                          M       if (PREV_BANK == 0)
                          M         bsf     STATUS, RP1
                          M       endif
                          M       if (PREV_BANK == 1)
                          M         bcf     STATUS, RP0
                          M         bsf     STATUS, RP1
                          M       endif
                          M       if (PREV_BANK == 3)
                          M         bcf     STATUS, RP0
                          M       endif
MPASM  5.49                      RTCCON~1.ASM   1-27-2021  11:00:41         PAGE 150


LOC  OBJECT CODE     LINE SOURCE TEXT
  VALUE

                          M PREV_BANK = 2
                          M     endif
                          M 
                          M     if (((_mes)  & 180h) == 180h)
                          M       if (PREV_BANK == 0)
                          M         bsf     STATUS, RP0
                          M         bsf     STATUS, RP1
                          M       endif
                          M       if (PREV_BANK == 1)
                          M         bsf     STATUS, RP1
                          M       endif
                          M       if (PREV_BANK == 2)
                          M         bsf     STATUS, RP0
                          M       endif
                          M PREV_BANK = 3
                          M     endif
01FF   083C               M         movf    _mes, W
0200   3C03               M         sublw   003h
                          M         BIT?GOTO 0, STATUS, Z, L00019
                          M     if ($ == (L00019))
                          M         CLRWDT?
                          M     endif
                          M 
                          M     if (CODE_SIZE >= 4)
                          M       if (((L00019) & 800h) == 0)
                          M         bcf     PCLATH, 3
                          M       else
                          M         bsf     PCLATH, 3
                          M       endif
                          M     endif
                          M     if (CODE_SIZE == 8)
                          M       if (((L00019) & 1000h) == 0)
                          M         bcf     PCLATH, 4
                          M       else
                          M         bsf     PCLATH, 4
                          M       endif
                          M     endif
                          M 
                          M     if (((STATUS) & 0ff80h) != 0)
                          M         CHK?RP  STATUS
                          M         bcf     STATUS, DC
                          M       if ((0)      == 0)
                          M         btfss   STATUS, Z
                          M       else
                          M         btfsc   STATUS, Z
                          M       endif
                          M         bsf     STATUS, DC
                          M         RST?RP
                          M         btfsc   STATUS, DC
                          M     else
                          M         RST?RP
                          M     if ((PREV_BANK & 1) != 0)
                          M         bcf     STATUS, RP0
MPASM  5.49                      RTCCON~1.ASM   1-27-2021  11:00:41         PAGE 151


LOC  OBJECT CODE     LINE SOURCE TEXT
  VALUE

                          M     endif
                          M     if ((PREV_BANK & 2) != 0)
                          M         bcf     STATUS, RP1
                          M     endif
  00000000                M PREV_BANK = 0
                          M       if ((0)      == 0)
0201   1D03               M         btfss   STATUS, Z
                          M       else
                          M         btfsc   STATUS, Z
                          M       endif
                          M     endif
                          M 
0202   2A09               M         goto    L00019
                          M     else
                          M         L?GOTO  L00019
                          M     endif
                      00163         LCDOUT?C        06Dh
0203   306D               M         movlw   06Dh
                          M         L?CALL  LCDOUT
                          M         RST?RP
                          M     if ((PREV_BANK & 1) != 0)
                          M         bcf     STATUS, RP0
                          M     endif
                          M     if ((PREV_BANK & 2) != 0)
                          M         bcf     STATUS, RP1
                          M     endif
  00000000                M PREV_BANK = 0
                          M 
                          M     if ((LCDOUT) < 1)
                          M       if (CODE_SIZE >= 4)
                          M         if (((LCDOUT) & 800h) == 0)
                          M         bcf     PCLATH, 3
                          M         else
                          M         bsf     PCLATH, 3
                          M         endif
                          M       endif
                          M       if (CODE_SIZE == 8)
                          M         if (((LCDOUT) & 1000h) == 0)
                          M         bcf     PCLATH, 4
                          M         else
                          M         bsf     PCLATH, 4
                          M         endif
                          M       endif
                          M     else
                          M       if ((LCDOUT) > $)
                          M         if (CODE_SIZE >= 4)
                          M           if (((LCDOUT) & 800h) == 0)
                          M         bcf     PCLATH, 3
                          M           else
                          M         bsf     PCLATH, 3
                          M           endif
                          M         endif
                          M         if (CODE_SIZE == 8)
MPASM  5.49                      RTCCON~1.ASM   1-27-2021  11:00:41         PAGE 152


LOC  OBJECT CODE     LINE SOURCE TEXT
  VALUE

                          M           if (((LCDOUT) & 1000h) == 0)
                          M         bcf     PCLATH, 4
                          M           else
                          M         bsf     PCLATH, 4
                          M           endif
                          M         endif
                          M       else
                          M         if (CODE_SIZE >= 4)
                          M           if (((LCDOUT) & 1800h) == 0)
                          M         clrf    PCLATH
                          M           else
                          M             if (((LCDOUT) & 800h) == 0)
                          M         bcf     PCLATH, 3
                          M             else
                          M         bsf     PCLATH, 3
                          M             endif
                          M             if (CODE_SIZE == 8)
                          M               if (((LCDOUT) & 1000h) == 0)
                          M         bcf     PCLATH, 4
                          M               else
                          M         bsf     PCLATH, 4
                          M               endif
                          M             endif
                          M           endif
                          M         endif
                          M       endif
                          M     endif
                          M 
0204   206B               M         call    LCDOUT
                      00164         LCDOUT?C        061h
0205   3061               M         movlw   061h
                          M         L?CALL  LCDOUT
                          M         RST?RP
                          M     if ((PREV_BANK & 1) != 0)
                          M         bcf     STATUS, RP0
                          M     endif
                          M     if ((PREV_BANK & 2) != 0)
                          M         bcf     STATUS, RP1
                          M     endif
  00000000                M PREV_BANK = 0
                          M 
                          M     if ((LCDOUT) < 1)
                          M       if (CODE_SIZE >= 4)
                          M         if (((LCDOUT) & 800h) == 0)
                          M         bcf     PCLATH, 3
                          M         else
                          M         bsf     PCLATH, 3
                          M         endif
                          M       endif
                          M       if (CODE_SIZE == 8)
                          M         if (((LCDOUT) & 1000h) == 0)
                          M         bcf     PCLATH, 4
                          M         else
MPASM  5.49                      RTCCON~1.ASM   1-27-2021  11:00:41         PAGE 153


LOC  OBJECT CODE     LINE SOURCE TEXT
  VALUE

                          M         bsf     PCLATH, 4
                          M         endif
                          M       endif
                          M     else
                          M       if ((LCDOUT) > $)
                          M         if (CODE_SIZE >= 4)
                          M           if (((LCDOUT) & 800h) == 0)
                          M         bcf     PCLATH, 3
                          M           else
                          M         bsf     PCLATH, 3
                          M           endif
                          M         endif
                          M         if (CODE_SIZE == 8)
                          M           if (((LCDOUT) & 1000h) == 0)
                          M         bcf     PCLATH, 4
                          M           else
                          M         bsf     PCLATH, 4
                          M           endif
                          M         endif
                          M       else
                          M         if (CODE_SIZE >= 4)
                          M           if (((LCDOUT) & 1800h) == 0)
                          M         clrf    PCLATH
                          M           else
                          M             if (((LCDOUT) & 800h) == 0)
                          M         bcf     PCLATH, 3
                          M             else
                          M         bsf     PCLATH, 3
                          M             endif
                          M             if (CODE_SIZE == 8)
                          M               if (((LCDOUT) & 1000h) == 0)
                          M         bcf     PCLATH, 4
                          M               else
                          M         bsf     PCLATH, 4
                          M               endif
                          M             endif
                          M           endif
                          M         endif
                          M       endif
                          M     endif
                          M 
0206   206B               M         call    LCDOUT
                      00165         LCDOUT?C        072h
0207   3072               M         movlw   072h
                          M         L?CALL  LCDOUT
                          M         RST?RP
                          M     if ((PREV_BANK & 1) != 0)
                          M         bcf     STATUS, RP0
                          M     endif
                          M     if ((PREV_BANK & 2) != 0)
                          M         bcf     STATUS, RP1
                          M     endif
  00000000                M PREV_BANK = 0
MPASM  5.49                      RTCCON~1.ASM   1-27-2021  11:00:41         PAGE 154


LOC  OBJECT CODE     LINE SOURCE TEXT
  VALUE

                          M 
                          M     if ((LCDOUT) < 1)
                          M       if (CODE_SIZE >= 4)
                          M         if (((LCDOUT) & 800h) == 0)
                          M         bcf     PCLATH, 3
                          M         else
                          M         bsf     PCLATH, 3
                          M         endif
                          M       endif
                          M       if (CODE_SIZE == 8)
                          M         if (((LCDOUT) & 1000h) == 0)
                          M         bcf     PCLATH, 4
                          M         else
                          M         bsf     PCLATH, 4
                          M         endif
                          M       endif
                          M     else
                          M       if ((LCDOUT) > $)
                          M         if (CODE_SIZE >= 4)
                          M           if (((LCDOUT) & 800h) == 0)
                          M         bcf     PCLATH, 3
                          M           else
                          M         bsf     PCLATH, 3
                          M           endif
                          M         endif
                          M         if (CODE_SIZE == 8)
                          M           if (((LCDOUT) & 1000h) == 0)
                          M         bcf     PCLATH, 4
                          M           else
                          M         bsf     PCLATH, 4
                          M           endif
                          M         endif
                          M       else
                          M         if (CODE_SIZE >= 4)
                          M           if (((LCDOUT) & 1800h) == 0)
                          M         clrf    PCLATH
                          M           else
                          M             if (((LCDOUT) & 800h) == 0)
                          M         bcf     PCLATH, 3
                          M             else
                          M         bsf     PCLATH, 3
                          M             endif
                          M             if (CODE_SIZE == 8)
                          M               if (((LCDOUT) & 1000h) == 0)
                          M         bcf     PCLATH, 4
                          M               else
                          M         bsf     PCLATH, 4
                          M               endif
                          M             endif
                          M           endif
                          M         endif
                          M       endif
                          M     endif
MPASM  5.49                      RTCCON~1.ASM   1-27-2021  11:00:41         PAGE 155


LOC  OBJECT CODE     LINE SOURCE TEXT
  VALUE

                          M 
0208   206B               M         call    LCDOUT
                      00166         LABEL?L L00019  
                          M         RST?RP
                          M     if ((PREV_BANK & 1) != 0)
                          M         bcf     STATUS, RP0
                          M     endif
                          M     if ((PREV_BANK & 2) != 0)
                          M         bcf     STATUS, RP1
                          M     endif
  00000000                M PREV_BANK = 0
                          M     ifdef PM_USED
                          M         LALL
                          M L00019
                          M         XALL
                          M     else
0209                      M L00019
                          M     endif
                      00167         CMPNE?BCL       _mes, 004h, L00021
                          M     if (((004h) > -100h) & ((004h) < 100h))
                          M         CLRWDT?
                          M     ifndef NO_CLRWDT
0209   0064               M         clrwdt
                          M     endif
                          M         MOVE?BA _mes
                          M         CHK?RP  _mes
                          M     if (((_mes)  & 180h) == 0)
                          M       if (PREV_BANK == 1)
                          M         bcf     STATUS, RP0
                          M       endif
                          M       if (PREV_BANK == 2)
                          M         bcf     STATUS, RP1
                          M       endif
                          M       if (PREV_BANK == 3)
                          M         bcf     STATUS, RP0
                          M         bcf     STATUS, RP1
                          M       endif
  00000000                M PREV_BANK = 0
                          M     endif
                          M 
                          M     if (((_mes)  & 180h) == 80h)
                          M       if (PREV_BANK == 0)
                          M         bsf     STATUS, RP0
                          M       endif
                          M       if (PREV_BANK == 2)
                          M         bsf     STATUS, RP0
                          M         bcf     STATUS, RP1
                          M       endif
                          M       if (PREV_BANK == 3)
                          M         bcf     STATUS, RP1
                          M       endif
                          M PREV_BANK = 1
                          M     endif
MPASM  5.49                      RTCCON~1.ASM   1-27-2021  11:00:41         PAGE 156


LOC  OBJECT CODE     LINE SOURCE TEXT
  VALUE

                          M 
                          M     if (((_mes)  & 180h) == 100h)
                          M       if (PREV_BANK == 0)
                          M         bsf     STATUS, RP1
                          M       endif
                          M       if (PREV_BANK == 1)
                          M         bcf     STATUS, RP0
                          M         bsf     STATUS, RP1
                          M       endif
                          M       if (PREV_BANK == 3)
                          M         bcf     STATUS, RP0
                          M       endif
                          M PREV_BANK = 2
                          M     endif
                          M 
                          M     if (((_mes)  & 180h) == 180h)
                          M       if (PREV_BANK == 0)
                          M         bsf     STATUS, RP0
                          M         bsf     STATUS, RP1
                          M       endif
                          M       if (PREV_BANK == 1)
                          M         bsf     STATUS, RP1
                          M       endif
                          M       if (PREV_BANK == 2)
                          M         bsf     STATUS, RP0
                          M       endif
                          M PREV_BANK = 3
                          M     endif
020A   083C               M         movf    _mes, W
020B   3C04               M         sublw   004h
                          M         BIT?GOTO 0, STATUS, Z, L00021
                          M     if ($ == (L00021))
                          M         CLRWDT?
                          M     endif
                          M 
                          M     if (CODE_SIZE >= 4)
                          M       if (((L00021) & 800h) == 0)
                          M         bcf     PCLATH, 3
                          M       else
                          M         bsf     PCLATH, 3
                          M       endif
                          M     endif
                          M     if (CODE_SIZE == 8)
                          M       if (((L00021) & 1000h) == 0)
                          M         bcf     PCLATH, 4
                          M       else
                          M         bsf     PCLATH, 4
                          M       endif
                          M     endif
                          M 
                          M     if (((STATUS) & 0ff80h) != 0)
                          M         CHK?RP  STATUS
                          M         bcf     STATUS, DC
MPASM  5.49                      RTCCON~1.ASM   1-27-2021  11:00:41         PAGE 157


LOC  OBJECT CODE     LINE SOURCE TEXT
  VALUE

                          M       if ((0)      == 0)
                          M         btfss   STATUS, Z
                          M       else
                          M         btfsc   STATUS, Z
                          M       endif
                          M         bsf     STATUS, DC
                          M         RST?RP
                          M         btfsc   STATUS, DC
                          M     else
                          M         RST?RP
                          M     if ((PREV_BANK & 1) != 0)
                          M         bcf     STATUS, RP0
                          M     endif
                          M     if ((PREV_BANK & 2) != 0)
                          M         bcf     STATUS, RP1
                          M     endif
  00000000                M PREV_BANK = 0
                          M       if ((0)      == 0)
020C   1D03               M         btfss   STATUS, Z
                          M       else
                          M         btfsc   STATUS, Z
                          M       endif
                          M     endif
                          M 
020D   2A14               M         goto    L00021
                          M     else
                          M         L?GOTO  L00021
                          M     endif
                      00168         LCDOUT?C        061h
020E   3061               M         movlw   061h
                          M         L?CALL  LCDOUT
                          M         RST?RP
                          M     if ((PREV_BANK & 1) != 0)
                          M         bcf     STATUS, RP0
                          M     endif
                          M     if ((PREV_BANK & 2) != 0)
                          M         bcf     STATUS, RP1
                          M     endif
  00000000                M PREV_BANK = 0
                          M 
                          M     if ((LCDOUT) < 1)
                          M       if (CODE_SIZE >= 4)
                          M         if (((LCDOUT) & 800h) == 0)
                          M         bcf     PCLATH, 3
                          M         else
                          M         bsf     PCLATH, 3
                          M         endif
                          M       endif
                          M       if (CODE_SIZE == 8)
                          M         if (((LCDOUT) & 1000h) == 0)
                          M         bcf     PCLATH, 4
                          M         else
                          M         bsf     PCLATH, 4
MPASM  5.49                      RTCCON~1.ASM   1-27-2021  11:00:41         PAGE 158


LOC  OBJECT CODE     LINE SOURCE TEXT
  VALUE

                          M         endif
                          M       endif
                          M     else
                          M       if ((LCDOUT) > $)
                          M         if (CODE_SIZE >= 4)
                          M           if (((LCDOUT) & 800h) == 0)
                          M         bcf     PCLATH, 3
                          M           else
                          M         bsf     PCLATH, 3
                          M           endif
                          M         endif
                          M         if (CODE_SIZE == 8)
                          M           if (((LCDOUT) & 1000h) == 0)
                          M         bcf     PCLATH, 4
                          M           else
                          M         bsf     PCLATH, 4
                          M           endif
                          M         endif
                          M       else
                          M         if (CODE_SIZE >= 4)
                          M           if (((LCDOUT) & 1800h) == 0)
                          M         clrf    PCLATH
                          M           else
                          M             if (((LCDOUT) & 800h) == 0)
                          M         bcf     PCLATH, 3
                          M             else
                          M         bsf     PCLATH, 3
                          M             endif
                          M             if (CODE_SIZE == 8)
                          M               if (((LCDOUT) & 1000h) == 0)
                          M         bcf     PCLATH, 4
                          M               else
                          M         bsf     PCLATH, 4
                          M               endif
                          M             endif
                          M           endif
                          M         endif
                          M       endif
                          M     endif
                          M 
020F   206B               M         call    LCDOUT
                      00169         LCDOUT?C        062h
0210   3062               M         movlw   062h
                          M         L?CALL  LCDOUT
                          M         RST?RP
                          M     if ((PREV_BANK & 1) != 0)
                          M         bcf     STATUS, RP0
                          M     endif
                          M     if ((PREV_BANK & 2) != 0)
                          M         bcf     STATUS, RP1
                          M     endif
  00000000                M PREV_BANK = 0
                          M 
MPASM  5.49                      RTCCON~1.ASM   1-27-2021  11:00:41         PAGE 159


LOC  OBJECT CODE     LINE SOURCE TEXT
  VALUE

                          M     if ((LCDOUT) < 1)
                          M       if (CODE_SIZE >= 4)
                          M         if (((LCDOUT) & 800h) == 0)
                          M         bcf     PCLATH, 3
                          M         else
                          M         bsf     PCLATH, 3
                          M         endif
                          M       endif
                          M       if (CODE_SIZE == 8)
                          M         if (((LCDOUT) & 1000h) == 0)
                          M         bcf     PCLATH, 4
                          M         else
                          M         bsf     PCLATH, 4
                          M         endif
                          M       endif
                          M     else
                          M       if ((LCDOUT) > $)
                          M         if (CODE_SIZE >= 4)
                          M           if (((LCDOUT) & 800h) == 0)
                          M         bcf     PCLATH, 3
                          M           else
                          M         bsf     PCLATH, 3
                          M           endif
                          M         endif
                          M         if (CODE_SIZE == 8)
                          M           if (((LCDOUT) & 1000h) == 0)
                          M         bcf     PCLATH, 4
                          M           else
                          M         bsf     PCLATH, 4
                          M           endif
                          M         endif
                          M       else
                          M         if (CODE_SIZE >= 4)
                          M           if (((LCDOUT) & 1800h) == 0)
                          M         clrf    PCLATH
                          M           else
                          M             if (((LCDOUT) & 800h) == 0)
                          M         bcf     PCLATH, 3
                          M             else
                          M         bsf     PCLATH, 3
                          M             endif
                          M             if (CODE_SIZE == 8)
                          M               if (((LCDOUT) & 1000h) == 0)
                          M         bcf     PCLATH, 4
                          M               else
                          M         bsf     PCLATH, 4
                          M               endif
                          M             endif
                          M           endif
                          M         endif
                          M       endif
                          M     endif
                          M 
MPASM  5.49                      RTCCON~1.ASM   1-27-2021  11:00:41         PAGE 160


LOC  OBJECT CODE     LINE SOURCE TEXT
  VALUE

0211   206B               M         call    LCDOUT
                      00170         LCDOUT?C        072h
0212   3072               M         movlw   072h
                          M         L?CALL  LCDOUT
                          M         RST?RP
                          M     if ((PREV_BANK & 1) != 0)
                          M         bcf     STATUS, RP0
                          M     endif
                          M     if ((PREV_BANK & 2) != 0)
                          M         bcf     STATUS, RP1
                          M     endif
  00000000                M PREV_BANK = 0
                          M 
                          M     if ((LCDOUT) < 1)
                          M       if (CODE_SIZE >= 4)
                          M         if (((LCDOUT) & 800h) == 0)
                          M         bcf     PCLATH, 3
                          M         else
                          M         bsf     PCLATH, 3
                          M         endif
                          M       endif
                          M       if (CODE_SIZE == 8)
                          M         if (((LCDOUT) & 1000h) == 0)
                          M         bcf     PCLATH, 4
                          M         else
                          M         bsf     PCLATH, 4
                          M         endif
                          M       endif
                          M     else
                          M       if ((LCDOUT) > $)
                          M         if (CODE_SIZE >= 4)
                          M           if (((LCDOUT) & 800h) == 0)
                          M         bcf     PCLATH, 3
                          M           else
                          M         bsf     PCLATH, 3
                          M           endif
                          M         endif
                          M         if (CODE_SIZE == 8)
                          M           if (((LCDOUT) & 1000h) == 0)
                          M         bcf     PCLATH, 4
                          M           else
                          M         bsf     PCLATH, 4
                          M           endif
                          M         endif
                          M       else
                          M         if (CODE_SIZE >= 4)
                          M           if (((LCDOUT) & 1800h) == 0)
                          M         clrf    PCLATH
                          M           else
                          M             if (((LCDOUT) & 800h) == 0)
                          M         bcf     PCLATH, 3
                          M             else
                          M         bsf     PCLATH, 3
MPASM  5.49                      RTCCON~1.ASM   1-27-2021  11:00:41         PAGE 161


LOC  OBJECT CODE     LINE SOURCE TEXT
  VALUE

                          M             endif
                          M             if (CODE_SIZE == 8)
                          M               if (((LCDOUT) & 1000h) == 0)
                          M         bcf     PCLATH, 4
                          M               else
                          M         bsf     PCLATH, 4
                          M               endif
                          M             endif
                          M           endif
                          M         endif
                          M       endif
                          M     endif
                          M 
0213   206B               M         call    LCDOUT
                      00171         LABEL?L L00021  
                          M         RST?RP
                          M     if ((PREV_BANK & 1) != 0)
                          M         bcf     STATUS, RP0
                          M     endif
                          M     if ((PREV_BANK & 2) != 0)
                          M         bcf     STATUS, RP1
                          M     endif
  00000000                M PREV_BANK = 0
                          M     ifdef PM_USED
                          M         LALL
                          M L00021
                          M         XALL
                          M     else
0214                      M L00021
                          M     endif
                      00172         CMPNE?BCL       _mes, 005h, L00023
                          M     if (((005h) > -100h) & ((005h) < 100h))
                          M         CLRWDT?
                          M     ifndef NO_CLRWDT
0214   0064               M         clrwdt
                          M     endif
                          M         MOVE?BA _mes
                          M         CHK?RP  _mes
                          M     if (((_mes)  & 180h) == 0)
                          M       if (PREV_BANK == 1)
                          M         bcf     STATUS, RP0
                          M       endif
                          M       if (PREV_BANK == 2)
                          M         bcf     STATUS, RP1
                          M       endif
                          M       if (PREV_BANK == 3)
                          M         bcf     STATUS, RP0
                          M         bcf     STATUS, RP1
                          M       endif
  00000000                M PREV_BANK = 0
                          M     endif
                          M 
                          M     if (((_mes)  & 180h) == 80h)
MPASM  5.49                      RTCCON~1.ASM   1-27-2021  11:00:41         PAGE 162


LOC  OBJECT CODE     LINE SOURCE TEXT
  VALUE

                          M       if (PREV_BANK == 0)
                          M         bsf     STATUS, RP0
                          M       endif
                          M       if (PREV_BANK == 2)
                          M         bsf     STATUS, RP0
                          M         bcf     STATUS, RP1
                          M       endif
                          M       if (PREV_BANK == 3)
                          M         bcf     STATUS, RP1
                          M       endif
                          M PREV_BANK = 1
                          M     endif
                          M 
                          M     if (((_mes)  & 180h) == 100h)
                          M       if (PREV_BANK == 0)
                          M         bsf     STATUS, RP1
                          M       endif
                          M       if (PREV_BANK == 1)
                          M         bcf     STATUS, RP0
                          M         bsf     STATUS, RP1
                          M       endif
                          M       if (PREV_BANK == 3)
                          M         bcf     STATUS, RP0
                          M       endif
                          M PREV_BANK = 2
                          M     endif
                          M 
                          M     if (((_mes)  & 180h) == 180h)
                          M       if (PREV_BANK == 0)
                          M         bsf     STATUS, RP0
                          M         bsf     STATUS, RP1
                          M       endif
                          M       if (PREV_BANK == 1)
                          M         bsf     STATUS, RP1
                          M       endif
                          M       if (PREV_BANK == 2)
                          M         bsf     STATUS, RP0
                          M       endif
                          M PREV_BANK = 3
                          M     endif
0215   083C               M         movf    _mes, W
0216   3C05               M         sublw   005h
                          M         BIT?GOTO 0, STATUS, Z, L00023
                          M     if ($ == (L00023))
                          M         CLRWDT?
                          M     endif
                          M 
                          M     if (CODE_SIZE >= 4)
                          M       if (((L00023) & 800h) == 0)
                          M         bcf     PCLATH, 3
                          M       else
                          M         bsf     PCLATH, 3
                          M       endif
MPASM  5.49                      RTCCON~1.ASM   1-27-2021  11:00:41         PAGE 163


LOC  OBJECT CODE     LINE SOURCE TEXT
  VALUE

                          M     endif
                          M     if (CODE_SIZE == 8)
                          M       if (((L00023) & 1000h) == 0)
                          M         bcf     PCLATH, 4
                          M       else
                          M         bsf     PCLATH, 4
                          M       endif
                          M     endif
                          M 
                          M     if (((STATUS) & 0ff80h) != 0)
                          M         CHK?RP  STATUS
                          M         bcf     STATUS, DC
                          M       if ((0)      == 0)
                          M         btfss   STATUS, Z
                          M       else
                          M         btfsc   STATUS, Z
                          M       endif
                          M         bsf     STATUS, DC
                          M         RST?RP
                          M         btfsc   STATUS, DC
                          M     else
                          M         RST?RP
                          M     if ((PREV_BANK & 1) != 0)
                          M         bcf     STATUS, RP0
                          M     endif
                          M     if ((PREV_BANK & 2) != 0)
                          M         bcf     STATUS, RP1
                          M     endif
  00000000                M PREV_BANK = 0
                          M       if ((0)      == 0)
0217   1D03               M         btfss   STATUS, Z
                          M       else
                          M         btfsc   STATUS, Z
                          M       endif
                          M     endif
                          M 
0218   2A1F               M         goto    L00023
                          M     else
                          M         L?GOTO  L00023
                          M     endif
                      00173         LCDOUT?C        06Dh
0219   306D               M         movlw   06Dh
                          M         L?CALL  LCDOUT
                          M         RST?RP
                          M     if ((PREV_BANK & 1) != 0)
                          M         bcf     STATUS, RP0
                          M     endif
                          M     if ((PREV_BANK & 2) != 0)
                          M         bcf     STATUS, RP1
                          M     endif
  00000000                M PREV_BANK = 0
                          M 
                          M     if ((LCDOUT) < 1)
MPASM  5.49                      RTCCON~1.ASM   1-27-2021  11:00:41         PAGE 164


LOC  OBJECT CODE     LINE SOURCE TEXT
  VALUE

                          M       if (CODE_SIZE >= 4)
                          M         if (((LCDOUT) & 800h) == 0)
                          M         bcf     PCLATH, 3
                          M         else
                          M         bsf     PCLATH, 3
                          M         endif
                          M       endif
                          M       if (CODE_SIZE == 8)
                          M         if (((LCDOUT) & 1000h) == 0)
                          M         bcf     PCLATH, 4
                          M         else
                          M         bsf     PCLATH, 4
                          M         endif
                          M       endif
                          M     else
                          M       if ((LCDOUT) > $)
                          M         if (CODE_SIZE >= 4)
                          M           if (((LCDOUT) & 800h) == 0)
                          M         bcf     PCLATH, 3
                          M           else
                          M         bsf     PCLATH, 3
                          M           endif
                          M         endif
                          M         if (CODE_SIZE == 8)
                          M           if (((LCDOUT) & 1000h) == 0)
                          M         bcf     PCLATH, 4
                          M           else
                          M         bsf     PCLATH, 4
                          M           endif
                          M         endif
                          M       else
                          M         if (CODE_SIZE >= 4)
                          M           if (((LCDOUT) & 1800h) == 0)
                          M         clrf    PCLATH
                          M           else
                          M             if (((LCDOUT) & 800h) == 0)
                          M         bcf     PCLATH, 3
                          M             else
                          M         bsf     PCLATH, 3
                          M             endif
                          M             if (CODE_SIZE == 8)
                          M               if (((LCDOUT) & 1000h) == 0)
                          M         bcf     PCLATH, 4
                          M               else
                          M         bsf     PCLATH, 4
                          M               endif
                          M             endif
                          M           endif
                          M         endif
                          M       endif
                          M     endif
                          M 
021A   206B               M         call    LCDOUT
MPASM  5.49                      RTCCON~1.ASM   1-27-2021  11:00:41         PAGE 165


LOC  OBJECT CODE     LINE SOURCE TEXT
  VALUE

                      00174         LCDOUT?C        061h
021B   3061               M         movlw   061h
                          M         L?CALL  LCDOUT
                          M         RST?RP
                          M     if ((PREV_BANK & 1) != 0)
                          M         bcf     STATUS, RP0
                          M     endif
                          M     if ((PREV_BANK & 2) != 0)
                          M         bcf     STATUS, RP1
                          M     endif
  00000000                M PREV_BANK = 0
                          M 
                          M     if ((LCDOUT) < 1)
                          M       if (CODE_SIZE >= 4)
                          M         if (((LCDOUT) & 800h) == 0)
                          M         bcf     PCLATH, 3
                          M         else
                          M         bsf     PCLATH, 3
                          M         endif
                          M       endif
                          M       if (CODE_SIZE == 8)
                          M         if (((LCDOUT) & 1000h) == 0)
                          M         bcf     PCLATH, 4
                          M         else
                          M         bsf     PCLATH, 4
                          M         endif
                          M       endif
                          M     else
                          M       if ((LCDOUT) > $)
                          M         if (CODE_SIZE >= 4)
                          M           if (((LCDOUT) & 800h) == 0)
                          M         bcf     PCLATH, 3
                          M           else
                          M         bsf     PCLATH, 3
                          M           endif
                          M         endif
                          M         if (CODE_SIZE == 8)
                          M           if (((LCDOUT) & 1000h) == 0)
                          M         bcf     PCLATH, 4
                          M           else
                          M         bsf     PCLATH, 4
                          M           endif
                          M         endif
                          M       else
                          M         if (CODE_SIZE >= 4)
                          M           if (((LCDOUT) & 1800h) == 0)
                          M         clrf    PCLATH
                          M           else
                          M             if (((LCDOUT) & 800h) == 0)
                          M         bcf     PCLATH, 3
                          M             else
                          M         bsf     PCLATH, 3
                          M             endif
MPASM  5.49                      RTCCON~1.ASM   1-27-2021  11:00:41         PAGE 166


LOC  OBJECT CODE     LINE SOURCE TEXT
  VALUE

                          M             if (CODE_SIZE == 8)
                          M               if (((LCDOUT) & 1000h) == 0)
                          M         bcf     PCLATH, 4
                          M               else
                          M         bsf     PCLATH, 4
                          M               endif
                          M             endif
                          M           endif
                          M         endif
                          M       endif
                          M     endif
                          M 
021C   206B               M         call    LCDOUT
                      00175         LCDOUT?C        079h
021D   3079               M         movlw   079h
                          M         L?CALL  LCDOUT
                          M         RST?RP
                          M     if ((PREV_BANK & 1) != 0)
                          M         bcf     STATUS, RP0
                          M     endif
                          M     if ((PREV_BANK & 2) != 0)
                          M         bcf     STATUS, RP1
                          M     endif
  00000000                M PREV_BANK = 0
                          M 
                          M     if ((LCDOUT) < 1)
                          M       if (CODE_SIZE >= 4)
                          M         if (((LCDOUT) & 800h) == 0)
                          M         bcf     PCLATH, 3
                          M         else
                          M         bsf     PCLATH, 3
                          M         endif
                          M       endif
                          M       if (CODE_SIZE == 8)
                          M         if (((LCDOUT) & 1000h) == 0)
                          M         bcf     PCLATH, 4
                          M         else
                          M         bsf     PCLATH, 4
                          M         endif
                          M       endif
                          M     else
                          M       if ((LCDOUT) > $)
                          M         if (CODE_SIZE >= 4)
                          M           if (((LCDOUT) & 800h) == 0)
                          M         bcf     PCLATH, 3
                          M           else
                          M         bsf     PCLATH, 3
                          M           endif
                          M         endif
                          M         if (CODE_SIZE == 8)
                          M           if (((LCDOUT) & 1000h) == 0)
                          M         bcf     PCLATH, 4
                          M           else
MPASM  5.49                      RTCCON~1.ASM   1-27-2021  11:00:41         PAGE 167


LOC  OBJECT CODE     LINE SOURCE TEXT
  VALUE

                          M         bsf     PCLATH, 4
                          M           endif
                          M         endif
                          M       else
                          M         if (CODE_SIZE >= 4)
                          M           if (((LCDOUT) & 1800h) == 0)
                          M         clrf    PCLATH
                          M           else
                          M             if (((LCDOUT) & 800h) == 0)
                          M         bcf     PCLATH, 3
                          M             else
                          M         bsf     PCLATH, 3
                          M             endif
                          M             if (CODE_SIZE == 8)
                          M               if (((LCDOUT) & 1000h) == 0)
                          M         bcf     PCLATH, 4
                          M               else
                          M         bsf     PCLATH, 4
                          M               endif
                          M             endif
                          M           endif
                          M         endif
                          M       endif
                          M     endif
                          M 
021E   206B               M         call    LCDOUT
                      00176         LABEL?L L00023  
                          M         RST?RP
                          M     if ((PREV_BANK & 1) != 0)
                          M         bcf     STATUS, RP0
                          M     endif
                          M     if ((PREV_BANK & 2) != 0)
                          M         bcf     STATUS, RP1
                          M     endif
  00000000                M PREV_BANK = 0
                          M     ifdef PM_USED
                          M         LALL
                          M L00023
                          M         XALL
                          M     else
021F                      M L00023
                          M     endif
                      00177         CMPNE?BCL       _mes, 006h, L00025
                          M     if (((006h) > -100h) & ((006h) < 100h))
                          M         CLRWDT?
                          M     ifndef NO_CLRWDT
021F   0064               M         clrwdt
                          M     endif
                          M         MOVE?BA _mes
                          M         CHK?RP  _mes
                          M     if (((_mes)  & 180h) == 0)
                          M       if (PREV_BANK == 1)
                          M         bcf     STATUS, RP0
MPASM  5.49                      RTCCON~1.ASM   1-27-2021  11:00:41         PAGE 168


LOC  OBJECT CODE     LINE SOURCE TEXT
  VALUE

                          M       endif
                          M       if (PREV_BANK == 2)
                          M         bcf     STATUS, RP1
                          M       endif
                          M       if (PREV_BANK == 3)
                          M         bcf     STATUS, RP0
                          M         bcf     STATUS, RP1
                          M       endif
  00000000                M PREV_BANK = 0
                          M     endif
                          M 
                          M     if (((_mes)  & 180h) == 80h)
                          M       if (PREV_BANK == 0)
                          M         bsf     STATUS, RP0
                          M       endif
                          M       if (PREV_BANK == 2)
                          M         bsf     STATUS, RP0
                          M         bcf     STATUS, RP1
                          M       endif
                          M       if (PREV_BANK == 3)
                          M         bcf     STATUS, RP1
                          M       endif
                          M PREV_BANK = 1
                          M     endif
                          M 
                          M     if (((_mes)  & 180h) == 100h)
                          M       if (PREV_BANK == 0)
                          M         bsf     STATUS, RP1
                          M       endif
                          M       if (PREV_BANK == 1)
                          M         bcf     STATUS, RP0
                          M         bsf     STATUS, RP1
                          M       endif
                          M       if (PREV_BANK == 3)
                          M         bcf     STATUS, RP0
                          M       endif
                          M PREV_BANK = 2
                          M     endif
                          M 
                          M     if (((_mes)  & 180h) == 180h)
                          M       if (PREV_BANK == 0)
                          M         bsf     STATUS, RP0
                          M         bsf     STATUS, RP1
                          M       endif
                          M       if (PREV_BANK == 1)
                          M         bsf     STATUS, RP1
                          M       endif
                          M       if (PREV_BANK == 2)
                          M         bsf     STATUS, RP0
                          M       endif
                          M PREV_BANK = 3
                          M     endif
0220   083C               M         movf    _mes, W
MPASM  5.49                      RTCCON~1.ASM   1-27-2021  11:00:41         PAGE 169


LOC  OBJECT CODE     LINE SOURCE TEXT
  VALUE

0221   3C06               M         sublw   006h
                          M         BIT?GOTO 0, STATUS, Z, L00025
                          M     if ($ == (L00025))
                          M         CLRWDT?
                          M     endif
                          M 
                          M     if (CODE_SIZE >= 4)
                          M       if (((L00025) & 800h) == 0)
                          M         bcf     PCLATH, 3
                          M       else
                          M         bsf     PCLATH, 3
                          M       endif
                          M     endif
                          M     if (CODE_SIZE == 8)
                          M       if (((L00025) & 1000h) == 0)
                          M         bcf     PCLATH, 4
                          M       else
                          M         bsf     PCLATH, 4
                          M       endif
                          M     endif
                          M 
                          M     if (((STATUS) & 0ff80h) != 0)
                          M         CHK?RP  STATUS
                          M         bcf     STATUS, DC
                          M       if ((0)      == 0)
                          M         btfss   STATUS, Z
                          M       else
                          M         btfsc   STATUS, Z
                          M       endif
                          M         bsf     STATUS, DC
                          M         RST?RP
                          M         btfsc   STATUS, DC
                          M     else
                          M         RST?RP
                          M     if ((PREV_BANK & 1) != 0)
                          M         bcf     STATUS, RP0
                          M     endif
                          M     if ((PREV_BANK & 2) != 0)
                          M         bcf     STATUS, RP1
                          M     endif
  00000000                M PREV_BANK = 0
                          M       if ((0)      == 0)
0222   1D03               M         btfss   STATUS, Z
                          M       else
                          M         btfsc   STATUS, Z
                          M       endif
                          M     endif
                          M 
0223   2A2A               M         goto    L00025
                          M     else
                          M         L?GOTO  L00025
                          M     endif
                      00178         LCDOUT?C        06Ah
MPASM  5.49                      RTCCON~1.ASM   1-27-2021  11:00:41         PAGE 170


LOC  OBJECT CODE     LINE SOURCE TEXT
  VALUE

0224   306A               M         movlw   06Ah
                          M         L?CALL  LCDOUT
                          M         RST?RP
                          M     if ((PREV_BANK & 1) != 0)
                          M         bcf     STATUS, RP0
                          M     endif
                          M     if ((PREV_BANK & 2) != 0)
                          M         bcf     STATUS, RP1
                          M     endif
  00000000                M PREV_BANK = 0
                          M 
                          M     if ((LCDOUT) < 1)
                          M       if (CODE_SIZE >= 4)
                          M         if (((LCDOUT) & 800h) == 0)
                          M         bcf     PCLATH, 3
                          M         else
                          M         bsf     PCLATH, 3
                          M         endif
                          M       endif
                          M       if (CODE_SIZE == 8)
                          M         if (((LCDOUT) & 1000h) == 0)
                          M         bcf     PCLATH, 4
                          M         else
                          M         bsf     PCLATH, 4
                          M         endif
                          M       endif
                          M     else
                          M       if ((LCDOUT) > $)
                          M         if (CODE_SIZE >= 4)
                          M           if (((LCDOUT) & 800h) == 0)
                          M         bcf     PCLATH, 3
                          M           else
                          M         bsf     PCLATH, 3
                          M           endif
                          M         endif
                          M         if (CODE_SIZE == 8)
                          M           if (((LCDOUT) & 1000h) == 0)
                          M         bcf     PCLATH, 4
                          M           else
                          M         bsf     PCLATH, 4
                          M           endif
                          M         endif
                          M       else
                          M         if (CODE_SIZE >= 4)
                          M           if (((LCDOUT) & 1800h) == 0)
                          M         clrf    PCLATH
                          M           else
                          M             if (((LCDOUT) & 800h) == 0)
                          M         bcf     PCLATH, 3
                          M             else
                          M         bsf     PCLATH, 3
                          M             endif
                          M             if (CODE_SIZE == 8)
MPASM  5.49                      RTCCON~1.ASM   1-27-2021  11:00:41         PAGE 171


LOC  OBJECT CODE     LINE SOURCE TEXT
  VALUE

                          M               if (((LCDOUT) & 1000h) == 0)
                          M         bcf     PCLATH, 4
                          M               else
                          M         bsf     PCLATH, 4
                          M               endif
                          M             endif
                          M           endif
                          M         endif
                          M       endif
                          M     endif
                          M 
0225   206B               M         call    LCDOUT
                      00179         LCDOUT?C        075h
0226   3075               M         movlw   075h
                          M         L?CALL  LCDOUT
                          M         RST?RP
                          M     if ((PREV_BANK & 1) != 0)
                          M         bcf     STATUS, RP0
                          M     endif
                          M     if ((PREV_BANK & 2) != 0)
                          M         bcf     STATUS, RP1
                          M     endif
  00000000                M PREV_BANK = 0
                          M 
                          M     if ((LCDOUT) < 1)
                          M       if (CODE_SIZE >= 4)
                          M         if (((LCDOUT) & 800h) == 0)
                          M         bcf     PCLATH, 3
                          M         else
                          M         bsf     PCLATH, 3
                          M         endif
                          M       endif
                          M       if (CODE_SIZE == 8)
                          M         if (((LCDOUT) & 1000h) == 0)
                          M         bcf     PCLATH, 4
                          M         else
                          M         bsf     PCLATH, 4
                          M         endif
                          M       endif
                          M     else
                          M       if ((LCDOUT) > $)
                          M         if (CODE_SIZE >= 4)
                          M           if (((LCDOUT) & 800h) == 0)
                          M         bcf     PCLATH, 3
                          M           else
                          M         bsf     PCLATH, 3
                          M           endif
                          M         endif
                          M         if (CODE_SIZE == 8)
                          M           if (((LCDOUT) & 1000h) == 0)
                          M         bcf     PCLATH, 4
                          M           else
                          M         bsf     PCLATH, 4
MPASM  5.49                      RTCCON~1.ASM   1-27-2021  11:00:41         PAGE 172


LOC  OBJECT CODE     LINE SOURCE TEXT
  VALUE

                          M           endif
                          M         endif
                          M       else
                          M         if (CODE_SIZE >= 4)
                          M           if (((LCDOUT) & 1800h) == 0)
                          M         clrf    PCLATH
                          M           else
                          M             if (((LCDOUT) & 800h) == 0)
                          M         bcf     PCLATH, 3
                          M             else
                          M         bsf     PCLATH, 3
                          M             endif
                          M             if (CODE_SIZE == 8)
                          M               if (((LCDOUT) & 1000h) == 0)
                          M         bcf     PCLATH, 4
                          M               else
                          M         bsf     PCLATH, 4
                          M               endif
                          M             endif
                          M           endif
                          M         endif
                          M       endif
                          M     endif
                          M 
0227   206B               M         call    LCDOUT
                      00180         LCDOUT?C        06Eh
0228   306E               M         movlw   06Eh
                          M         L?CALL  LCDOUT
                          M         RST?RP
                          M     if ((PREV_BANK & 1) != 0)
                          M         bcf     STATUS, RP0
                          M     endif
                          M     if ((PREV_BANK & 2) != 0)
                          M         bcf     STATUS, RP1
                          M     endif
  00000000                M PREV_BANK = 0
                          M 
                          M     if ((LCDOUT) < 1)
                          M       if (CODE_SIZE >= 4)
                          M         if (((LCDOUT) & 800h) == 0)
                          M         bcf     PCLATH, 3
                          M         else
                          M         bsf     PCLATH, 3
                          M         endif
                          M       endif
                          M       if (CODE_SIZE == 8)
                          M         if (((LCDOUT) & 1000h) == 0)
                          M         bcf     PCLATH, 4
                          M         else
                          M         bsf     PCLATH, 4
                          M         endif
                          M       endif
                          M     else
MPASM  5.49                      RTCCON~1.ASM   1-27-2021  11:00:41         PAGE 173


LOC  OBJECT CODE     LINE SOURCE TEXT
  VALUE

                          M       if ((LCDOUT) > $)
                          M         if (CODE_SIZE >= 4)
                          M           if (((LCDOUT) & 800h) == 0)
                          M         bcf     PCLATH, 3
                          M           else
                          M         bsf     PCLATH, 3
                          M           endif
                          M         endif
                          M         if (CODE_SIZE == 8)
                          M           if (((LCDOUT) & 1000h) == 0)
                          M         bcf     PCLATH, 4
                          M           else
                          M         bsf     PCLATH, 4
                          M           endif
                          M         endif
                          M       else
                          M         if (CODE_SIZE >= 4)
                          M           if (((LCDOUT) & 1800h) == 0)
                          M         clrf    PCLATH
                          M           else
                          M             if (((LCDOUT) & 800h) == 0)
                          M         bcf     PCLATH, 3
                          M             else
                          M         bsf     PCLATH, 3
                          M             endif
                          M             if (CODE_SIZE == 8)
                          M               if (((LCDOUT) & 1000h) == 0)
                          M         bcf     PCLATH, 4
                          M               else
                          M         bsf     PCLATH, 4
                          M               endif
                          M             endif
                          M           endif
                          M         endif
                          M       endif
                          M     endif
                          M 
0229   206B               M         call    LCDOUT
                      00181         LABEL?L L00025  
                          M         RST?RP
                          M     if ((PREV_BANK & 1) != 0)
                          M         bcf     STATUS, RP0
                          M     endif
                          M     if ((PREV_BANK & 2) != 0)
                          M         bcf     STATUS, RP1
                          M     endif
  00000000                M PREV_BANK = 0
                          M     ifdef PM_USED
                          M         LALL
                          M L00025
                          M         XALL
                          M     else
022A                      M L00025
MPASM  5.49                      RTCCON~1.ASM   1-27-2021  11:00:41         PAGE 174


LOC  OBJECT CODE     LINE SOURCE TEXT
  VALUE

                          M     endif
                      00182         CMPNE?BCL       _mes, 007h, L00027
                          M     if (((007h) > -100h) & ((007h) < 100h))
                          M         CLRWDT?
                          M     ifndef NO_CLRWDT
022A   0064               M         clrwdt
                          M     endif
                          M         MOVE?BA _mes
                          M         CHK?RP  _mes
                          M     if (((_mes)  & 180h) == 0)
                          M       if (PREV_BANK == 1)
                          M         bcf     STATUS, RP0
                          M       endif
                          M       if (PREV_BANK == 2)
                          M         bcf     STATUS, RP1
                          M       endif
                          M       if (PREV_BANK == 3)
                          M         bcf     STATUS, RP0
                          M         bcf     STATUS, RP1
                          M       endif
  00000000                M PREV_BANK = 0
                          M     endif
                          M 
                          M     if (((_mes)  & 180h) == 80h)
                          M       if (PREV_BANK == 0)
                          M         bsf     STATUS, RP0
                          M       endif
                          M       if (PREV_BANK == 2)
                          M         bsf     STATUS, RP0
                          M         bcf     STATUS, RP1
                          M       endif
                          M       if (PREV_BANK == 3)
                          M         bcf     STATUS, RP1
                          M       endif
                          M PREV_BANK = 1
                          M     endif
                          M 
                          M     if (((_mes)  & 180h) == 100h)
                          M       if (PREV_BANK == 0)
                          M         bsf     STATUS, RP1
                          M       endif
                          M       if (PREV_BANK == 1)
                          M         bcf     STATUS, RP0
                          M         bsf     STATUS, RP1
                          M       endif
                          M       if (PREV_BANK == 3)
                          M         bcf     STATUS, RP0
                          M       endif
                          M PREV_BANK = 2
                          M     endif
                          M 
                          M     if (((_mes)  & 180h) == 180h)
                          M       if (PREV_BANK == 0)
MPASM  5.49                      RTCCON~1.ASM   1-27-2021  11:00:41         PAGE 175


LOC  OBJECT CODE     LINE SOURCE TEXT
  VALUE

                          M         bsf     STATUS, RP0
                          M         bsf     STATUS, RP1
                          M       endif
                          M       if (PREV_BANK == 1)
                          M         bsf     STATUS, RP1
                          M       endif
                          M       if (PREV_BANK == 2)
                          M         bsf     STATUS, RP0
                          M       endif
                          M PREV_BANK = 3
                          M     endif
022B   083C               M         movf    _mes, W
022C   3C07               M         sublw   007h
                          M         BIT?GOTO 0, STATUS, Z, L00027
                          M     if ($ == (L00027))
                          M         CLRWDT?
                          M     endif
                          M 
                          M     if (CODE_SIZE >= 4)
                          M       if (((L00027) & 800h) == 0)
                          M         bcf     PCLATH, 3
                          M       else
                          M         bsf     PCLATH, 3
                          M       endif
                          M     endif
                          M     if (CODE_SIZE == 8)
                          M       if (((L00027) & 1000h) == 0)
                          M         bcf     PCLATH, 4
                          M       else
                          M         bsf     PCLATH, 4
                          M       endif
                          M     endif
                          M 
                          M     if (((STATUS) & 0ff80h) != 0)
                          M         CHK?RP  STATUS
                          M         bcf     STATUS, DC
                          M       if ((0)      == 0)
                          M         btfss   STATUS, Z
                          M       else
                          M         btfsc   STATUS, Z
                          M       endif
                          M         bsf     STATUS, DC
                          M         RST?RP
                          M         btfsc   STATUS, DC
                          M     else
                          M         RST?RP
                          M     if ((PREV_BANK & 1) != 0)
                          M         bcf     STATUS, RP0
                          M     endif
                          M     if ((PREV_BANK & 2) != 0)
                          M         bcf     STATUS, RP1
                          M     endif
  00000000                M PREV_BANK = 0
MPASM  5.49                      RTCCON~1.ASM   1-27-2021  11:00:41         PAGE 176


LOC  OBJECT CODE     LINE SOURCE TEXT
  VALUE

                          M       if ((0)      == 0)
022D   1D03               M         btfss   STATUS, Z
                          M       else
                          M         btfsc   STATUS, Z
                          M       endif
                          M     endif
                          M 
022E   2A35               M         goto    L00027
                          M     else
                          M         L?GOTO  L00027
                          M     endif
                      00183         LCDOUT?C        06Ah
022F   306A               M         movlw   06Ah
                          M         L?CALL  LCDOUT
                          M         RST?RP
                          M     if ((PREV_BANK & 1) != 0)
                          M         bcf     STATUS, RP0
                          M     endif
                          M     if ((PREV_BANK & 2) != 0)
                          M         bcf     STATUS, RP1
                          M     endif
  00000000                M PREV_BANK = 0
                          M 
                          M     if ((LCDOUT) < 1)
                          M       if (CODE_SIZE >= 4)
                          M         if (((LCDOUT) & 800h) == 0)
                          M         bcf     PCLATH, 3
                          M         else
                          M         bsf     PCLATH, 3
                          M         endif
                          M       endif
                          M       if (CODE_SIZE == 8)
                          M         if (((LCDOUT) & 1000h) == 0)
                          M         bcf     PCLATH, 4
                          M         else
                          M         bsf     PCLATH, 4
                          M         endif
                          M       endif
                          M     else
                          M       if ((LCDOUT) > $)
                          M         if (CODE_SIZE >= 4)
                          M           if (((LCDOUT) & 800h) == 0)
                          M         bcf     PCLATH, 3
                          M           else
                          M         bsf     PCLATH, 3
                          M           endif
                          M         endif
                          M         if (CODE_SIZE == 8)
                          M           if (((LCDOUT) & 1000h) == 0)
                          M         bcf     PCLATH, 4
                          M           else
                          M         bsf     PCLATH, 4
                          M           endif
MPASM  5.49                      RTCCON~1.ASM   1-27-2021  11:00:41         PAGE 177


LOC  OBJECT CODE     LINE SOURCE TEXT
  VALUE

                          M         endif
                          M       else
                          M         if (CODE_SIZE >= 4)
                          M           if (((LCDOUT) & 1800h) == 0)
                          M         clrf    PCLATH
                          M           else
                          M             if (((LCDOUT) & 800h) == 0)
                          M         bcf     PCLATH, 3
                          M             else
                          M         bsf     PCLATH, 3
                          M             endif
                          M             if (CODE_SIZE == 8)
                          M               if (((LCDOUT) & 1000h) == 0)
                          M         bcf     PCLATH, 4
                          M               else
                          M         bsf     PCLATH, 4
                          M               endif
                          M             endif
                          M           endif
                          M         endif
                          M       endif
                          M     endif
                          M 
0230   206B               M         call    LCDOUT
                      00184         LCDOUT?C        075h
0231   3075               M         movlw   075h
                          M         L?CALL  LCDOUT
                          M         RST?RP
                          M     if ((PREV_BANK & 1) != 0)
                          M         bcf     STATUS, RP0
                          M     endif
                          M     if ((PREV_BANK & 2) != 0)
                          M         bcf     STATUS, RP1
                          M     endif
  00000000                M PREV_BANK = 0
                          M 
                          M     if ((LCDOUT) < 1)
                          M       if (CODE_SIZE >= 4)
                          M         if (((LCDOUT) & 800h) == 0)
                          M         bcf     PCLATH, 3
                          M         else
                          M         bsf     PCLATH, 3
                          M         endif
                          M       endif
                          M       if (CODE_SIZE == 8)
                          M         if (((LCDOUT) & 1000h) == 0)
                          M         bcf     PCLATH, 4
                          M         else
                          M         bsf     PCLATH, 4
                          M         endif
                          M       endif
                          M     else
                          M       if ((LCDOUT) > $)
MPASM  5.49                      RTCCON~1.ASM   1-27-2021  11:00:41         PAGE 178


LOC  OBJECT CODE     LINE SOURCE TEXT
  VALUE

                          M         if (CODE_SIZE >= 4)
                          M           if (((LCDOUT) & 800h) == 0)
                          M         bcf     PCLATH, 3
                          M           else
                          M         bsf     PCLATH, 3
                          M           endif
                          M         endif
                          M         if (CODE_SIZE == 8)
                          M           if (((LCDOUT) & 1000h) == 0)
                          M         bcf     PCLATH, 4
                          M           else
                          M         bsf     PCLATH, 4
                          M           endif
                          M         endif
                          M       else
                          M         if (CODE_SIZE >= 4)
                          M           if (((LCDOUT) & 1800h) == 0)
                          M         clrf    PCLATH
                          M           else
                          M             if (((LCDOUT) & 800h) == 0)
                          M         bcf     PCLATH, 3
                          M             else
                          M         bsf     PCLATH, 3
                          M             endif
                          M             if (CODE_SIZE == 8)
                          M               if (((LCDOUT) & 1000h) == 0)
                          M         bcf     PCLATH, 4
                          M               else
                          M         bsf     PCLATH, 4
                          M               endif
                          M             endif
                          M           endif
                          M         endif
                          M       endif
                          M     endif
                          M 
0232   206B               M         call    LCDOUT
                      00185         LCDOUT?C        06Ch
0233   306C               M         movlw   06Ch
                          M         L?CALL  LCDOUT
                          M         RST?RP
                          M     if ((PREV_BANK & 1) != 0)
                          M         bcf     STATUS, RP0
                          M     endif
                          M     if ((PREV_BANK & 2) != 0)
                          M         bcf     STATUS, RP1
                          M     endif
  00000000                M PREV_BANK = 0
                          M 
                          M     if ((LCDOUT) < 1)
                          M       if (CODE_SIZE >= 4)
                          M         if (((LCDOUT) & 800h) == 0)
                          M         bcf     PCLATH, 3
MPASM  5.49                      RTCCON~1.ASM   1-27-2021  11:00:41         PAGE 179


LOC  OBJECT CODE     LINE SOURCE TEXT
  VALUE

                          M         else
                          M         bsf     PCLATH, 3
                          M         endif
                          M       endif
                          M       if (CODE_SIZE == 8)
                          M         if (((LCDOUT) & 1000h) == 0)
                          M         bcf     PCLATH, 4
                          M         else
                          M         bsf     PCLATH, 4
                          M         endif
                          M       endif
                          M     else
                          M       if ((LCDOUT) > $)
                          M         if (CODE_SIZE >= 4)
                          M           if (((LCDOUT) & 800h) == 0)
                          M         bcf     PCLATH, 3
                          M           else
                          M         bsf     PCLATH, 3
                          M           endif
                          M         endif
                          M         if (CODE_SIZE == 8)
                          M           if (((LCDOUT) & 1000h) == 0)
                          M         bcf     PCLATH, 4
                          M           else
                          M         bsf     PCLATH, 4
                          M           endif
                          M         endif
                          M       else
                          M         if (CODE_SIZE >= 4)
                          M           if (((LCDOUT) & 1800h) == 0)
                          M         clrf    PCLATH
                          M           else
                          M             if (((LCDOUT) & 800h) == 0)
                          M         bcf     PCLATH, 3
                          M             else
                          M         bsf     PCLATH, 3
                          M             endif
                          M             if (CODE_SIZE == 8)
                          M               if (((LCDOUT) & 1000h) == 0)
                          M         bcf     PCLATH, 4
                          M               else
                          M         bsf     PCLATH, 4
                          M               endif
                          M             endif
                          M           endif
                          M         endif
                          M       endif
                          M     endif
                          M 
0234   206B               M         call    LCDOUT
                      00186         LABEL?L L00027  
                          M         RST?RP
                          M     if ((PREV_BANK & 1) != 0)
MPASM  5.49                      RTCCON~1.ASM   1-27-2021  11:00:41         PAGE 180


LOC  OBJECT CODE     LINE SOURCE TEXT
  VALUE

                          M         bcf     STATUS, RP0
                          M     endif
                          M     if ((PREV_BANK & 2) != 0)
                          M         bcf     STATUS, RP1
                          M     endif
  00000000                M PREV_BANK = 0
                          M     ifdef PM_USED
                          M         LALL
                          M L00027
                          M         XALL
                          M     else
0235                      M L00027
                          M     endif
                      00187         CMPNE?BCL       _mes, 008h, L00029
                          M     if (((008h) > -100h) & ((008h) < 100h))
                          M         CLRWDT?
                          M     ifndef NO_CLRWDT
0235   0064               M         clrwdt
                          M     endif
                          M         MOVE?BA _mes
                          M         CHK?RP  _mes
                          M     if (((_mes)  & 180h) == 0)
                          M       if (PREV_BANK == 1)
                          M         bcf     STATUS, RP0
                          M       endif
                          M       if (PREV_BANK == 2)
                          M         bcf     STATUS, RP1
                          M       endif
                          M       if (PREV_BANK == 3)
                          M         bcf     STATUS, RP0
                          M         bcf     STATUS, RP1
                          M       endif
  00000000                M PREV_BANK = 0
                          M     endif
                          M 
                          M     if (((_mes)  & 180h) == 80h)
                          M       if (PREV_BANK == 0)
                          M         bsf     STATUS, RP0
                          M       endif
                          M       if (PREV_BANK == 2)
                          M         bsf     STATUS, RP0
                          M         bcf     STATUS, RP1
                          M       endif
                          M       if (PREV_BANK == 3)
                          M         bcf     STATUS, RP1
                          M       endif
                          M PREV_BANK = 1
                          M     endif
                          M 
                          M     if (((_mes)  & 180h) == 100h)
                          M       if (PREV_BANK == 0)
                          M         bsf     STATUS, RP1
                          M       endif
MPASM  5.49                      RTCCON~1.ASM   1-27-2021  11:00:41         PAGE 181


LOC  OBJECT CODE     LINE SOURCE TEXT
  VALUE

                          M       if (PREV_BANK == 1)
                          M         bcf     STATUS, RP0
                          M         bsf     STATUS, RP1
                          M       endif
                          M       if (PREV_BANK == 3)
                          M         bcf     STATUS, RP0
                          M       endif
                          M PREV_BANK = 2
                          M     endif
                          M 
                          M     if (((_mes)  & 180h) == 180h)
                          M       if (PREV_BANK == 0)
                          M         bsf     STATUS, RP0
                          M         bsf     STATUS, RP1
                          M       endif
                          M       if (PREV_BANK == 1)
                          M         bsf     STATUS, RP1
                          M       endif
                          M       if (PREV_BANK == 2)
                          M         bsf     STATUS, RP0
                          M       endif
                          M PREV_BANK = 3
                          M     endif
0236   083C               M         movf    _mes, W
0237   3C08               M         sublw   008h
                          M         BIT?GOTO 0, STATUS, Z, L00029
                          M     if ($ == (L00029))
                          M         CLRWDT?
                          M     endif
                          M 
                          M     if (CODE_SIZE >= 4)
                          M       if (((L00029) & 800h) == 0)
                          M         bcf     PCLATH, 3
                          M       else
                          M         bsf     PCLATH, 3
                          M       endif
                          M     endif
                          M     if (CODE_SIZE == 8)
                          M       if (((L00029) & 1000h) == 0)
                          M         bcf     PCLATH, 4
                          M       else
                          M         bsf     PCLATH, 4
                          M       endif
                          M     endif
                          M 
                          M     if (((STATUS) & 0ff80h) != 0)
                          M         CHK?RP  STATUS
                          M         bcf     STATUS, DC
                          M       if ((0)      == 0)
                          M         btfss   STATUS, Z
                          M       else
                          M         btfsc   STATUS, Z
                          M       endif
MPASM  5.49                      RTCCON~1.ASM   1-27-2021  11:00:41         PAGE 182


LOC  OBJECT CODE     LINE SOURCE TEXT
  VALUE

                          M         bsf     STATUS, DC
                          M         RST?RP
                          M         btfsc   STATUS, DC
                          M     else
                          M         RST?RP
                          M     if ((PREV_BANK & 1) != 0)
                          M         bcf     STATUS, RP0
                          M     endif
                          M     if ((PREV_BANK & 2) != 0)
                          M         bcf     STATUS, RP1
                          M     endif
  00000000                M PREV_BANK = 0
                          M       if ((0)      == 0)
0238   1D03               M         btfss   STATUS, Z
                          M       else
                          M         btfsc   STATUS, Z
                          M       endif
                          M     endif
                          M 
0239   2A40               M         goto    L00029
                          M     else
                          M         L?GOTO  L00029
                          M     endif
                      00188         LCDOUT?C        061h
023A   3061               M         movlw   061h
                          M         L?CALL  LCDOUT
                          M         RST?RP
                          M     if ((PREV_BANK & 1) != 0)
                          M         bcf     STATUS, RP0
                          M     endif
                          M     if ((PREV_BANK & 2) != 0)
                          M         bcf     STATUS, RP1
                          M     endif
  00000000                M PREV_BANK = 0
                          M 
                          M     if ((LCDOUT) < 1)
                          M       if (CODE_SIZE >= 4)
                          M         if (((LCDOUT) & 800h) == 0)
                          M         bcf     PCLATH, 3
                          M         else
                          M         bsf     PCLATH, 3
                          M         endif
                          M       endif
                          M       if (CODE_SIZE == 8)
                          M         if (((LCDOUT) & 1000h) == 0)
                          M         bcf     PCLATH, 4
                          M         else
                          M         bsf     PCLATH, 4
                          M         endif
                          M       endif
                          M     else
                          M       if ((LCDOUT) > $)
                          M         if (CODE_SIZE >= 4)
MPASM  5.49                      RTCCON~1.ASM   1-27-2021  11:00:41         PAGE 183


LOC  OBJECT CODE     LINE SOURCE TEXT
  VALUE

                          M           if (((LCDOUT) & 800h) == 0)
                          M         bcf     PCLATH, 3
                          M           else
                          M         bsf     PCLATH, 3
                          M           endif
                          M         endif
                          M         if (CODE_SIZE == 8)
                          M           if (((LCDOUT) & 1000h) == 0)
                          M         bcf     PCLATH, 4
                          M           else
                          M         bsf     PCLATH, 4
                          M           endif
                          M         endif
                          M       else
                          M         if (CODE_SIZE >= 4)
                          M           if (((LCDOUT) & 1800h) == 0)
                          M         clrf    PCLATH
                          M           else
                          M             if (((LCDOUT) & 800h) == 0)
                          M         bcf     PCLATH, 3
                          M             else
                          M         bsf     PCLATH, 3
                          M             endif
                          M             if (CODE_SIZE == 8)
                          M               if (((LCDOUT) & 1000h) == 0)
                          M         bcf     PCLATH, 4
                          M               else
                          M         bsf     PCLATH, 4
                          M               endif
                          M             endif
                          M           endif
                          M         endif
                          M       endif
                          M     endif
                          M 
023B   206B               M         call    LCDOUT
                      00189         LCDOUT?C        067h
023C   3067               M         movlw   067h
                          M         L?CALL  LCDOUT
                          M         RST?RP
                          M     if ((PREV_BANK & 1) != 0)
                          M         bcf     STATUS, RP0
                          M     endif
                          M     if ((PREV_BANK & 2) != 0)
                          M         bcf     STATUS, RP1
                          M     endif
  00000000                M PREV_BANK = 0
                          M 
                          M     if ((LCDOUT) < 1)
                          M       if (CODE_SIZE >= 4)
                          M         if (((LCDOUT) & 800h) == 0)
                          M         bcf     PCLATH, 3
                          M         else
MPASM  5.49                      RTCCON~1.ASM   1-27-2021  11:00:41         PAGE 184


LOC  OBJECT CODE     LINE SOURCE TEXT
  VALUE

                          M         bsf     PCLATH, 3
                          M         endif
                          M       endif
                          M       if (CODE_SIZE == 8)
                          M         if (((LCDOUT) & 1000h) == 0)
                          M         bcf     PCLATH, 4
                          M         else
                          M         bsf     PCLATH, 4
                          M         endif
                          M       endif
                          M     else
                          M       if ((LCDOUT) > $)
                          M         if (CODE_SIZE >= 4)
                          M           if (((LCDOUT) & 800h) == 0)
                          M         bcf     PCLATH, 3
                          M           else
                          M         bsf     PCLATH, 3
                          M           endif
                          M         endif
                          M         if (CODE_SIZE == 8)
                          M           if (((LCDOUT) & 1000h) == 0)
                          M         bcf     PCLATH, 4
                          M           else
                          M         bsf     PCLATH, 4
                          M           endif
                          M         endif
                          M       else
                          M         if (CODE_SIZE >= 4)
                          M           if (((LCDOUT) & 1800h) == 0)
                          M         clrf    PCLATH
                          M           else
                          M             if (((LCDOUT) & 800h) == 0)
                          M         bcf     PCLATH, 3
                          M             else
                          M         bsf     PCLATH, 3
                          M             endif
                          M             if (CODE_SIZE == 8)
                          M               if (((LCDOUT) & 1000h) == 0)
                          M         bcf     PCLATH, 4
                          M               else
                          M         bsf     PCLATH, 4
                          M               endif
                          M             endif
                          M           endif
                          M         endif
                          M       endif
                          M     endif
                          M 
023D   206B               M         call    LCDOUT
                      00190         LCDOUT?C        06Fh
023E   306F               M         movlw   06Fh
                          M         L?CALL  LCDOUT
                          M         RST?RP
MPASM  5.49                      RTCCON~1.ASM   1-27-2021  11:00:41         PAGE 185


LOC  OBJECT CODE     LINE SOURCE TEXT
  VALUE

                          M     if ((PREV_BANK & 1) != 0)
                          M         bcf     STATUS, RP0
                          M     endif
                          M     if ((PREV_BANK & 2) != 0)
                          M         bcf     STATUS, RP1
                          M     endif
  00000000                M PREV_BANK = 0
                          M 
                          M     if ((LCDOUT) < 1)
                          M       if (CODE_SIZE >= 4)
                          M         if (((LCDOUT) & 800h) == 0)
                          M         bcf     PCLATH, 3
                          M         else
                          M         bsf     PCLATH, 3
                          M         endif
                          M       endif
                          M       if (CODE_SIZE == 8)
                          M         if (((LCDOUT) & 1000h) == 0)
                          M         bcf     PCLATH, 4
                          M         else
                          M         bsf     PCLATH, 4
                          M         endif
                          M       endif
                          M     else
                          M       if ((LCDOUT) > $)
                          M         if (CODE_SIZE >= 4)
                          M           if (((LCDOUT) & 800h) == 0)
                          M         bcf     PCLATH, 3
                          M           else
                          M         bsf     PCLATH, 3
                          M           endif
                          M         endif
                          M         if (CODE_SIZE == 8)
                          M           if (((LCDOUT) & 1000h) == 0)
                          M         bcf     PCLATH, 4
                          M           else
                          M         bsf     PCLATH, 4
                          M           endif
                          M         endif
                          M       else
                          M         if (CODE_SIZE >= 4)
                          M           if (((LCDOUT) & 1800h) == 0)
                          M         clrf    PCLATH
                          M           else
                          M             if (((LCDOUT) & 800h) == 0)
                          M         bcf     PCLATH, 3
                          M             else
                          M         bsf     PCLATH, 3
                          M             endif
                          M             if (CODE_SIZE == 8)
                          M               if (((LCDOUT) & 1000h) == 0)
                          M         bcf     PCLATH, 4
                          M               else
MPASM  5.49                      RTCCON~1.ASM   1-27-2021  11:00:41         PAGE 186


LOC  OBJECT CODE     LINE SOURCE TEXT
  VALUE

                          M         bsf     PCLATH, 4
                          M               endif
                          M             endif
                          M           endif
                          M         endif
                          M       endif
                          M     endif
                          M 
023F   206B               M         call    LCDOUT
                      00191         LABEL?L L00029  
                          M         RST?RP
                          M     if ((PREV_BANK & 1) != 0)
                          M         bcf     STATUS, RP0
                          M     endif
                          M     if ((PREV_BANK & 2) != 0)
                          M         bcf     STATUS, RP1
                          M     endif
  00000000                M PREV_BANK = 0
                          M     ifdef PM_USED
                          M         LALL
                          M L00029
                          M         XALL
                          M     else
0240                      M L00029
                          M     endif
                      00192         CMPNE?BCL       _mes, 009h, L00031
                          M     if (((009h) > -100h) & ((009h) < 100h))
                          M         CLRWDT?
                          M     ifndef NO_CLRWDT
0240   0064               M         clrwdt
                          M     endif
                          M         MOVE?BA _mes
                          M         CHK?RP  _mes
                          M     if (((_mes)  & 180h) == 0)
                          M       if (PREV_BANK == 1)
                          M         bcf     STATUS, RP0
                          M       endif
                          M       if (PREV_BANK == 2)
                          M         bcf     STATUS, RP1
                          M       endif
                          M       if (PREV_BANK == 3)
                          M         bcf     STATUS, RP0
                          M         bcf     STATUS, RP1
                          M       endif
  00000000                M PREV_BANK = 0
                          M     endif
                          M 
                          M     if (((_mes)  & 180h) == 80h)
                          M       if (PREV_BANK == 0)
                          M         bsf     STATUS, RP0
                          M       endif
                          M       if (PREV_BANK == 2)
                          M         bsf     STATUS, RP0
MPASM  5.49                      RTCCON~1.ASM   1-27-2021  11:00:41         PAGE 187


LOC  OBJECT CODE     LINE SOURCE TEXT
  VALUE

                          M         bcf     STATUS, RP1
                          M       endif
                          M       if (PREV_BANK == 3)
                          M         bcf     STATUS, RP1
                          M       endif
                          M PREV_BANK = 1
                          M     endif
                          M 
                          M     if (((_mes)  & 180h) == 100h)
                          M       if (PREV_BANK == 0)
                          M         bsf     STATUS, RP1
                          M       endif
                          M       if (PREV_BANK == 1)
                          M         bcf     STATUS, RP0
                          M         bsf     STATUS, RP1
                          M       endif
                          M       if (PREV_BANK == 3)
                          M         bcf     STATUS, RP0
                          M       endif
                          M PREV_BANK = 2
                          M     endif
                          M 
                          M     if (((_mes)  & 180h) == 180h)
                          M       if (PREV_BANK == 0)
                          M         bsf     STATUS, RP0
                          M         bsf     STATUS, RP1
                          M       endif
                          M       if (PREV_BANK == 1)
                          M         bsf     STATUS, RP1
                          M       endif
                          M       if (PREV_BANK == 2)
                          M         bsf     STATUS, RP0
                          M       endif
                          M PREV_BANK = 3
                          M     endif
0241   083C               M         movf    _mes, W
0242   3C09               M         sublw   009h
                          M         BIT?GOTO 0, STATUS, Z, L00031
                          M     if ($ == (L00031))
                          M         CLRWDT?
                          M     endif
                          M 
                          M     if (CODE_SIZE >= 4)
                          M       if (((L00031) & 800h) == 0)
                          M         bcf     PCLATH, 3
                          M       else
                          M         bsf     PCLATH, 3
                          M       endif
                          M     endif
                          M     if (CODE_SIZE == 8)
                          M       if (((L00031) & 1000h) == 0)
                          M         bcf     PCLATH, 4
                          M       else
MPASM  5.49                      RTCCON~1.ASM   1-27-2021  11:00:41         PAGE 188


LOC  OBJECT CODE     LINE SOURCE TEXT
  VALUE

                          M         bsf     PCLATH, 4
                          M       endif
                          M     endif
                          M 
                          M     if (((STATUS) & 0ff80h) != 0)
                          M         CHK?RP  STATUS
                          M         bcf     STATUS, DC
                          M       if ((0)      == 0)
                          M         btfss   STATUS, Z
                          M       else
                          M         btfsc   STATUS, Z
                          M       endif
                          M         bsf     STATUS, DC
                          M         RST?RP
                          M         btfsc   STATUS, DC
                          M     else
                          M         RST?RP
                          M     if ((PREV_BANK & 1) != 0)
                          M         bcf     STATUS, RP0
                          M     endif
                          M     if ((PREV_BANK & 2) != 0)
                          M         bcf     STATUS, RP1
                          M     endif
  00000000                M PREV_BANK = 0
                          M       if ((0)      == 0)
0243   1D03               M         btfss   STATUS, Z
                          M       else
                          M         btfsc   STATUS, Z
                          M       endif
                          M     endif
                          M 
0244   2A4B               M         goto    L00031
                          M     else
                          M         L?GOTO  L00031
                          M     endif
                      00193         LCDOUT?C        073h
0245   3073               M         movlw   073h
                          M         L?CALL  LCDOUT
                          M         RST?RP
                          M     if ((PREV_BANK & 1) != 0)
                          M         bcf     STATUS, RP0
                          M     endif
                          M     if ((PREV_BANK & 2) != 0)
                          M         bcf     STATUS, RP1
                          M     endif
  00000000                M PREV_BANK = 0
                          M 
                          M     if ((LCDOUT) < 1)
                          M       if (CODE_SIZE >= 4)
                          M         if (((LCDOUT) & 800h) == 0)
                          M         bcf     PCLATH, 3
                          M         else
                          M         bsf     PCLATH, 3
MPASM  5.49                      RTCCON~1.ASM   1-27-2021  11:00:41         PAGE 189


LOC  OBJECT CODE     LINE SOURCE TEXT
  VALUE

                          M         endif
                          M       endif
                          M       if (CODE_SIZE == 8)
                          M         if (((LCDOUT) & 1000h) == 0)
                          M         bcf     PCLATH, 4
                          M         else
                          M         bsf     PCLATH, 4
                          M         endif
                          M       endif
                          M     else
                          M       if ((LCDOUT) > $)
                          M         if (CODE_SIZE >= 4)
                          M           if (((LCDOUT) & 800h) == 0)
                          M         bcf     PCLATH, 3
                          M           else
                          M         bsf     PCLATH, 3
                          M           endif
                          M         endif
                          M         if (CODE_SIZE == 8)
                          M           if (((LCDOUT) & 1000h) == 0)
                          M         bcf     PCLATH, 4
                          M           else
                          M         bsf     PCLATH, 4
                          M           endif
                          M         endif
                          M       else
                          M         if (CODE_SIZE >= 4)
                          M           if (((LCDOUT) & 1800h) == 0)
                          M         clrf    PCLATH
                          M           else
                          M             if (((LCDOUT) & 800h) == 0)
                          M         bcf     PCLATH, 3
                          M             else
                          M         bsf     PCLATH, 3
                          M             endif
                          M             if (CODE_SIZE == 8)
                          M               if (((LCDOUT) & 1000h) == 0)
                          M         bcf     PCLATH, 4
                          M               else
                          M         bsf     PCLATH, 4
                          M               endif
                          M             endif
                          M           endif
                          M         endif
                          M       endif
                          M     endif
                          M 
0246   206B               M         call    LCDOUT
                      00194         LCDOUT?C        065h
0247   3065               M         movlw   065h
                          M         L?CALL  LCDOUT
                          M         RST?RP
                          M     if ((PREV_BANK & 1) != 0)
MPASM  5.49                      RTCCON~1.ASM   1-27-2021  11:00:41         PAGE 190


LOC  OBJECT CODE     LINE SOURCE TEXT
  VALUE

                          M         bcf     STATUS, RP0
                          M     endif
                          M     if ((PREV_BANK & 2) != 0)
                          M         bcf     STATUS, RP1
                          M     endif
  00000000                M PREV_BANK = 0
                          M 
                          M     if ((LCDOUT) < 1)
                          M       if (CODE_SIZE >= 4)
                          M         if (((LCDOUT) & 800h) == 0)
                          M         bcf     PCLATH, 3
                          M         else
                          M         bsf     PCLATH, 3
                          M         endif
                          M       endif
                          M       if (CODE_SIZE == 8)
                          M         if (((LCDOUT) & 1000h) == 0)
                          M         bcf     PCLATH, 4
                          M         else
                          M         bsf     PCLATH, 4
                          M         endif
                          M       endif
                          M     else
                          M       if ((LCDOUT) > $)
                          M         if (CODE_SIZE >= 4)
                          M           if (((LCDOUT) & 800h) == 0)
                          M         bcf     PCLATH, 3
                          M           else
                          M         bsf     PCLATH, 3
                          M           endif
                          M         endif
                          M         if (CODE_SIZE == 8)
                          M           if (((LCDOUT) & 1000h) == 0)
                          M         bcf     PCLATH, 4
                          M           else
                          M         bsf     PCLATH, 4
                          M           endif
                          M         endif
                          M       else
                          M         if (CODE_SIZE >= 4)
                          M           if (((LCDOUT) & 1800h) == 0)
                          M         clrf    PCLATH
                          M           else
                          M             if (((LCDOUT) & 800h) == 0)
                          M         bcf     PCLATH, 3
                          M             else
                          M         bsf     PCLATH, 3
                          M             endif
                          M             if (CODE_SIZE == 8)
                          M               if (((LCDOUT) & 1000h) == 0)
                          M         bcf     PCLATH, 4
                          M               else
                          M         bsf     PCLATH, 4
MPASM  5.49                      RTCCON~1.ASM   1-27-2021  11:00:41         PAGE 191


LOC  OBJECT CODE     LINE SOURCE TEXT
  VALUE

                          M               endif
                          M             endif
                          M           endif
                          M         endif
                          M       endif
                          M     endif
                          M 
0248   206B               M         call    LCDOUT
                      00195         LCDOUT?C        070h
0249   3070               M         movlw   070h
                          M         L?CALL  LCDOUT
                          M         RST?RP
                          M     if ((PREV_BANK & 1) != 0)
                          M         bcf     STATUS, RP0
                          M     endif
                          M     if ((PREV_BANK & 2) != 0)
                          M         bcf     STATUS, RP1
                          M     endif
  00000000                M PREV_BANK = 0
                          M 
                          M     if ((LCDOUT) < 1)
                          M       if (CODE_SIZE >= 4)
                          M         if (((LCDOUT) & 800h) == 0)
                          M         bcf     PCLATH, 3
                          M         else
                          M         bsf     PCLATH, 3
                          M         endif
                          M       endif
                          M       if (CODE_SIZE == 8)
                          M         if (((LCDOUT) & 1000h) == 0)
                          M         bcf     PCLATH, 4
                          M         else
                          M         bsf     PCLATH, 4
                          M         endif
                          M       endif
                          M     else
                          M       if ((LCDOUT) > $)
                          M         if (CODE_SIZE >= 4)
                          M           if (((LCDOUT) & 800h) == 0)
                          M         bcf     PCLATH, 3
                          M           else
                          M         bsf     PCLATH, 3
                          M           endif
                          M         endif
                          M         if (CODE_SIZE == 8)
                          M           if (((LCDOUT) & 1000h) == 0)
                          M         bcf     PCLATH, 4
                          M           else
                          M         bsf     PCLATH, 4
                          M           endif
                          M         endif
                          M       else
                          M         if (CODE_SIZE >= 4)
MPASM  5.49                      RTCCON~1.ASM   1-27-2021  11:00:41         PAGE 192


LOC  OBJECT CODE     LINE SOURCE TEXT
  VALUE

                          M           if (((LCDOUT) & 1800h) == 0)
                          M         clrf    PCLATH
                          M           else
                          M             if (((LCDOUT) & 800h) == 0)
                          M         bcf     PCLATH, 3
                          M             else
                          M         bsf     PCLATH, 3
                          M             endif
                          M             if (CODE_SIZE == 8)
                          M               if (((LCDOUT) & 1000h) == 0)
                          M         bcf     PCLATH, 4
                          M               else
                          M         bsf     PCLATH, 4
                          M               endif
                          M             endif
                          M           endif
                          M         endif
                          M       endif
                          M     endif
                          M 
024A   206B               M         call    LCDOUT
                      00196         LABEL?L L00031  
                          M         RST?RP
                          M     if ((PREV_BANK & 1) != 0)
                          M         bcf     STATUS, RP0
                          M     endif
                          M     if ((PREV_BANK & 2) != 0)
                          M         bcf     STATUS, RP1
                          M     endif
  00000000                M PREV_BANK = 0
                          M     ifdef PM_USED
                          M         LALL
                          M L00031
                          M         XALL
                          M     else
024B                      M L00031
                          M     endif
                      00197         CMPNE?BCL       _mes, 010h, L00033
                          M     if (((010h) > -100h) & ((010h) < 100h))
                          M         CLRWDT?
                          M     ifndef NO_CLRWDT
024B   0064               M         clrwdt
                          M     endif
                          M         MOVE?BA _mes
                          M         CHK?RP  _mes
                          M     if (((_mes)  & 180h) == 0)
                          M       if (PREV_BANK == 1)
                          M         bcf     STATUS, RP0
                          M       endif
                          M       if (PREV_BANK == 2)
                          M         bcf     STATUS, RP1
                          M       endif
                          M       if (PREV_BANK == 3)
MPASM  5.49                      RTCCON~1.ASM   1-27-2021  11:00:41         PAGE 193


LOC  OBJECT CODE     LINE SOURCE TEXT
  VALUE

                          M         bcf     STATUS, RP0
                          M         bcf     STATUS, RP1
                          M       endif
  00000000                M PREV_BANK = 0
                          M     endif
                          M 
                          M     if (((_mes)  & 180h) == 80h)
                          M       if (PREV_BANK == 0)
                          M         bsf     STATUS, RP0
                          M       endif
                          M       if (PREV_BANK == 2)
                          M         bsf     STATUS, RP0
                          M         bcf     STATUS, RP1
                          M       endif
                          M       if (PREV_BANK == 3)
                          M         bcf     STATUS, RP1
                          M       endif
                          M PREV_BANK = 1
                          M     endif
                          M 
                          M     if (((_mes)  & 180h) == 100h)
                          M       if (PREV_BANK == 0)
                          M         bsf     STATUS, RP1
                          M       endif
                          M       if (PREV_BANK == 1)
                          M         bcf     STATUS, RP0
                          M         bsf     STATUS, RP1
                          M       endif
                          M       if (PREV_BANK == 3)
                          M         bcf     STATUS, RP0
                          M       endif
                          M PREV_BANK = 2
                          M     endif
                          M 
                          M     if (((_mes)  & 180h) == 180h)
                          M       if (PREV_BANK == 0)
                          M         bsf     STATUS, RP0
                          M         bsf     STATUS, RP1
                          M       endif
                          M       if (PREV_BANK == 1)
                          M         bsf     STATUS, RP1
                          M       endif
                          M       if (PREV_BANK == 2)
                          M         bsf     STATUS, RP0
                          M       endif
                          M PREV_BANK = 3
                          M     endif
024C   083C               M         movf    _mes, W
024D   3C10               M         sublw   010h
                          M         BIT?GOTO 0, STATUS, Z, L00033
                          M     if ($ == (L00033))
                          M         CLRWDT?
                          M     endif
MPASM  5.49                      RTCCON~1.ASM   1-27-2021  11:00:41         PAGE 194


LOC  OBJECT CODE     LINE SOURCE TEXT
  VALUE

                          M 
                          M     if (CODE_SIZE >= 4)
                          M       if (((L00033) & 800h) == 0)
                          M         bcf     PCLATH, 3
                          M       else
                          M         bsf     PCLATH, 3
                          M       endif
                          M     endif
                          M     if (CODE_SIZE == 8)
                          M       if (((L00033) & 1000h) == 0)
                          M         bcf     PCLATH, 4
                          M       else
                          M         bsf     PCLATH, 4
                          M       endif
                          M     endif
                          M 
                          M     if (((STATUS) & 0ff80h) != 0)
                          M         CHK?RP  STATUS
                          M         bcf     STATUS, DC
                          M       if ((0)      == 0)
                          M         btfss   STATUS, Z
                          M       else
                          M         btfsc   STATUS, Z
                          M       endif
                          M         bsf     STATUS, DC
                          M         RST?RP
                          M         btfsc   STATUS, DC
                          M     else
                          M         RST?RP
                          M     if ((PREV_BANK & 1) != 0)
                          M         bcf     STATUS, RP0
                          M     endif
                          M     if ((PREV_BANK & 2) != 0)
                          M         bcf     STATUS, RP1
                          M     endif
  00000000                M PREV_BANK = 0
                          M       if ((0)      == 0)
024E   1D03               M         btfss   STATUS, Z
                          M       else
                          M         btfsc   STATUS, Z
                          M       endif
                          M     endif
                          M 
024F   2A56               M         goto    L00033
                          M     else
                          M         L?GOTO  L00033
                          M     endif
                      00198         LCDOUT?C        06Fh
0250   306F               M         movlw   06Fh
                          M         L?CALL  LCDOUT
                          M         RST?RP
                          M     if ((PREV_BANK & 1) != 0)
                          M         bcf     STATUS, RP0
MPASM  5.49                      RTCCON~1.ASM   1-27-2021  11:00:41         PAGE 195


LOC  OBJECT CODE     LINE SOURCE TEXT
  VALUE

                          M     endif
                          M     if ((PREV_BANK & 2) != 0)
                          M         bcf     STATUS, RP1
                          M     endif
  00000000                M PREV_BANK = 0
                          M 
                          M     if ((LCDOUT) < 1)
                          M       if (CODE_SIZE >= 4)
                          M         if (((LCDOUT) & 800h) == 0)
                          M         bcf     PCLATH, 3
                          M         else
                          M         bsf     PCLATH, 3
                          M         endif
                          M       endif
                          M       if (CODE_SIZE == 8)
                          M         if (((LCDOUT) & 1000h) == 0)
                          M         bcf     PCLATH, 4
                          M         else
                          M         bsf     PCLATH, 4
                          M         endif
                          M       endif
                          M     else
                          M       if ((LCDOUT) > $)
                          M         if (CODE_SIZE >= 4)
                          M           if (((LCDOUT) & 800h) == 0)
                          M         bcf     PCLATH, 3
                          M           else
                          M         bsf     PCLATH, 3
                          M           endif
                          M         endif
                          M         if (CODE_SIZE == 8)
                          M           if (((LCDOUT) & 1000h) == 0)
                          M         bcf     PCLATH, 4
                          M           else
                          M         bsf     PCLATH, 4
                          M           endif
                          M         endif
                          M       else
                          M         if (CODE_SIZE >= 4)
                          M           if (((LCDOUT) & 1800h) == 0)
                          M         clrf    PCLATH
                          M           else
                          M             if (((LCDOUT) & 800h) == 0)
                          M         bcf     PCLATH, 3
                          M             else
                          M         bsf     PCLATH, 3
                          M             endif
                          M             if (CODE_SIZE == 8)
                          M               if (((LCDOUT) & 1000h) == 0)
                          M         bcf     PCLATH, 4
                          M               else
                          M         bsf     PCLATH, 4
                          M               endif
MPASM  5.49                      RTCCON~1.ASM   1-27-2021  11:00:41         PAGE 196


LOC  OBJECT CODE     LINE SOURCE TEXT
  VALUE

                          M             endif
                          M           endif
                          M         endif
                          M       endif
                          M     endif
                          M 
0251   206B               M         call    LCDOUT
                      00199         LCDOUT?C        063h
0252   3063               M         movlw   063h
                          M         L?CALL  LCDOUT
                          M         RST?RP
                          M     if ((PREV_BANK & 1) != 0)
                          M         bcf     STATUS, RP0
                          M     endif
                          M     if ((PREV_BANK & 2) != 0)
                          M         bcf     STATUS, RP1
                          M     endif
  00000000                M PREV_BANK = 0
                          M 
                          M     if ((LCDOUT) < 1)
                          M       if (CODE_SIZE >= 4)
                          M         if (((LCDOUT) & 800h) == 0)
                          M         bcf     PCLATH, 3
                          M         else
                          M         bsf     PCLATH, 3
                          M         endif
                          M       endif
                          M       if (CODE_SIZE == 8)
                          M         if (((LCDOUT) & 1000h) == 0)
                          M         bcf     PCLATH, 4
                          M         else
                          M         bsf     PCLATH, 4
                          M         endif
                          M       endif
                          M     else
                          M       if ((LCDOUT) > $)
                          M         if (CODE_SIZE >= 4)
                          M           if (((LCDOUT) & 800h) == 0)
                          M         bcf     PCLATH, 3
                          M           else
                          M         bsf     PCLATH, 3
                          M           endif
                          M         endif
                          M         if (CODE_SIZE == 8)
                          M           if (((LCDOUT) & 1000h) == 0)
                          M         bcf     PCLATH, 4
                          M           else
                          M         bsf     PCLATH, 4
                          M           endif
                          M         endif
                          M       else
                          M         if (CODE_SIZE >= 4)
                          M           if (((LCDOUT) & 1800h) == 0)
MPASM  5.49                      RTCCON~1.ASM   1-27-2021  11:00:41         PAGE 197


LOC  OBJECT CODE     LINE SOURCE TEXT
  VALUE

                          M         clrf    PCLATH
                          M           else
                          M             if (((LCDOUT) & 800h) == 0)
                          M         bcf     PCLATH, 3
                          M             else
                          M         bsf     PCLATH, 3
                          M             endif
                          M             if (CODE_SIZE == 8)
                          M               if (((LCDOUT) & 1000h) == 0)
                          M         bcf     PCLATH, 4
                          M               else
                          M         bsf     PCLATH, 4
                          M               endif
                          M             endif
                          M           endif
                          M         endif
                          M       endif
                          M     endif
                          M 
0253   206B               M         call    LCDOUT
                      00200         LCDOUT?C        074h
0254   3074               M         movlw   074h
                          M         L?CALL  LCDOUT
                          M         RST?RP
                          M     if ((PREV_BANK & 1) != 0)
                          M         bcf     STATUS, RP0
                          M     endif
                          M     if ((PREV_BANK & 2) != 0)
                          M         bcf     STATUS, RP1
                          M     endif
  00000000                M PREV_BANK = 0
                          M 
                          M     if ((LCDOUT) < 1)
                          M       if (CODE_SIZE >= 4)
                          M         if (((LCDOUT) & 800h) == 0)
                          M         bcf     PCLATH, 3
                          M         else
                          M         bsf     PCLATH, 3
                          M         endif
                          M       endif
                          M       if (CODE_SIZE == 8)
                          M         if (((LCDOUT) & 1000h) == 0)
                          M         bcf     PCLATH, 4
                          M         else
                          M         bsf     PCLATH, 4
                          M         endif
                          M       endif
                          M     else
                          M       if ((LCDOUT) > $)
                          M         if (CODE_SIZE >= 4)
                          M           if (((LCDOUT) & 800h) == 0)
                          M         bcf     PCLATH, 3
                          M           else
MPASM  5.49                      RTCCON~1.ASM   1-27-2021  11:00:41         PAGE 198


LOC  OBJECT CODE     LINE SOURCE TEXT
  VALUE

                          M         bsf     PCLATH, 3
                          M           endif
                          M         endif
                          M         if (CODE_SIZE == 8)
                          M           if (((LCDOUT) & 1000h) == 0)
                          M         bcf     PCLATH, 4
                          M           else
                          M         bsf     PCLATH, 4
                          M           endif
                          M         endif
                          M       else
                          M         if (CODE_SIZE >= 4)
                          M           if (((LCDOUT) & 1800h) == 0)
                          M         clrf    PCLATH
                          M           else
                          M             if (((LCDOUT) & 800h) == 0)
                          M         bcf     PCLATH, 3
                          M             else
                          M         bsf     PCLATH, 3
                          M             endif
                          M             if (CODE_SIZE == 8)
                          M               if (((LCDOUT) & 1000h) == 0)
                          M         bcf     PCLATH, 4
                          M               else
                          M         bsf     PCLATH, 4
                          M               endif
                          M             endif
                          M           endif
                          M         endif
                          M       endif
                          M     endif
                          M 
0255   206B               M         call    LCDOUT
                      00201         LABEL?L L00033  
                          M         RST?RP
                          M     if ((PREV_BANK & 1) != 0)
                          M         bcf     STATUS, RP0
                          M     endif
                          M     if ((PREV_BANK & 2) != 0)
                          M         bcf     STATUS, RP1
                          M     endif
  00000000                M PREV_BANK = 0
                          M     ifdef PM_USED
                          M         LALL
                          M L00033
                          M         XALL
                          M     else
0256                      M L00033
                          M     endif
                      00202         CMPNE?BCL       _mes, 011h, L00035
                          M     if (((011h) > -100h) & ((011h) < 100h))
                          M         CLRWDT?
                          M     ifndef NO_CLRWDT
MPASM  5.49                      RTCCON~1.ASM   1-27-2021  11:00:41         PAGE 199


LOC  OBJECT CODE     LINE SOURCE TEXT
  VALUE

0256   0064               M         clrwdt
                          M     endif
                          M         MOVE?BA _mes
                          M         CHK?RP  _mes
                          M     if (((_mes)  & 180h) == 0)
                          M       if (PREV_BANK == 1)
                          M         bcf     STATUS, RP0
                          M       endif
                          M       if (PREV_BANK == 2)
                          M         bcf     STATUS, RP1
                          M       endif
                          M       if (PREV_BANK == 3)
                          M         bcf     STATUS, RP0
                          M         bcf     STATUS, RP1
                          M       endif
  00000000                M PREV_BANK = 0
                          M     endif
                          M 
                          M     if (((_mes)  & 180h) == 80h)
                          M       if (PREV_BANK == 0)
                          M         bsf     STATUS, RP0
                          M       endif
                          M       if (PREV_BANK == 2)
                          M         bsf     STATUS, RP0
                          M         bcf     STATUS, RP1
                          M       endif
                          M       if (PREV_BANK == 3)
                          M         bcf     STATUS, RP1
                          M       endif
                          M PREV_BANK = 1
                          M     endif
                          M 
                          M     if (((_mes)  & 180h) == 100h)
                          M       if (PREV_BANK == 0)
                          M         bsf     STATUS, RP1
                          M       endif
                          M       if (PREV_BANK == 1)
                          M         bcf     STATUS, RP0
                          M         bsf     STATUS, RP1
                          M       endif
                          M       if (PREV_BANK == 3)
                          M         bcf     STATUS, RP0
                          M       endif
                          M PREV_BANK = 2
                          M     endif
                          M 
                          M     if (((_mes)  & 180h) == 180h)
                          M       if (PREV_BANK == 0)
                          M         bsf     STATUS, RP0
                          M         bsf     STATUS, RP1
                          M       endif
                          M       if (PREV_BANK == 1)
                          M         bsf     STATUS, RP1
MPASM  5.49                      RTCCON~1.ASM   1-27-2021  11:00:41         PAGE 200


LOC  OBJECT CODE     LINE SOURCE TEXT
  VALUE

                          M       endif
                          M       if (PREV_BANK == 2)
                          M         bsf     STATUS, RP0
                          M       endif
                          M PREV_BANK = 3
                          M     endif
0257   083C               M         movf    _mes, W
0258   3C11               M         sublw   011h
                          M         BIT?GOTO 0, STATUS, Z, L00035
                          M     if ($ == (L00035))
                          M         CLRWDT?
                          M     endif
                          M 
                          M     if (CODE_SIZE >= 4)
                          M       if (((L00035) & 800h) == 0)
                          M         bcf     PCLATH, 3
                          M       else
                          M         bsf     PCLATH, 3
                          M       endif
                          M     endif
                          M     if (CODE_SIZE == 8)
                          M       if (((L00035) & 1000h) == 0)
                          M         bcf     PCLATH, 4
                          M       else
                          M         bsf     PCLATH, 4
                          M       endif
                          M     endif
                          M 
                          M     if (((STATUS) & 0ff80h) != 0)
                          M         CHK?RP  STATUS
                          M         bcf     STATUS, DC
                          M       if ((0)      == 0)
                          M         btfss   STATUS, Z
                          M       else
                          M         btfsc   STATUS, Z
                          M       endif
                          M         bsf     STATUS, DC
                          M         RST?RP
                          M         btfsc   STATUS, DC
                          M     else
                          M         RST?RP
                          M     if ((PREV_BANK & 1) != 0)
                          M         bcf     STATUS, RP0
                          M     endif
                          M     if ((PREV_BANK & 2) != 0)
                          M         bcf     STATUS, RP1
                          M     endif
  00000000                M PREV_BANK = 0
                          M       if ((0)      == 0)
0259   1D03               M         btfss   STATUS, Z
                          M       else
                          M         btfsc   STATUS, Z
                          M       endif
MPASM  5.49                      RTCCON~1.ASM   1-27-2021  11:00:41         PAGE 201


LOC  OBJECT CODE     LINE SOURCE TEXT
  VALUE

                          M     endif
                          M 
025A   2A61               M         goto    L00035
                          M     else
                          M         L?GOTO  L00035
                          M     endif
                      00203         LCDOUT?C        06Eh
025B   306E               M         movlw   06Eh
                          M         L?CALL  LCDOUT
                          M         RST?RP
                          M     if ((PREV_BANK & 1) != 0)
                          M         bcf     STATUS, RP0
                          M     endif
                          M     if ((PREV_BANK & 2) != 0)
                          M         bcf     STATUS, RP1
                          M     endif
  00000000                M PREV_BANK = 0
                          M 
                          M     if ((LCDOUT) < 1)
                          M       if (CODE_SIZE >= 4)
                          M         if (((LCDOUT) & 800h) == 0)
                          M         bcf     PCLATH, 3
                          M         else
                          M         bsf     PCLATH, 3
                          M         endif
                          M       endif
                          M       if (CODE_SIZE == 8)
                          M         if (((LCDOUT) & 1000h) == 0)
                          M         bcf     PCLATH, 4
                          M         else
                          M         bsf     PCLATH, 4
                          M         endif
                          M       endif
                          M     else
                          M       if ((LCDOUT) > $)
                          M         if (CODE_SIZE >= 4)
                          M           if (((LCDOUT) & 800h) == 0)
                          M         bcf     PCLATH, 3
                          M           else
                          M         bsf     PCLATH, 3
                          M           endif
                          M         endif
                          M         if (CODE_SIZE == 8)
                          M           if (((LCDOUT) & 1000h) == 0)
                          M         bcf     PCLATH, 4
                          M           else
                          M         bsf     PCLATH, 4
                          M           endif
                          M         endif
                          M       else
                          M         if (CODE_SIZE >= 4)
                          M           if (((LCDOUT) & 1800h) == 0)
                          M         clrf    PCLATH
MPASM  5.49                      RTCCON~1.ASM   1-27-2021  11:00:41         PAGE 202


LOC  OBJECT CODE     LINE SOURCE TEXT
  VALUE

                          M           else
                          M             if (((LCDOUT) & 800h) == 0)
                          M         bcf     PCLATH, 3
                          M             else
                          M         bsf     PCLATH, 3
                          M             endif
                          M             if (CODE_SIZE == 8)
                          M               if (((LCDOUT) & 1000h) == 0)
                          M         bcf     PCLATH, 4
                          M               else
                          M         bsf     PCLATH, 4
                          M               endif
                          M             endif
                          M           endif
                          M         endif
                          M       endif
                          M     endif
                          M 
025C   206B               M         call    LCDOUT
                      00204         LCDOUT?C        06Fh
025D   306F               M         movlw   06Fh
                          M         L?CALL  LCDOUT
                          M         RST?RP
                          M     if ((PREV_BANK & 1) != 0)
                          M         bcf     STATUS, RP0
                          M     endif
                          M     if ((PREV_BANK & 2) != 0)
                          M         bcf     STATUS, RP1
                          M     endif
  00000000                M PREV_BANK = 0
                          M 
                          M     if ((LCDOUT) < 1)
                          M       if (CODE_SIZE >= 4)
                          M         if (((LCDOUT) & 800h) == 0)
                          M         bcf     PCLATH, 3
                          M         else
                          M         bsf     PCLATH, 3
                          M         endif
                          M       endif
                          M       if (CODE_SIZE == 8)
                          M         if (((LCDOUT) & 1000h) == 0)
                          M         bcf     PCLATH, 4
                          M         else
                          M         bsf     PCLATH, 4
                          M         endif
                          M       endif
                          M     else
                          M       if ((LCDOUT) > $)
                          M         if (CODE_SIZE >= 4)
                          M           if (((LCDOUT) & 800h) == 0)
                          M         bcf     PCLATH, 3
                          M           else
                          M         bsf     PCLATH, 3
MPASM  5.49                      RTCCON~1.ASM   1-27-2021  11:00:41         PAGE 203


LOC  OBJECT CODE     LINE SOURCE TEXT
  VALUE

                          M           endif
                          M         endif
                          M         if (CODE_SIZE == 8)
                          M           if (((LCDOUT) & 1000h) == 0)
                          M         bcf     PCLATH, 4
                          M           else
                          M         bsf     PCLATH, 4
                          M           endif
                          M         endif
                          M       else
                          M         if (CODE_SIZE >= 4)
                          M           if (((LCDOUT) & 1800h) == 0)
                          M         clrf    PCLATH
                          M           else
                          M             if (((LCDOUT) & 800h) == 0)
                          M         bcf     PCLATH, 3
                          M             else
                          M         bsf     PCLATH, 3
                          M             endif
                          M             if (CODE_SIZE == 8)
                          M               if (((LCDOUT) & 1000h) == 0)
                          M         bcf     PCLATH, 4
                          M               else
                          M         bsf     PCLATH, 4
                          M               endif
                          M             endif
                          M           endif
                          M         endif
                          M       endif
                          M     endif
                          M 
025E   206B               M         call    LCDOUT
                      00205         LCDOUT?C        076h
025F   3076               M         movlw   076h
                          M         L?CALL  LCDOUT
                          M         RST?RP
                          M     if ((PREV_BANK & 1) != 0)
                          M         bcf     STATUS, RP0
                          M     endif
                          M     if ((PREV_BANK & 2) != 0)
                          M         bcf     STATUS, RP1
                          M     endif
  00000000                M PREV_BANK = 0
                          M 
                          M     if ((LCDOUT) < 1)
                          M       if (CODE_SIZE >= 4)
                          M         if (((LCDOUT) & 800h) == 0)
                          M         bcf     PCLATH, 3
                          M         else
                          M         bsf     PCLATH, 3
                          M         endif
                          M       endif
                          M       if (CODE_SIZE == 8)
MPASM  5.49                      RTCCON~1.ASM   1-27-2021  11:00:41         PAGE 204


LOC  OBJECT CODE     LINE SOURCE TEXT
  VALUE

                          M         if (((LCDOUT) & 1000h) == 0)
                          M         bcf     PCLATH, 4
                          M         else
                          M         bsf     PCLATH, 4
                          M         endif
                          M       endif
                          M     else
                          M       if ((LCDOUT) > $)
                          M         if (CODE_SIZE >= 4)
                          M           if (((LCDOUT) & 800h) == 0)
                          M         bcf     PCLATH, 3
                          M           else
                          M         bsf     PCLATH, 3
                          M           endif
                          M         endif
                          M         if (CODE_SIZE == 8)
                          M           if (((LCDOUT) & 1000h) == 0)
                          M         bcf     PCLATH, 4
                          M           else
                          M         bsf     PCLATH, 4
                          M           endif
                          M         endif
                          M       else
                          M         if (CODE_SIZE >= 4)
                          M           if (((LCDOUT) & 1800h) == 0)
                          M         clrf    PCLATH
                          M           else
                          M             if (((LCDOUT) & 800h) == 0)
                          M         bcf     PCLATH, 3
                          M             else
                          M         bsf     PCLATH, 3
                          M             endif
                          M             if (CODE_SIZE == 8)
                          M               if (((LCDOUT) & 1000h) == 0)
                          M         bcf     PCLATH, 4
                          M               else
                          M         bsf     PCLATH, 4
                          M               endif
                          M             endif
                          M           endif
                          M         endif
                          M       endif
                          M     endif
                          M 
0260   206B               M         call    LCDOUT
                      00206         LABEL?L L00035  
                          M         RST?RP
                          M     if ((PREV_BANK & 1) != 0)
                          M         bcf     STATUS, RP0
                          M     endif
                          M     if ((PREV_BANK & 2) != 0)
                          M         bcf     STATUS, RP1
                          M     endif
MPASM  5.49                      RTCCON~1.ASM   1-27-2021  11:00:41         PAGE 205


LOC  OBJECT CODE     LINE SOURCE TEXT
  VALUE

  00000000                M PREV_BANK = 0
                          M     ifdef PM_USED
                          M         LALL
                          M L00035
                          M         XALL
                          M     else
0261                      M L00035
                          M     endif
                      00207         CMPNE?BCL       _mes, 012h, L00037
                          M     if (((012h) > -100h) & ((012h) < 100h))
                          M         CLRWDT?
                          M     ifndef NO_CLRWDT
0261   0064               M         clrwdt
                          M     endif
                          M         MOVE?BA _mes
                          M         CHK?RP  _mes
                          M     if (((_mes)  & 180h) == 0)
                          M       if (PREV_BANK == 1)
                          M         bcf     STATUS, RP0
                          M       endif
                          M       if (PREV_BANK == 2)
                          M         bcf     STATUS, RP1
                          M       endif
                          M       if (PREV_BANK == 3)
                          M         bcf     STATUS, RP0
                          M         bcf     STATUS, RP1
                          M       endif
  00000000                M PREV_BANK = 0
                          M     endif
                          M 
                          M     if (((_mes)  & 180h) == 80h)
                          M       if (PREV_BANK == 0)
                          M         bsf     STATUS, RP0
                          M       endif
                          M       if (PREV_BANK == 2)
                          M         bsf     STATUS, RP0
                          M         bcf     STATUS, RP1
                          M       endif
                          M       if (PREV_BANK == 3)
                          M         bcf     STATUS, RP1
                          M       endif
                          M PREV_BANK = 1
                          M     endif
                          M 
                          M     if (((_mes)  & 180h) == 100h)
                          M       if (PREV_BANK == 0)
                          M         bsf     STATUS, RP1
                          M       endif
                          M       if (PREV_BANK == 1)
                          M         bcf     STATUS, RP0
                          M         bsf     STATUS, RP1
                          M       endif
                          M       if (PREV_BANK == 3)
MPASM  5.49                      RTCCON~1.ASM   1-27-2021  11:00:41         PAGE 206


LOC  OBJECT CODE     LINE SOURCE TEXT
  VALUE

                          M         bcf     STATUS, RP0
                          M       endif
                          M PREV_BANK = 2
                          M     endif
                          M 
                          M     if (((_mes)  & 180h) == 180h)
                          M       if (PREV_BANK == 0)
                          M         bsf     STATUS, RP0
                          M         bsf     STATUS, RP1
                          M       endif
                          M       if (PREV_BANK == 1)
                          M         bsf     STATUS, RP1
                          M       endif
                          M       if (PREV_BANK == 2)
                          M         bsf     STATUS, RP0
                          M       endif
                          M PREV_BANK = 3
                          M     endif
0262   083C               M         movf    _mes, W
0263   3C12               M         sublw   012h
                          M         BIT?GOTO 0, STATUS, Z, L00037
                          M     if ($ == (L00037))
                          M         CLRWDT?
                          M     endif
                          M 
                          M     if (CODE_SIZE >= 4)
                          M       if (((L00037) & 800h) == 0)
                          M         bcf     PCLATH, 3
                          M       else
                          M         bsf     PCLATH, 3
                          M       endif
                          M     endif
                          M     if (CODE_SIZE == 8)
                          M       if (((L00037) & 1000h) == 0)
                          M         bcf     PCLATH, 4
                          M       else
                          M         bsf     PCLATH, 4
                          M       endif
                          M     endif
                          M 
                          M     if (((STATUS) & 0ff80h) != 0)
                          M         CHK?RP  STATUS
                          M         bcf     STATUS, DC
                          M       if ((0)      == 0)
                          M         btfss   STATUS, Z
                          M       else
                          M         btfsc   STATUS, Z
                          M       endif
                          M         bsf     STATUS, DC
                          M         RST?RP
                          M         btfsc   STATUS, DC
                          M     else
                          M         RST?RP
MPASM  5.49                      RTCCON~1.ASM   1-27-2021  11:00:41         PAGE 207


LOC  OBJECT CODE     LINE SOURCE TEXT
  VALUE

                          M     if ((PREV_BANK & 1) != 0)
                          M         bcf     STATUS, RP0
                          M     endif
                          M     if ((PREV_BANK & 2) != 0)
                          M         bcf     STATUS, RP1
                          M     endif
  00000000                M PREV_BANK = 0
                          M       if ((0)      == 0)
0264   1D03               M         btfss   STATUS, Z
                          M       else
                          M         btfsc   STATUS, Z
                          M       endif
                          M     endif
                          M 
0265   2A6C               M         goto    L00037
                          M     else
                          M         L?GOTO  L00037
                          M     endif
                      00208         LCDOUT?C        064h
0266   3064               M         movlw   064h
                          M         L?CALL  LCDOUT
                          M         RST?RP
                          M     if ((PREV_BANK & 1) != 0)
                          M         bcf     STATUS, RP0
                          M     endif
                          M     if ((PREV_BANK & 2) != 0)
                          M         bcf     STATUS, RP1
                          M     endif
  00000000                M PREV_BANK = 0
                          M 
                          M     if ((LCDOUT) < 1)
                          M       if (CODE_SIZE >= 4)
                          M         if (((LCDOUT) & 800h) == 0)
                          M         bcf     PCLATH, 3
                          M         else
                          M         bsf     PCLATH, 3
                          M         endif
                          M       endif
                          M       if (CODE_SIZE == 8)
                          M         if (((LCDOUT) & 1000h) == 0)
                          M         bcf     PCLATH, 4
                          M         else
                          M         bsf     PCLATH, 4
                          M         endif
                          M       endif
                          M     else
                          M       if ((LCDOUT) > $)
                          M         if (CODE_SIZE >= 4)
                          M           if (((LCDOUT) & 800h) == 0)
                          M         bcf     PCLATH, 3
                          M           else
                          M         bsf     PCLATH, 3
                          M           endif
MPASM  5.49                      RTCCON~1.ASM   1-27-2021  11:00:41         PAGE 208


LOC  OBJECT CODE     LINE SOURCE TEXT
  VALUE

                          M         endif
                          M         if (CODE_SIZE == 8)
                          M           if (((LCDOUT) & 1000h) == 0)
                          M         bcf     PCLATH, 4
                          M           else
                          M         bsf     PCLATH, 4
                          M           endif
                          M         endif
                          M       else
                          M         if (CODE_SIZE >= 4)
                          M           if (((LCDOUT) & 1800h) == 0)
                          M         clrf    PCLATH
                          M           else
                          M             if (((LCDOUT) & 800h) == 0)
                          M         bcf     PCLATH, 3
                          M             else
                          M         bsf     PCLATH, 3
                          M             endif
                          M             if (CODE_SIZE == 8)
                          M               if (((LCDOUT) & 1000h) == 0)
                          M         bcf     PCLATH, 4
                          M               else
                          M         bsf     PCLATH, 4
                          M               endif
                          M             endif
                          M           endif
                          M         endif
                          M       endif
                          M     endif
                          M 
0267   206B               M         call    LCDOUT
                      00209         LCDOUT?C        069h
0268   3069               M         movlw   069h
                          M         L?CALL  LCDOUT
                          M         RST?RP
                          M     if ((PREV_BANK & 1) != 0)
                          M         bcf     STATUS, RP0
                          M     endif
                          M     if ((PREV_BANK & 2) != 0)
                          M         bcf     STATUS, RP1
                          M     endif
  00000000                M PREV_BANK = 0
                          M 
                          M     if ((LCDOUT) < 1)
                          M       if (CODE_SIZE >= 4)
                          M         if (((LCDOUT) & 800h) == 0)
                          M         bcf     PCLATH, 3
                          M         else
                          M         bsf     PCLATH, 3
                          M         endif
                          M       endif
                          M       if (CODE_SIZE == 8)
                          M         if (((LCDOUT) & 1000h) == 0)
MPASM  5.49                      RTCCON~1.ASM   1-27-2021  11:00:41         PAGE 209


LOC  OBJECT CODE     LINE SOURCE TEXT
  VALUE

                          M         bcf     PCLATH, 4
                          M         else
                          M         bsf     PCLATH, 4
                          M         endif
                          M       endif
                          M     else
                          M       if ((LCDOUT) > $)
                          M         if (CODE_SIZE >= 4)
                          M           if (((LCDOUT) & 800h) == 0)
                          M         bcf     PCLATH, 3
                          M           else
                          M         bsf     PCLATH, 3
                          M           endif
                          M         endif
                          M         if (CODE_SIZE == 8)
                          M           if (((LCDOUT) & 1000h) == 0)
                          M         bcf     PCLATH, 4
                          M           else
                          M         bsf     PCLATH, 4
                          M           endif
                          M         endif
                          M       else
                          M         if (CODE_SIZE >= 4)
                          M           if (((LCDOUT) & 1800h) == 0)
                          M         clrf    PCLATH
                          M           else
                          M             if (((LCDOUT) & 800h) == 0)
                          M         bcf     PCLATH, 3
                          M             else
                          M         bsf     PCLATH, 3
                          M             endif
                          M             if (CODE_SIZE == 8)
                          M               if (((LCDOUT) & 1000h) == 0)
                          M         bcf     PCLATH, 4
                          M               else
                          M         bsf     PCLATH, 4
                          M               endif
                          M             endif
                          M           endif
                          M         endif
                          M       endif
                          M     endif
                          M 
0269   206B               M         call    LCDOUT
                      00210         LCDOUT?C        063h
026A   3063               M         movlw   063h
                          M         L?CALL  LCDOUT
                          M         RST?RP
                          M     if ((PREV_BANK & 1) != 0)
                          M         bcf     STATUS, RP0
                          M     endif
                          M     if ((PREV_BANK & 2) != 0)
                          M         bcf     STATUS, RP1
MPASM  5.49                      RTCCON~1.ASM   1-27-2021  11:00:41         PAGE 210


LOC  OBJECT CODE     LINE SOURCE TEXT
  VALUE

                          M     endif
  00000000                M PREV_BANK = 0
                          M 
                          M     if ((LCDOUT) < 1)
                          M       if (CODE_SIZE >= 4)
                          M         if (((LCDOUT) & 800h) == 0)
                          M         bcf     PCLATH, 3
                          M         else
                          M         bsf     PCLATH, 3
                          M         endif
                          M       endif
                          M       if (CODE_SIZE == 8)
                          M         if (((LCDOUT) & 1000h) == 0)
                          M         bcf     PCLATH, 4
                          M         else
                          M         bsf     PCLATH, 4
                          M         endif
                          M       endif
                          M     else
                          M       if ((LCDOUT) > $)
                          M         if (CODE_SIZE >= 4)
                          M           if (((LCDOUT) & 800h) == 0)
                          M         bcf     PCLATH, 3
                          M           else
                          M         bsf     PCLATH, 3
                          M           endif
                          M         endif
                          M         if (CODE_SIZE == 8)
                          M           if (((LCDOUT) & 1000h) == 0)
                          M         bcf     PCLATH, 4
                          M           else
                          M         bsf     PCLATH, 4
                          M           endif
                          M         endif
                          M       else
                          M         if (CODE_SIZE >= 4)
                          M           if (((LCDOUT) & 1800h) == 0)
                          M         clrf    PCLATH
                          M           else
                          M             if (((LCDOUT) & 800h) == 0)
                          M         bcf     PCLATH, 3
                          M             else
                          M         bsf     PCLATH, 3
                          M             endif
                          M             if (CODE_SIZE == 8)
                          M               if (((LCDOUT) & 1000h) == 0)
                          M         bcf     PCLATH, 4
                          M               else
                          M         bsf     PCLATH, 4
                          M               endif
                          M             endif
                          M           endif
                          M         endif
MPASM  5.49                      RTCCON~1.ASM   1-27-2021  11:00:41         PAGE 211


LOC  OBJECT CODE     LINE SOURCE TEXT
  VALUE

                          M       endif
                          M     endif
                          M 
026B   206B               M         call    LCDOUT
                      00211         LABEL?L L00037  
                          M         RST?RP
                          M     if ((PREV_BANK & 1) != 0)
                          M         bcf     STATUS, RP0
                          M     endif
                          M     if ((PREV_BANK & 2) != 0)
                          M         bcf     STATUS, RP1
                          M     endif
  00000000                M PREV_BANK = 0
                          M     ifdef PM_USED
                          M         LALL
                          M L00037
                          M         XALL
                          M     else
026C                      M L00037
                          M     endif
                      00212         LCDOUT?C        02Fh
026C   302F               M         movlw   02Fh
                          M         L?CALL  LCDOUT
                          M         RST?RP
                          M     if ((PREV_BANK & 1) != 0)
                          M         bcf     STATUS, RP0
                          M     endif
                          M     if ((PREV_BANK & 2) != 0)
                          M         bcf     STATUS, RP1
                          M     endif
  00000000                M PREV_BANK = 0
                          M 
                          M     if ((LCDOUT) < 1)
                          M       if (CODE_SIZE >= 4)
                          M         if (((LCDOUT) & 800h) == 0)
                          M         bcf     PCLATH, 3
                          M         else
                          M         bsf     PCLATH, 3
                          M         endif
                          M       endif
                          M       if (CODE_SIZE == 8)
                          M         if (((LCDOUT) & 1000h) == 0)
                          M         bcf     PCLATH, 4
                          M         else
                          M         bsf     PCLATH, 4
                          M         endif
                          M       endif
                          M     else
                          M       if ((LCDOUT) > $)
                          M         if (CODE_SIZE >= 4)
                          M           if (((LCDOUT) & 800h) == 0)
                          M         bcf     PCLATH, 3
                          M           else
MPASM  5.49                      RTCCON~1.ASM   1-27-2021  11:00:41         PAGE 212


LOC  OBJECT CODE     LINE SOURCE TEXT
  VALUE

                          M         bsf     PCLATH, 3
                          M           endif
                          M         endif
                          M         if (CODE_SIZE == 8)
                          M           if (((LCDOUT) & 1000h) == 0)
                          M         bcf     PCLATH, 4
                          M           else
                          M         bsf     PCLATH, 4
                          M           endif
                          M         endif
                          M       else
                          M         if (CODE_SIZE >= 4)
                          M           if (((LCDOUT) & 1800h) == 0)
                          M         clrf    PCLATH
                          M           else
                          M             if (((LCDOUT) & 800h) == 0)
                          M         bcf     PCLATH, 3
                          M             else
                          M         bsf     PCLATH, 3
                          M             endif
                          M             if (CODE_SIZE == 8)
                          M               if (((LCDOUT) & 1000h) == 0)
                          M         bcf     PCLATH, 4
                          M               else
                          M         bsf     PCLATH, 4
                          M               endif
                          M             endif
                          M           endif
                          M         endif
                          M       endif
                          M     endif
                          M 
026D   206B               M         call    LCDOUT
                      00213         LCDOUT?C        032h
026E   3032               M         movlw   032h
                          M         L?CALL  LCDOUT
                          M         RST?RP
                          M     if ((PREV_BANK & 1) != 0)
                          M         bcf     STATUS, RP0
                          M     endif
                          M     if ((PREV_BANK & 2) != 0)
                          M         bcf     STATUS, RP1
                          M     endif
  00000000                M PREV_BANK = 0
                          M 
                          M     if ((LCDOUT) < 1)
                          M       if (CODE_SIZE >= 4)
                          M         if (((LCDOUT) & 800h) == 0)
                          M         bcf     PCLATH, 3
                          M         else
                          M         bsf     PCLATH, 3
                          M         endif
                          M       endif
MPASM  5.49                      RTCCON~1.ASM   1-27-2021  11:00:41         PAGE 213


LOC  OBJECT CODE     LINE SOURCE TEXT
  VALUE

                          M       if (CODE_SIZE == 8)
                          M         if (((LCDOUT) & 1000h) == 0)
                          M         bcf     PCLATH, 4
                          M         else
                          M         bsf     PCLATH, 4
                          M         endif
                          M       endif
                          M     else
                          M       if ((LCDOUT) > $)
                          M         if (CODE_SIZE >= 4)
                          M           if (((LCDOUT) & 800h) == 0)
                          M         bcf     PCLATH, 3
                          M           else
                          M         bsf     PCLATH, 3
                          M           endif
                          M         endif
                          M         if (CODE_SIZE == 8)
                          M           if (((LCDOUT) & 1000h) == 0)
                          M         bcf     PCLATH, 4
                          M           else
                          M         bsf     PCLATH, 4
                          M           endif
                          M         endif
                          M       else
                          M         if (CODE_SIZE >= 4)
                          M           if (((LCDOUT) & 1800h) == 0)
                          M         clrf    PCLATH
                          M           else
                          M             if (((LCDOUT) & 800h) == 0)
                          M         bcf     PCLATH, 3
                          M             else
                          M         bsf     PCLATH, 3
                          M             endif
                          M             if (CODE_SIZE == 8)
                          M               if (((LCDOUT) & 1000h) == 0)
                          M         bcf     PCLATH, 4
                          M               else
                          M         bsf     PCLATH, 4
                          M               endif
                          M             endif
                          M           endif
                          M         endif
                          M       endif
                          M     endif
                          M 
026F   206B               M         call    LCDOUT
                      00214         LCDOUT?C        030h
0270   3030               M         movlw   030h
                          M         L?CALL  LCDOUT
                          M         RST?RP
                          M     if ((PREV_BANK & 1) != 0)
                          M         bcf     STATUS, RP0
                          M     endif
MPASM  5.49                      RTCCON~1.ASM   1-27-2021  11:00:41         PAGE 214


LOC  OBJECT CODE     LINE SOURCE TEXT
  VALUE

                          M     if ((PREV_BANK & 2) != 0)
                          M         bcf     STATUS, RP1
                          M     endif
  00000000                M PREV_BANK = 0
                          M 
                          M     if ((LCDOUT) < 1)
                          M       if (CODE_SIZE >= 4)
                          M         if (((LCDOUT) & 800h) == 0)
                          M         bcf     PCLATH, 3
                          M         else
                          M         bsf     PCLATH, 3
                          M         endif
                          M       endif
                          M       if (CODE_SIZE == 8)
                          M         if (((LCDOUT) & 1000h) == 0)
                          M         bcf     PCLATH, 4
                          M         else
                          M         bsf     PCLATH, 4
                          M         endif
                          M       endif
                          M     else
                          M       if ((LCDOUT) > $)
                          M         if (CODE_SIZE >= 4)
                          M           if (((LCDOUT) & 800h) == 0)
                          M         bcf     PCLATH, 3
                          M           else
                          M         bsf     PCLATH, 3
                          M           endif
                          M         endif
                          M         if (CODE_SIZE == 8)
                          M           if (((LCDOUT) & 1000h) == 0)
                          M         bcf     PCLATH, 4
                          M           else
                          M         bsf     PCLATH, 4
                          M           endif
                          M         endif
                          M       else
                          M         if (CODE_SIZE >= 4)
                          M           if (((LCDOUT) & 1800h) == 0)
                          M         clrf    PCLATH
                          M           else
                          M             if (((LCDOUT) & 800h) == 0)
                          M         bcf     PCLATH, 3
                          M             else
                          M         bsf     PCLATH, 3
                          M             endif
                          M             if (CODE_SIZE == 8)
                          M               if (((LCDOUT) & 1000h) == 0)
                          M         bcf     PCLATH, 4
                          M               else
                          M         bsf     PCLATH, 4
                          M               endif
                          M             endif
MPASM  5.49                      RTCCON~1.ASM   1-27-2021  11:00:41         PAGE 215


LOC  OBJECT CODE     LINE SOURCE TEXT
  VALUE

                          M           endif
                          M         endif
                          M       endif
                          M     endif
                          M 
0271   206B               M         call    LCDOUT
                      00215         LCDOUTCOUNT?C   002h
                          M         MOVE?CB 002h, R4 + 1
                          M         CHK?RP  R4 + 1
                          M     if (((R4 + 1) & 180h) == 0)
                          M       if (PREV_BANK == 1)
                          M         bcf     STATUS, RP0
                          M       endif
                          M       if (PREV_BANK == 2)
                          M         bcf     STATUS, RP1
                          M       endif
                          M       if (PREV_BANK == 3)
                          M         bcf     STATUS, RP0
                          M         bcf     STATUS, RP1
                          M       endif
  00000000                M PREV_BANK = 0
                          M     endif
                          M 
                          M     if (((R4 + 1) & 180h) == 80h)
                          M       if (PREV_BANK == 0)
                          M         bsf     STATUS, RP0
                          M       endif
                          M       if (PREV_BANK == 2)
                          M         bsf     STATUS, RP0
                          M         bcf     STATUS, RP1
                          M       endif
                          M       if (PREV_BANK == 3)
                          M         bcf     STATUS, RP1
                          M       endif
                          M PREV_BANK = 1
                          M     endif
                          M 
                          M     if (((R4 + 1) & 180h) == 100h)
                          M       if (PREV_BANK == 0)
                          M         bsf     STATUS, RP1
                          M       endif
                          M       if (PREV_BANK == 1)
                          M         bcf     STATUS, RP0
                          M         bsf     STATUS, RP1
                          M       endif
                          M       if (PREV_BANK == 3)
                          M         bcf     STATUS, RP0
                          M       endif
                          M PREV_BANK = 2
                          M     endif
                          M 
                          M     if (((R4 + 1) & 180h) == 180h)
                          M       if (PREV_BANK == 0)
MPASM  5.49                      RTCCON~1.ASM   1-27-2021  11:00:41         PAGE 216


LOC  OBJECT CODE     LINE SOURCE TEXT
  VALUE

                          M         bsf     STATUS, RP0
                          M         bsf     STATUS, RP1
                          M       endif
                          M       if (PREV_BANK == 1)
                          M         bsf     STATUS, RP1
                          M       endif
                          M       if (PREV_BANK == 2)
                          M         bsf     STATUS, RP0
                          M       endif
                          M PREV_BANK = 3
                          M     endif
                          M     if (low (002h) == 0)
                          M         clrf    R4 + 1
                          M     else
0272   3002               M         movlw   low (002h)
0273   00A9               M         movwf   R4 + 1
                          M     endif
                      00216         LCDOUTNUM?B     _anio
                          M         MOVE?BW _anio, R2
                          M         CHK?RP  _anio
                          M     if (((_anio) & 180h) == 0)
                          M       if (PREV_BANK == 1)
                          M         bcf     STATUS, RP0
                          M       endif
                          M       if (PREV_BANK == 2)
                          M         bcf     STATUS, RP1
                          M       endif
                          M       if (PREV_BANK == 3)
                          M         bcf     STATUS, RP0
                          M         bcf     STATUS, RP1
                          M       endif
  00000000                M PREV_BANK = 0
                          M     endif
                          M 
                          M     if (((_anio) & 180h) == 80h)
                          M       if (PREV_BANK == 0)
                          M         bsf     STATUS, RP0
                          M       endif
                          M       if (PREV_BANK == 2)
                          M         bsf     STATUS, RP0
                          M         bcf     STATUS, RP1
                          M       endif
                          M       if (PREV_BANK == 3)
                          M         bcf     STATUS, RP1
                          M       endif
                          M PREV_BANK = 1
                          M     endif
                          M 
                          M     if (((_anio) & 180h) == 100h)
                          M       if (PREV_BANK == 0)
                          M         bsf     STATUS, RP1
                          M       endif
                          M       if (PREV_BANK == 1)
MPASM  5.49                      RTCCON~1.ASM   1-27-2021  11:00:41         PAGE 217


LOC  OBJECT CODE     LINE SOURCE TEXT
  VALUE

                          M         bcf     STATUS, RP0
                          M         bsf     STATUS, RP1
                          M       endif
                          M       if (PREV_BANK == 3)
                          M         bcf     STATUS, RP0
                          M       endif
                          M PREV_BANK = 2
                          M     endif
                          M 
                          M     if (((_anio) & 180h) == 180h)
                          M       if (PREV_BANK == 0)
                          M         bsf     STATUS, RP0
                          M         bsf     STATUS, RP1
                          M       endif
                          M       if (PREV_BANK == 1)
                          M         bsf     STATUS, RP1
                          M       endif
                          M       if (PREV_BANK == 2)
                          M         bsf     STATUS, RP0
                          M       endif
                          M PREV_BANK = 3
                          M     endif
0274   0838               M         movf    _anio, W
                          M         CHK?RP  R2
                          M     if (((R2)    & 180h) == 0)
                          M       if (PREV_BANK == 1)
                          M         bcf     STATUS, RP0
                          M       endif
                          M       if (PREV_BANK == 2)
                          M         bcf     STATUS, RP1
                          M       endif
                          M       if (PREV_BANK == 3)
                          M         bcf     STATUS, RP0
                          M         bcf     STATUS, RP1
                          M       endif
  00000000                M PREV_BANK = 0
                          M     endif
                          M 
                          M     if (((R2)    & 180h) == 80h)
                          M       if (PREV_BANK == 0)
                          M         bsf     STATUS, RP0
                          M       endif
                          M       if (PREV_BANK == 2)
                          M         bsf     STATUS, RP0
                          M         bcf     STATUS, RP1
                          M       endif
                          M       if (PREV_BANK == 3)
                          M         bcf     STATUS, RP1
                          M       endif
                          M PREV_BANK = 1
                          M     endif
                          M 
                          M     if (((R2)    & 180h) == 100h)
MPASM  5.49                      RTCCON~1.ASM   1-27-2021  11:00:41         PAGE 218


LOC  OBJECT CODE     LINE SOURCE TEXT
  VALUE

                          M       if (PREV_BANK == 0)
                          M         bsf     STATUS, RP1
                          M       endif
                          M       if (PREV_BANK == 1)
                          M         bcf     STATUS, RP0
                          M         bsf     STATUS, RP1
                          M       endif
                          M       if (PREV_BANK == 3)
                          M         bcf     STATUS, RP0
                          M       endif
                          M PREV_BANK = 2
                          M     endif
                          M 
                          M     if (((R2)    & 180h) == 180h)
                          M       if (PREV_BANK == 0)
                          M         bsf     STATUS, RP0
                          M         bsf     STATUS, RP1
                          M       endif
                          M       if (PREV_BANK == 1)
                          M         bsf     STATUS, RP1
                          M       endif
                          M       if (PREV_BANK == 2)
                          M         bsf     STATUS, RP0
                          M       endif
                          M PREV_BANK = 3
                          M     endif
0275   00A4               M         movwf   R2
0276   01A5               M         clrf    (R2)   + 1
                      00217         LCDOUTHEX?      
                          M         MOVE?CW LCDOUTJ, R8
                          M         MOVE?CB low (LCDOUTJ), R8
                          M         CHK?RP  R8
                          M     if (((R8)    & 180h) == 0)
                          M       if (PREV_BANK == 1)
                          M         bcf     STATUS, RP0
                          M       endif
                          M       if (PREV_BANK == 2)
                          M         bcf     STATUS, RP1
                          M       endif
                          M       if (PREV_BANK == 3)
                          M         bcf     STATUS, RP0
                          M         bcf     STATUS, RP1
                          M       endif
  00000000                M PREV_BANK = 0
                          M     endif
                          M 
                          M     if (((R8)    & 180h) == 80h)
                          M       if (PREV_BANK == 0)
                          M         bsf     STATUS, RP0
                          M       endif
                          M       if (PREV_BANK == 2)
                          M         bsf     STATUS, RP0
                          M         bcf     STATUS, RP1
MPASM  5.49                      RTCCON~1.ASM   1-27-2021  11:00:41         PAGE 219


LOC  OBJECT CODE     LINE SOURCE TEXT
  VALUE

                          M       endif
                          M       if (PREV_BANK == 3)
                          M         bcf     STATUS, RP1
                          M       endif
                          M PREV_BANK = 1
                          M     endif
                          M 
                          M     if (((R8)    & 180h) == 100h)
                          M       if (PREV_BANK == 0)
                          M         bsf     STATUS, RP1
                          M       endif
                          M       if (PREV_BANK == 1)
                          M         bcf     STATUS, RP0
                          M         bsf     STATUS, RP1
                          M       endif
                          M       if (PREV_BANK == 3)
                          M         bcf     STATUS, RP0
                          M       endif
                          M PREV_BANK = 2
                          M     endif
                          M 
                          M     if (((R8)    & 180h) == 180h)
                          M       if (PREV_BANK == 0)
                          M         bsf     STATUS, RP0
                          M         bsf     STATUS, RP1
                          M       endif
                          M       if (PREV_BANK == 1)
                          M         bsf     STATUS, RP1
                          M       endif
                          M       if (PREV_BANK == 2)
                          M         bsf     STATUS, RP0
                          M       endif
                          M PREV_BANK = 3
                          M     endif
                          M     if (low (low (LCDOUTJ)) == 0)
                          M         clrf    R8
                          M     else
0277   306A               M         movlw   low (low (LCDOUTJ))
0278   00B0               M         movwf   R8
                          M     endif
                          M         MOVE?CB high (LCDOUTJ), (R8) + 1
                          M         CHK?RP  (R8) + 1
                          M     if ((((R8) + 1) & 180h) == 0)
                          M       if (PREV_BANK == 1)
                          M         bcf     STATUS, RP0
                          M       endif
                          M       if (PREV_BANK == 2)
                          M         bcf     STATUS, RP1
                          M       endif
                          M       if (PREV_BANK == 3)
                          M         bcf     STATUS, RP0
                          M         bcf     STATUS, RP1
                          M       endif
MPASM  5.49                      RTCCON~1.ASM   1-27-2021  11:00:41         PAGE 220


LOC  OBJECT CODE     LINE SOURCE TEXT
  VALUE

  00000000                M PREV_BANK = 0
                          M     endif
                          M 
                          M     if ((((R8) + 1) & 180h) == 80h)
                          M       if (PREV_BANK == 0)
                          M         bsf     STATUS, RP0
                          M       endif
                          M       if (PREV_BANK == 2)
                          M         bsf     STATUS, RP0
                          M         bcf     STATUS, RP1
                          M       endif
                          M       if (PREV_BANK == 3)
                          M         bcf     STATUS, RP1
                          M       endif
                          M PREV_BANK = 1
                          M     endif
                          M 
                          M     if ((((R8) + 1) & 180h) == 100h)
                          M       if (PREV_BANK == 0)
                          M         bsf     STATUS, RP1
                          M       endif
                          M       if (PREV_BANK == 1)
                          M         bcf     STATUS, RP0
                          M         bsf     STATUS, RP1
                          M       endif
                          M       if (PREV_BANK == 3)
                          M         bcf     STATUS, RP0
                          M       endif
                          M PREV_BANK = 2
                          M     endif
                          M 
                          M     if ((((R8) + 1) & 180h) == 180h)
                          M       if (PREV_BANK == 0)
                          M         bsf     STATUS, RP0
                          M         bsf     STATUS, RP1
                          M       endif
                          M       if (PREV_BANK == 1)
                          M         bsf     STATUS, RP1
                          M       endif
                          M       if (PREV_BANK == 2)
                          M         bsf     STATUS, RP0
                          M       endif
                          M PREV_BANK = 3
                          M     endif
                          M     if (low (high (LCDOUTJ)) == 0)
0279   01B1               M         clrf    (R8) + 1
                          M     else
                          M         movlw   low (high (LCDOUTJ))
                          M         movwf   (R8) + 1
                          M     endif
                          M         L?CALL  SEROUT2HEX
                          M         RST?RP
                          M     if ((PREV_BANK & 1) != 0)
MPASM  5.49                      RTCCON~1.ASM   1-27-2021  11:00:41         PAGE 221


LOC  OBJECT CODE     LINE SOURCE TEXT
  VALUE

                          M         bcf     STATUS, RP0
                          M     endif
                          M     if ((PREV_BANK & 2) != 0)
                          M         bcf     STATUS, RP1
                          M     endif
  00000000                M PREV_BANK = 0
                          M 
                          M     if ((SEROUT2HEX) < 1)
                          M       if (CODE_SIZE >= 4)
                          M         if (((SEROUT2HEX) & 800h) == 0)
                          M         bcf     PCLATH, 3
                          M         else
                          M         bsf     PCLATH, 3
                          M         endif
                          M       endif
                          M       if (CODE_SIZE == 8)
                          M         if (((SEROUT2HEX) & 1000h) == 0)
                          M         bcf     PCLATH, 4
                          M         else
                          M         bsf     PCLATH, 4
                          M         endif
                          M       endif
                          M     else
                          M       if ((SEROUT2HEX) > $)
                          M         if (CODE_SIZE >= 4)
                          M           if (((SEROUT2HEX) & 800h) == 0)
                          M         bcf     PCLATH, 3
                          M           else
                          M         bsf     PCLATH, 3
                          M           endif
                          M         endif
                          M         if (CODE_SIZE == 8)
                          M           if (((SEROUT2HEX) & 1000h) == 0)
                          M         bcf     PCLATH, 4
                          M           else
                          M         bsf     PCLATH, 4
                          M           endif
                          M         endif
                          M       else
                          M         if (CODE_SIZE >= 4)
                          M           if (((SEROUT2HEX) & 1800h) == 0)
                          M         clrf    PCLATH
                          M           else
                          M             if (((SEROUT2HEX) & 800h) == 0)
                          M         bcf     PCLATH, 3
                          M             else
                          M         bsf     PCLATH, 3
                          M             endif
                          M             if (CODE_SIZE == 8)
                          M               if (((SEROUT2HEX) & 1000h) == 0)
                          M         bcf     PCLATH, 4
                          M               else
                          M         bsf     PCLATH, 4
MPASM  5.49                      RTCCON~1.ASM   1-27-2021  11:00:41         PAGE 222


LOC  OBJECT CODE     LINE SOURCE TEXT
  VALUE

                          M               endif
                          M             endif
                          M           endif
                          M         endif
                          M       endif
                          M     endif
                          M 
027A   20BA               M         call    SEROUT2HEX
                      00218         LCDOUT?C        0FEh
027B   30FE               M         movlw   0FEh
                          M         L?CALL  LCDOUT
                          M         RST?RP
                          M     if ((PREV_BANK & 1) != 0)
                          M         bcf     STATUS, RP0
                          M     endif
                          M     if ((PREV_BANK & 2) != 0)
                          M         bcf     STATUS, RP1
                          M     endif
  00000000                M PREV_BANK = 0
                          M 
                          M     if ((LCDOUT) < 1)
                          M       if (CODE_SIZE >= 4)
                          M         if (((LCDOUT) & 800h) == 0)
                          M         bcf     PCLATH, 3
                          M         else
                          M         bsf     PCLATH, 3
                          M         endif
                          M       endif
                          M       if (CODE_SIZE == 8)
                          M         if (((LCDOUT) & 1000h) == 0)
                          M         bcf     PCLATH, 4
                          M         else
                          M         bsf     PCLATH, 4
                          M         endif
                          M       endif
                          M     else
                          M       if ((LCDOUT) > $)
                          M         if (CODE_SIZE >= 4)
                          M           if (((LCDOUT) & 800h) == 0)
                          M         bcf     PCLATH, 3
                          M           else
                          M         bsf     PCLATH, 3
                          M           endif
                          M         endif
                          M         if (CODE_SIZE == 8)
                          M           if (((LCDOUT) & 1000h) == 0)
                          M         bcf     PCLATH, 4
                          M           else
                          M         bsf     PCLATH, 4
                          M           endif
                          M         endif
                          M       else
                          M         if (CODE_SIZE >= 4)
MPASM  5.49                      RTCCON~1.ASM   1-27-2021  11:00:41         PAGE 223


LOC  OBJECT CODE     LINE SOURCE TEXT
  VALUE

                          M           if (((LCDOUT) & 1800h) == 0)
                          M         clrf    PCLATH
                          M           else
                          M             if (((LCDOUT) & 800h) == 0)
                          M         bcf     PCLATH, 3
                          M             else
                          M         bsf     PCLATH, 3
                          M             endif
                          M             if (CODE_SIZE == 8)
                          M               if (((LCDOUT) & 1000h) == 0)
                          M         bcf     PCLATH, 4
                          M               else
                          M         bsf     PCLATH, 4
                          M               endif
                          M             endif
                          M           endif
                          M         endif
                          M       endif
                          M     endif
                          M 
027C   206B               M         call    LCDOUT
                      00219         LCDOUT?C        0C0h
027D   30C0               M         movlw   0C0h
                          M         L?CALL  LCDOUT
                          M         RST?RP
                          M     if ((PREV_BANK & 1) != 0)
                          M         bcf     STATUS, RP0
                          M     endif
                          M     if ((PREV_BANK & 2) != 0)
                          M         bcf     STATUS, RP1
                          M     endif
  00000000                M PREV_BANK = 0
                          M 
                          M     if ((LCDOUT) < 1)
                          M       if (CODE_SIZE >= 4)
                          M         if (((LCDOUT) & 800h) == 0)
                          M         bcf     PCLATH, 3
                          M         else
                          M         bsf     PCLATH, 3
                          M         endif
                          M       endif
                          M       if (CODE_SIZE == 8)
                          M         if (((LCDOUT) & 1000h) == 0)
                          M         bcf     PCLATH, 4
                          M         else
                          M         bsf     PCLATH, 4
                          M         endif
                          M       endif
                          M     else
                          M       if ((LCDOUT) > $)
                          M         if (CODE_SIZE >= 4)
                          M           if (((LCDOUT) & 800h) == 0)
                          M         bcf     PCLATH, 3
MPASM  5.49                      RTCCON~1.ASM   1-27-2021  11:00:41         PAGE 224


LOC  OBJECT CODE     LINE SOURCE TEXT
  VALUE

                          M           else
                          M         bsf     PCLATH, 3
                          M           endif
                          M         endif
                          M         if (CODE_SIZE == 8)
                          M           if (((LCDOUT) & 1000h) == 0)
                          M         bcf     PCLATH, 4
                          M           else
                          M         bsf     PCLATH, 4
                          M           endif
                          M         endif
                          M       else
                          M         if (CODE_SIZE >= 4)
                          M           if (((LCDOUT) & 1800h) == 0)
                          M         clrf    PCLATH
                          M           else
                          M             if (((LCDOUT) & 800h) == 0)
                          M         bcf     PCLATH, 3
                          M             else
                          M         bsf     PCLATH, 3
                          M             endif
                          M             if (CODE_SIZE == 8)
                          M               if (((LCDOUT) & 1000h) == 0)
                          M         bcf     PCLATH, 4
                          M               else
                          M         bsf     PCLATH, 4
                          M               endif
                          M             endif
                          M           endif
                          M         endif
                          M       endif
                          M     endif
                          M 
027E   206B               M         call    LCDOUT
                      00220         LCDOUTCOUNT?C   002h
                          M         MOVE?CB 002h, R4 + 1
                          M         CHK?RP  R4 + 1
                          M     if (((R4 + 1) & 180h) == 0)
                          M       if (PREV_BANK == 1)
                          M         bcf     STATUS, RP0
                          M       endif
                          M       if (PREV_BANK == 2)
                          M         bcf     STATUS, RP1
                          M       endif
                          M       if (PREV_BANK == 3)
                          M         bcf     STATUS, RP0
                          M         bcf     STATUS, RP1
                          M       endif
  00000000                M PREV_BANK = 0
                          M     endif
                          M 
                          M     if (((R4 + 1) & 180h) == 80h)
                          M       if (PREV_BANK == 0)
MPASM  5.49                      RTCCON~1.ASM   1-27-2021  11:00:41         PAGE 225


LOC  OBJECT CODE     LINE SOURCE TEXT
  VALUE

                          M         bsf     STATUS, RP0
                          M       endif
                          M       if (PREV_BANK == 2)
                          M         bsf     STATUS, RP0
                          M         bcf     STATUS, RP1
                          M       endif
                          M       if (PREV_BANK == 3)
                          M         bcf     STATUS, RP1
                          M       endif
                          M PREV_BANK = 1
                          M     endif
                          M 
                          M     if (((R4 + 1) & 180h) == 100h)
                          M       if (PREV_BANK == 0)
                          M         bsf     STATUS, RP1
                          M       endif
                          M       if (PREV_BANK == 1)
                          M         bcf     STATUS, RP0
                          M         bsf     STATUS, RP1
                          M       endif
                          M       if (PREV_BANK == 3)
                          M         bcf     STATUS, RP0
                          M       endif
                          M PREV_BANK = 2
                          M     endif
                          M 
                          M     if (((R4 + 1) & 180h) == 180h)
                          M       if (PREV_BANK == 0)
                          M         bsf     STATUS, RP0
                          M         bsf     STATUS, RP1
                          M       endif
                          M       if (PREV_BANK == 1)
                          M         bsf     STATUS, RP1
                          M       endif
                          M       if (PREV_BANK == 2)
                          M         bsf     STATUS, RP0
                          M       endif
                          M PREV_BANK = 3
                          M     endif
                          M     if (low (002h) == 0)
                          M         clrf    R4 + 1
                          M     else
027F   3002               M         movlw   low (002h)
0280   00A9               M         movwf   R4 + 1
                          M     endif
                      00221         LCDOUTNUM?B     _hora
                          M         MOVE?BW _hora, R2
                          M         CHK?RP  _hora
                          M     if (((_hora) & 180h) == 0)
                          M       if (PREV_BANK == 1)
                          M         bcf     STATUS, RP0
                          M       endif
                          M       if (PREV_BANK == 2)
MPASM  5.49                      RTCCON~1.ASM   1-27-2021  11:00:41         PAGE 226


LOC  OBJECT CODE     LINE SOURCE TEXT
  VALUE

                          M         bcf     STATUS, RP1
                          M       endif
                          M       if (PREV_BANK == 3)
                          M         bcf     STATUS, RP0
                          M         bcf     STATUS, RP1
                          M       endif
  00000000                M PREV_BANK = 0
                          M     endif
                          M 
                          M     if (((_hora) & 180h) == 80h)
                          M       if (PREV_BANK == 0)
                          M         bsf     STATUS, RP0
                          M       endif
                          M       if (PREV_BANK == 2)
                          M         bsf     STATUS, RP0
                          M         bcf     STATUS, RP1
                          M       endif
                          M       if (PREV_BANK == 3)
                          M         bcf     STATUS, RP1
                          M       endif
                          M PREV_BANK = 1
                          M     endif
                          M 
                          M     if (((_hora) & 180h) == 100h)
                          M       if (PREV_BANK == 0)
                          M         bsf     STATUS, RP1
                          M       endif
                          M       if (PREV_BANK == 1)
                          M         bcf     STATUS, RP0
                          M         bsf     STATUS, RP1
                          M       endif
                          M       if (PREV_BANK == 3)
                          M         bcf     STATUS, RP0
                          M       endif
                          M PREV_BANK = 2
                          M     endif
                          M 
                          M     if (((_hora) & 180h) == 180h)
                          M       if (PREV_BANK == 0)
                          M         bsf     STATUS, RP0
                          M         bsf     STATUS, RP1
                          M       endif
                          M       if (PREV_BANK == 1)
                          M         bsf     STATUS, RP1
                          M       endif
                          M       if (PREV_BANK == 2)
                          M         bsf     STATUS, RP0
                          M       endif
                          M PREV_BANK = 3
                          M     endif
0281   083B               M         movf    _hora, W
                          M         CHK?RP  R2
                          M     if (((R2)    & 180h) == 0)
MPASM  5.49                      RTCCON~1.ASM   1-27-2021  11:00:41         PAGE 227


LOC  OBJECT CODE     LINE SOURCE TEXT
  VALUE

                          M       if (PREV_BANK == 1)
                          M         bcf     STATUS, RP0
                          M       endif
                          M       if (PREV_BANK == 2)
                          M         bcf     STATUS, RP1
                          M       endif
                          M       if (PREV_BANK == 3)
                          M         bcf     STATUS, RP0
                          M         bcf     STATUS, RP1
                          M       endif
  00000000                M PREV_BANK = 0
                          M     endif
                          M 
                          M     if (((R2)    & 180h) == 80h)
                          M       if (PREV_BANK == 0)
                          M         bsf     STATUS, RP0
                          M       endif
                          M       if (PREV_BANK == 2)
                          M         bsf     STATUS, RP0
                          M         bcf     STATUS, RP1
                          M       endif
                          M       if (PREV_BANK == 3)
                          M         bcf     STATUS, RP1
                          M       endif
                          M PREV_BANK = 1
                          M     endif
                          M 
                          M     if (((R2)    & 180h) == 100h)
                          M       if (PREV_BANK == 0)
                          M         bsf     STATUS, RP1
                          M       endif
                          M       if (PREV_BANK == 1)
                          M         bcf     STATUS, RP0
                          M         bsf     STATUS, RP1
                          M       endif
                          M       if (PREV_BANK == 3)
                          M         bcf     STATUS, RP0
                          M       endif
                          M PREV_BANK = 2
                          M     endif
                          M 
                          M     if (((R2)    & 180h) == 180h)
                          M       if (PREV_BANK == 0)
                          M         bsf     STATUS, RP0
                          M         bsf     STATUS, RP1
                          M       endif
                          M       if (PREV_BANK == 1)
                          M         bsf     STATUS, RP1
                          M       endif
                          M       if (PREV_BANK == 2)
                          M         bsf     STATUS, RP0
                          M       endif
                          M PREV_BANK = 3
MPASM  5.49                      RTCCON~1.ASM   1-27-2021  11:00:41         PAGE 228


LOC  OBJECT CODE     LINE SOURCE TEXT
  VALUE

                          M     endif
0282   00A4               M         movwf   R2
0283   01A5               M         clrf    (R2)   + 1
                      00222         LCDOUTHEX?      
                          M         MOVE?CW LCDOUTJ, R8
                          M         MOVE?CB low (LCDOUTJ), R8
                          M         CHK?RP  R8
                          M     if (((R8)    & 180h) == 0)
                          M       if (PREV_BANK == 1)
                          M         bcf     STATUS, RP0
                          M       endif
                          M       if (PREV_BANK == 2)
                          M         bcf     STATUS, RP1
                          M       endif
                          M       if (PREV_BANK == 3)
                          M         bcf     STATUS, RP0
                          M         bcf     STATUS, RP1
                          M       endif
  00000000                M PREV_BANK = 0
                          M     endif
                          M 
                          M     if (((R8)    & 180h) == 80h)
                          M       if (PREV_BANK == 0)
                          M         bsf     STATUS, RP0
                          M       endif
                          M       if (PREV_BANK == 2)
                          M         bsf     STATUS, RP0
                          M         bcf     STATUS, RP1
                          M       endif
                          M       if (PREV_BANK == 3)
                          M         bcf     STATUS, RP1
                          M       endif
                          M PREV_BANK = 1
                          M     endif
                          M 
                          M     if (((R8)    & 180h) == 100h)
                          M       if (PREV_BANK == 0)
                          M         bsf     STATUS, RP1
                          M       endif
                          M       if (PREV_BANK == 1)
                          M         bcf     STATUS, RP0
                          M         bsf     STATUS, RP1
                          M       endif
                          M       if (PREV_BANK == 3)
                          M         bcf     STATUS, RP0
                          M       endif
                          M PREV_BANK = 2
                          M     endif
                          M 
                          M     if (((R8)    & 180h) == 180h)
                          M       if (PREV_BANK == 0)
                          M         bsf     STATUS, RP0
                          M         bsf     STATUS, RP1
MPASM  5.49                      RTCCON~1.ASM   1-27-2021  11:00:41         PAGE 229


LOC  OBJECT CODE     LINE SOURCE TEXT
  VALUE

                          M       endif
                          M       if (PREV_BANK == 1)
                          M         bsf     STATUS, RP1
                          M       endif
                          M       if (PREV_BANK == 2)
                          M         bsf     STATUS, RP0
                          M       endif
                          M PREV_BANK = 3
                          M     endif
                          M     if (low (low (LCDOUTJ)) == 0)
                          M         clrf    R8
                          M     else
0284   306A               M         movlw   low (low (LCDOUTJ))
0285   00B0               M         movwf   R8
                          M     endif
                          M         MOVE?CB high (LCDOUTJ), (R8) + 1
                          M         CHK?RP  (R8) + 1
                          M     if ((((R8) + 1) & 180h) == 0)
                          M       if (PREV_BANK == 1)
                          M         bcf     STATUS, RP0
                          M       endif
                          M       if (PREV_BANK == 2)
                          M         bcf     STATUS, RP1
                          M       endif
                          M       if (PREV_BANK == 3)
                          M         bcf     STATUS, RP0
                          M         bcf     STATUS, RP1
                          M       endif
  00000000                M PREV_BANK = 0
                          M     endif
                          M 
                          M     if ((((R8) + 1) & 180h) == 80h)
                          M       if (PREV_BANK == 0)
                          M         bsf     STATUS, RP0
                          M       endif
                          M       if (PREV_BANK == 2)
                          M         bsf     STATUS, RP0
                          M         bcf     STATUS, RP1
                          M       endif
                          M       if (PREV_BANK == 3)
                          M         bcf     STATUS, RP1
                          M       endif
                          M PREV_BANK = 1
                          M     endif
                          M 
                          M     if ((((R8) + 1) & 180h) == 100h)
                          M       if (PREV_BANK == 0)
                          M         bsf     STATUS, RP1
                          M       endif
                          M       if (PREV_BANK == 1)
                          M         bcf     STATUS, RP0
                          M         bsf     STATUS, RP1
                          M       endif
MPASM  5.49                      RTCCON~1.ASM   1-27-2021  11:00:41         PAGE 230


LOC  OBJECT CODE     LINE SOURCE TEXT
  VALUE

                          M       if (PREV_BANK == 3)
                          M         bcf     STATUS, RP0
                          M       endif
                          M PREV_BANK = 2
                          M     endif
                          M 
                          M     if ((((R8) + 1) & 180h) == 180h)
                          M       if (PREV_BANK == 0)
                          M         bsf     STATUS, RP0
                          M         bsf     STATUS, RP1
                          M       endif
                          M       if (PREV_BANK == 1)
                          M         bsf     STATUS, RP1
                          M       endif
                          M       if (PREV_BANK == 2)
                          M         bsf     STATUS, RP0
                          M       endif
                          M PREV_BANK = 3
                          M     endif
                          M     if (low (high (LCDOUTJ)) == 0)
0286   01B1               M         clrf    (R8) + 1
                          M     else
                          M         movlw   low (high (LCDOUTJ))
                          M         movwf   (R8) + 1
                          M     endif
                          M         L?CALL  SEROUT2HEX
                          M         RST?RP
                          M     if ((PREV_BANK & 1) != 0)
                          M         bcf     STATUS, RP0
                          M     endif
                          M     if ((PREV_BANK & 2) != 0)
                          M         bcf     STATUS, RP1
                          M     endif
  00000000                M PREV_BANK = 0
                          M 
                          M     if ((SEROUT2HEX) < 1)
                          M       if (CODE_SIZE >= 4)
                          M         if (((SEROUT2HEX) & 800h) == 0)
                          M         bcf     PCLATH, 3
                          M         else
                          M         bsf     PCLATH, 3
                          M         endif
                          M       endif
                          M       if (CODE_SIZE == 8)
                          M         if (((SEROUT2HEX) & 1000h) == 0)
                          M         bcf     PCLATH, 4
                          M         else
                          M         bsf     PCLATH, 4
                          M         endif
                          M       endif
                          M     else
                          M       if ((SEROUT2HEX) > $)
                          M         if (CODE_SIZE >= 4)
MPASM  5.49                      RTCCON~1.ASM   1-27-2021  11:00:41         PAGE 231


LOC  OBJECT CODE     LINE SOURCE TEXT
  VALUE

                          M           if (((SEROUT2HEX) & 800h) == 0)
                          M         bcf     PCLATH, 3
                          M           else
                          M         bsf     PCLATH, 3
                          M           endif
                          M         endif
                          M         if (CODE_SIZE == 8)
                          M           if (((SEROUT2HEX) & 1000h) == 0)
                          M         bcf     PCLATH, 4
                          M           else
                          M         bsf     PCLATH, 4
                          M           endif
                          M         endif
                          M       else
                          M         if (CODE_SIZE >= 4)
                          M           if (((SEROUT2HEX) & 1800h) == 0)
                          M         clrf    PCLATH
                          M           else
                          M             if (((SEROUT2HEX) & 800h) == 0)
                          M         bcf     PCLATH, 3
                          M             else
                          M         bsf     PCLATH, 3
                          M             endif
                          M             if (CODE_SIZE == 8)
                          M               if (((SEROUT2HEX) & 1000h) == 0)
                          M         bcf     PCLATH, 4
                          M               else
                          M         bsf     PCLATH, 4
                          M               endif
                          M             endif
                          M           endif
                          M         endif
                          M       endif
                          M     endif
                          M 
0287   20BA               M         call    SEROUT2HEX
                      00223         LCDOUT?C        03Ah
0288   303A               M         movlw   03Ah
                          M         L?CALL  LCDOUT
                          M         RST?RP
                          M     if ((PREV_BANK & 1) != 0)
                          M         bcf     STATUS, RP0
                          M     endif
                          M     if ((PREV_BANK & 2) != 0)
                          M         bcf     STATUS, RP1
                          M     endif
  00000000                M PREV_BANK = 0
                          M 
                          M     if ((LCDOUT) < 1)
                          M       if (CODE_SIZE >= 4)
                          M         if (((LCDOUT) & 800h) == 0)
                          M         bcf     PCLATH, 3
                          M         else
MPASM  5.49                      RTCCON~1.ASM   1-27-2021  11:00:41         PAGE 232


LOC  OBJECT CODE     LINE SOURCE TEXT
  VALUE

                          M         bsf     PCLATH, 3
                          M         endif
                          M       endif
                          M       if (CODE_SIZE == 8)
                          M         if (((LCDOUT) & 1000h) == 0)
                          M         bcf     PCLATH, 4
                          M         else
                          M         bsf     PCLATH, 4
                          M         endif
                          M       endif
                          M     else
                          M       if ((LCDOUT) > $)
                          M         if (CODE_SIZE >= 4)
                          M           if (((LCDOUT) & 800h) == 0)
                          M         bcf     PCLATH, 3
                          M           else
                          M         bsf     PCLATH, 3
                          M           endif
                          M         endif
                          M         if (CODE_SIZE == 8)
                          M           if (((LCDOUT) & 1000h) == 0)
                          M         bcf     PCLATH, 4
                          M           else
                          M         bsf     PCLATH, 4
                          M           endif
                          M         endif
                          M       else
                          M         if (CODE_SIZE >= 4)
                          M           if (((LCDOUT) & 1800h) == 0)
                          M         clrf    PCLATH
                          M           else
                          M             if (((LCDOUT) & 800h) == 0)
                          M         bcf     PCLATH, 3
                          M             else
                          M         bsf     PCLATH, 3
                          M             endif
                          M             if (CODE_SIZE == 8)
                          M               if (((LCDOUT) & 1000h) == 0)
                          M         bcf     PCLATH, 4
                          M               else
                          M         bsf     PCLATH, 4
                          M               endif
                          M             endif
                          M           endif
                          M         endif
                          M       endif
                          M     endif
                          M 
0289   206B               M         call    LCDOUT
                      00224         LCDOUTCOUNT?C   002h
                          M         MOVE?CB 002h, R4 + 1
                          M         CHK?RP  R4 + 1
                          M     if (((R4 + 1) & 180h) == 0)
MPASM  5.49                      RTCCON~1.ASM   1-27-2021  11:00:41         PAGE 233


LOC  OBJECT CODE     LINE SOURCE TEXT
  VALUE

                          M       if (PREV_BANK == 1)
                          M         bcf     STATUS, RP0
                          M       endif
                          M       if (PREV_BANK == 2)
                          M         bcf     STATUS, RP1
                          M       endif
                          M       if (PREV_BANK == 3)
                          M         bcf     STATUS, RP0
                          M         bcf     STATUS, RP1
                          M       endif
  00000000                M PREV_BANK = 0
                          M     endif
                          M 
                          M     if (((R4 + 1) & 180h) == 80h)
                          M       if (PREV_BANK == 0)
                          M         bsf     STATUS, RP0
                          M       endif
                          M       if (PREV_BANK == 2)
                          M         bsf     STATUS, RP0
                          M         bcf     STATUS, RP1
                          M       endif
                          M       if (PREV_BANK == 3)
                          M         bcf     STATUS, RP1
                          M       endif
                          M PREV_BANK = 1
                          M     endif
                          M 
                          M     if (((R4 + 1) & 180h) == 100h)
                          M       if (PREV_BANK == 0)
                          M         bsf     STATUS, RP1
                          M       endif
                          M       if (PREV_BANK == 1)
                          M         bcf     STATUS, RP0
                          M         bsf     STATUS, RP1
                          M       endif
                          M       if (PREV_BANK == 3)
                          M         bcf     STATUS, RP0
                          M       endif
                          M PREV_BANK = 2
                          M     endif
                          M 
                          M     if (((R4 + 1) & 180h) == 180h)
                          M       if (PREV_BANK == 0)
                          M         bsf     STATUS, RP0
                          M         bsf     STATUS, RP1
                          M       endif
                          M       if (PREV_BANK == 1)
                          M         bsf     STATUS, RP1
                          M       endif
                          M       if (PREV_BANK == 2)
                          M         bsf     STATUS, RP0
                          M       endif
                          M PREV_BANK = 3
MPASM  5.49                      RTCCON~1.ASM   1-27-2021  11:00:41         PAGE 234


LOC  OBJECT CODE     LINE SOURCE TEXT
  VALUE

                          M     endif
                          M     if (low (002h) == 0)
                          M         clrf    R4 + 1
                          M     else
028A   3002               M         movlw   low (002h)
028B   00A9               M         movwf   R4 + 1
                          M     endif
                      00225         LCDOUTNUM?B     _minu
                          M         MOVE?BW _minu, R2
                          M         CHK?RP  _minu
                          M     if (((_minu) & 180h) == 0)
                          M       if (PREV_BANK == 1)
                          M         bcf     STATUS, RP0
                          M       endif
                          M       if (PREV_BANK == 2)
                          M         bcf     STATUS, RP1
                          M       endif
                          M       if (PREV_BANK == 3)
                          M         bcf     STATUS, RP0
                          M         bcf     STATUS, RP1
                          M       endif
  00000000                M PREV_BANK = 0
                          M     endif
                          M 
                          M     if (((_minu) & 180h) == 80h)
                          M       if (PREV_BANK == 0)
                          M         bsf     STATUS, RP0
                          M       endif
                          M       if (PREV_BANK == 2)
                          M         bsf     STATUS, RP0
                          M         bcf     STATUS, RP1
                          M       endif
                          M       if (PREV_BANK == 3)
                          M         bcf     STATUS, RP1
                          M       endif
                          M PREV_BANK = 1
                          M     endif
                          M 
                          M     if (((_minu) & 180h) == 100h)
                          M       if (PREV_BANK == 0)
                          M         bsf     STATUS, RP1
                          M       endif
                          M       if (PREV_BANK == 1)
                          M         bcf     STATUS, RP0
                          M         bsf     STATUS, RP1
                          M       endif
                          M       if (PREV_BANK == 3)
                          M         bcf     STATUS, RP0
                          M       endif
                          M PREV_BANK = 2
                          M     endif
                          M 
                          M     if (((_minu) & 180h) == 180h)
MPASM  5.49                      RTCCON~1.ASM   1-27-2021  11:00:41         PAGE 235


LOC  OBJECT CODE     LINE SOURCE TEXT
  VALUE

                          M       if (PREV_BANK == 0)
                          M         bsf     STATUS, RP0
                          M         bsf     STATUS, RP1
                          M       endif
                          M       if (PREV_BANK == 1)
                          M         bsf     STATUS, RP1
                          M       endif
                          M       if (PREV_BANK == 2)
                          M         bsf     STATUS, RP0
                          M       endif
                          M PREV_BANK = 3
                          M     endif
028C   083D               M         movf    _minu, W
                          M         CHK?RP  R2
                          M     if (((R2)    & 180h) == 0)
                          M       if (PREV_BANK == 1)
                          M         bcf     STATUS, RP0
                          M       endif
                          M       if (PREV_BANK == 2)
                          M         bcf     STATUS, RP1
                          M       endif
                          M       if (PREV_BANK == 3)
                          M         bcf     STATUS, RP0
                          M         bcf     STATUS, RP1
                          M       endif
  00000000                M PREV_BANK = 0
                          M     endif
                          M 
                          M     if (((R2)    & 180h) == 80h)
                          M       if (PREV_BANK == 0)
                          M         bsf     STATUS, RP0
                          M       endif
                          M       if (PREV_BANK == 2)
                          M         bsf     STATUS, RP0
                          M         bcf     STATUS, RP1
                          M       endif
                          M       if (PREV_BANK == 3)
                          M         bcf     STATUS, RP1
                          M       endif
                          M PREV_BANK = 1
                          M     endif
                          M 
                          M     if (((R2)    & 180h) == 100h)
                          M       if (PREV_BANK == 0)
                          M         bsf     STATUS, RP1
                          M       endif
                          M       if (PREV_BANK == 1)
                          M         bcf     STATUS, RP0
                          M         bsf     STATUS, RP1
                          M       endif
                          M       if (PREV_BANK == 3)
                          M         bcf     STATUS, RP0
                          M       endif
MPASM  5.49                      RTCCON~1.ASM   1-27-2021  11:00:41         PAGE 236


LOC  OBJECT CODE     LINE SOURCE TEXT
  VALUE

                          M PREV_BANK = 2
                          M     endif
                          M 
                          M     if (((R2)    & 180h) == 180h)
                          M       if (PREV_BANK == 0)
                          M         bsf     STATUS, RP0
                          M         bsf     STATUS, RP1
                          M       endif
                          M       if (PREV_BANK == 1)
                          M         bsf     STATUS, RP1
                          M       endif
                          M       if (PREV_BANK == 2)
                          M         bsf     STATUS, RP0
                          M       endif
                          M PREV_BANK = 3
                          M     endif
028D   00A4               M         movwf   R2
028E   01A5               M         clrf    (R2)   + 1
                      00226         LCDOUTHEX?      
                          M         MOVE?CW LCDOUTJ, R8
                          M         MOVE?CB low (LCDOUTJ), R8
                          M         CHK?RP  R8
                          M     if (((R8)    & 180h) == 0)
                          M       if (PREV_BANK == 1)
                          M         bcf     STATUS, RP0
                          M       endif
                          M       if (PREV_BANK == 2)
                          M         bcf     STATUS, RP1
                          M       endif
                          M       if (PREV_BANK == 3)
                          M         bcf     STATUS, RP0
                          M         bcf     STATUS, RP1
                          M       endif
  00000000                M PREV_BANK = 0
                          M     endif
                          M 
                          M     if (((R8)    & 180h) == 80h)
                          M       if (PREV_BANK == 0)
                          M         bsf     STATUS, RP0
                          M       endif
                          M       if (PREV_BANK == 2)
                          M         bsf     STATUS, RP0
                          M         bcf     STATUS, RP1
                          M       endif
                          M       if (PREV_BANK == 3)
                          M         bcf     STATUS, RP1
                          M       endif
                          M PREV_BANK = 1
                          M     endif
                          M 
                          M     if (((R8)    & 180h) == 100h)
                          M       if (PREV_BANK == 0)
                          M         bsf     STATUS, RP1
MPASM  5.49                      RTCCON~1.ASM   1-27-2021  11:00:41         PAGE 237


LOC  OBJECT CODE     LINE SOURCE TEXT
  VALUE

                          M       endif
                          M       if (PREV_BANK == 1)
                          M         bcf     STATUS, RP0
                          M         bsf     STATUS, RP1
                          M       endif
                          M       if (PREV_BANK == 3)
                          M         bcf     STATUS, RP0
                          M       endif
                          M PREV_BANK = 2
                          M     endif
                          M 
                          M     if (((R8)    & 180h) == 180h)
                          M       if (PREV_BANK == 0)
                          M         bsf     STATUS, RP0
                          M         bsf     STATUS, RP1
                          M       endif
                          M       if (PREV_BANK == 1)
                          M         bsf     STATUS, RP1
                          M       endif
                          M       if (PREV_BANK == 2)
                          M         bsf     STATUS, RP0
                          M       endif
                          M PREV_BANK = 3
                          M     endif
                          M     if (low (low (LCDOUTJ)) == 0)
                          M         clrf    R8
                          M     else
028F   306A               M         movlw   low (low (LCDOUTJ))
0290   00B0               M         movwf   R8
                          M     endif
                          M         MOVE?CB high (LCDOUTJ), (R8) + 1
                          M         CHK?RP  (R8) + 1
                          M     if ((((R8) + 1) & 180h) == 0)
                          M       if (PREV_BANK == 1)
                          M         bcf     STATUS, RP0
                          M       endif
                          M       if (PREV_BANK == 2)
                          M         bcf     STATUS, RP1
                          M       endif
                          M       if (PREV_BANK == 3)
                          M         bcf     STATUS, RP0
                          M         bcf     STATUS, RP1
                          M       endif
  00000000                M PREV_BANK = 0
                          M     endif
                          M 
                          M     if ((((R8) + 1) & 180h) == 80h)
                          M       if (PREV_BANK == 0)
                          M         bsf     STATUS, RP0
                          M       endif
                          M       if (PREV_BANK == 2)
                          M         bsf     STATUS, RP0
                          M         bcf     STATUS, RP1
MPASM  5.49                      RTCCON~1.ASM   1-27-2021  11:00:41         PAGE 238


LOC  OBJECT CODE     LINE SOURCE TEXT
  VALUE

                          M       endif
                          M       if (PREV_BANK == 3)
                          M         bcf     STATUS, RP1
                          M       endif
                          M PREV_BANK = 1
                          M     endif
                          M 
                          M     if ((((R8) + 1) & 180h) == 100h)
                          M       if (PREV_BANK == 0)
                          M         bsf     STATUS, RP1
                          M       endif
                          M       if (PREV_BANK == 1)
                          M         bcf     STATUS, RP0
                          M         bsf     STATUS, RP1
                          M       endif
                          M       if (PREV_BANK == 3)
                          M         bcf     STATUS, RP0
                          M       endif
                          M PREV_BANK = 2
                          M     endif
                          M 
                          M     if ((((R8) + 1) & 180h) == 180h)
                          M       if (PREV_BANK == 0)
                          M         bsf     STATUS, RP0
                          M         bsf     STATUS, RP1
                          M       endif
                          M       if (PREV_BANK == 1)
                          M         bsf     STATUS, RP1
                          M       endif
                          M       if (PREV_BANK == 2)
                          M         bsf     STATUS, RP0
                          M       endif
                          M PREV_BANK = 3
                          M     endif
                          M     if (low (high (LCDOUTJ)) == 0)
0291   01B1               M         clrf    (R8) + 1
                          M     else
                          M         movlw   low (high (LCDOUTJ))
                          M         movwf   (R8) + 1
                          M     endif
                          M         L?CALL  SEROUT2HEX
                          M         RST?RP
                          M     if ((PREV_BANK & 1) != 0)
                          M         bcf     STATUS, RP0
                          M     endif
                          M     if ((PREV_BANK & 2) != 0)
                          M         bcf     STATUS, RP1
                          M     endif
  00000000                M PREV_BANK = 0
                          M 
                          M     if ((SEROUT2HEX) < 1)
                          M       if (CODE_SIZE >= 4)
                          M         if (((SEROUT2HEX) & 800h) == 0)
MPASM  5.49                      RTCCON~1.ASM   1-27-2021  11:00:41         PAGE 239


LOC  OBJECT CODE     LINE SOURCE TEXT
  VALUE

                          M         bcf     PCLATH, 3
                          M         else
                          M         bsf     PCLATH, 3
                          M         endif
                          M       endif
                          M       if (CODE_SIZE == 8)
                          M         if (((SEROUT2HEX) & 1000h) == 0)
                          M         bcf     PCLATH, 4
                          M         else
                          M         bsf     PCLATH, 4
                          M         endif
                          M       endif
                          M     else
                          M       if ((SEROUT2HEX) > $)
                          M         if (CODE_SIZE >= 4)
                          M           if (((SEROUT2HEX) & 800h) == 0)
                          M         bcf     PCLATH, 3
                          M           else
                          M         bsf     PCLATH, 3
                          M           endif
                          M         endif
                          M         if (CODE_SIZE == 8)
                          M           if (((SEROUT2HEX) & 1000h) == 0)
                          M         bcf     PCLATH, 4
                          M           else
                          M         bsf     PCLATH, 4
                          M           endif
                          M         endif
                          M       else
                          M         if (CODE_SIZE >= 4)
                          M           if (((SEROUT2HEX) & 1800h) == 0)
                          M         clrf    PCLATH
                          M           else
                          M             if (((SEROUT2HEX) & 800h) == 0)
                          M         bcf     PCLATH, 3
                          M             else
                          M         bsf     PCLATH, 3
                          M             endif
                          M             if (CODE_SIZE == 8)
                          M               if (((SEROUT2HEX) & 1000h) == 0)
                          M         bcf     PCLATH, 4
                          M               else
                          M         bsf     PCLATH, 4
                          M               endif
                          M             endif
                          M           endif
                          M         endif
                          M       endif
                          M     endif
                          M 
0292   20BA               M         call    SEROUT2HEX
                      00227         LCDOUT?C        03Ah
0293   303A               M         movlw   03Ah
MPASM  5.49                      RTCCON~1.ASM   1-27-2021  11:00:41         PAGE 240


LOC  OBJECT CODE     LINE SOURCE TEXT
  VALUE

                          M         L?CALL  LCDOUT
                          M         RST?RP
                          M     if ((PREV_BANK & 1) != 0)
                          M         bcf     STATUS, RP0
                          M     endif
                          M     if ((PREV_BANK & 2) != 0)
                          M         bcf     STATUS, RP1
                          M     endif
  00000000                M PREV_BANK = 0
                          M 
                          M     if ((LCDOUT) < 1)
                          M       if (CODE_SIZE >= 4)
                          M         if (((LCDOUT) & 800h) == 0)
                          M         bcf     PCLATH, 3
                          M         else
                          M         bsf     PCLATH, 3
                          M         endif
                          M       endif
                          M       if (CODE_SIZE == 8)
                          M         if (((LCDOUT) & 1000h) == 0)
                          M         bcf     PCLATH, 4
                          M         else
                          M         bsf     PCLATH, 4
                          M         endif
                          M       endif
                          M     else
                          M       if ((LCDOUT) > $)
                          M         if (CODE_SIZE >= 4)
                          M           if (((LCDOUT) & 800h) == 0)
                          M         bcf     PCLATH, 3
                          M           else
                          M         bsf     PCLATH, 3
                          M           endif
                          M         endif
                          M         if (CODE_SIZE == 8)
                          M           if (((LCDOUT) & 1000h) == 0)
                          M         bcf     PCLATH, 4
                          M           else
                          M         bsf     PCLATH, 4
                          M           endif
                          M         endif
                          M       else
                          M         if (CODE_SIZE >= 4)
                          M           if (((LCDOUT) & 1800h) == 0)
                          M         clrf    PCLATH
                          M           else
                          M             if (((LCDOUT) & 800h) == 0)
                          M         bcf     PCLATH, 3
                          M             else
                          M         bsf     PCLATH, 3
                          M             endif
                          M             if (CODE_SIZE == 8)
                          M               if (((LCDOUT) & 1000h) == 0)
MPASM  5.49                      RTCCON~1.ASM   1-27-2021  11:00:41         PAGE 241


LOC  OBJECT CODE     LINE SOURCE TEXT
  VALUE

                          M         bcf     PCLATH, 4
                          M               else
                          M         bsf     PCLATH, 4
                          M               endif
                          M             endif
                          M           endif
                          M         endif
                          M       endif
                          M     endif
                          M 
0294   206B               M         call    LCDOUT
                      00228         LCDOUTCOUNT?C   002h
                          M         MOVE?CB 002h, R4 + 1
                          M         CHK?RP  R4 + 1
                          M     if (((R4 + 1) & 180h) == 0)
                          M       if (PREV_BANK == 1)
                          M         bcf     STATUS, RP0
                          M       endif
                          M       if (PREV_BANK == 2)
                          M         bcf     STATUS, RP1
                          M       endif
                          M       if (PREV_BANK == 3)
                          M         bcf     STATUS, RP0
                          M         bcf     STATUS, RP1
                          M       endif
  00000000                M PREV_BANK = 0
                          M     endif
                          M 
                          M     if (((R4 + 1) & 180h) == 80h)
                          M       if (PREV_BANK == 0)
                          M         bsf     STATUS, RP0
                          M       endif
                          M       if (PREV_BANK == 2)
                          M         bsf     STATUS, RP0
                          M         bcf     STATUS, RP1
                          M       endif
                          M       if (PREV_BANK == 3)
                          M         bcf     STATUS, RP1
                          M       endif
                          M PREV_BANK = 1
                          M     endif
                          M 
                          M     if (((R4 + 1) & 180h) == 100h)
                          M       if (PREV_BANK == 0)
                          M         bsf     STATUS, RP1
                          M       endif
                          M       if (PREV_BANK == 1)
                          M         bcf     STATUS, RP0
                          M         bsf     STATUS, RP1
                          M       endif
                          M       if (PREV_BANK == 3)
                          M         bcf     STATUS, RP0
                          M       endif
MPASM  5.49                      RTCCON~1.ASM   1-27-2021  11:00:41         PAGE 242


LOC  OBJECT CODE     LINE SOURCE TEXT
  VALUE

                          M PREV_BANK = 2
                          M     endif
                          M 
                          M     if (((R4 + 1) & 180h) == 180h)
                          M       if (PREV_BANK == 0)
                          M         bsf     STATUS, RP0
                          M         bsf     STATUS, RP1
                          M       endif
                          M       if (PREV_BANK == 1)
                          M         bsf     STATUS, RP1
                          M       endif
                          M       if (PREV_BANK == 2)
                          M         bsf     STATUS, RP0
                          M       endif
                          M PREV_BANK = 3
                          M     endif
                          M     if (low (002h) == 0)
                          M         clrf    R4 + 1
                          M     else
0295   3002               M         movlw   low (002h)
0296   00A9               M         movwf   R4 + 1
                          M     endif
                      00229         LCDOUTNUM?B     _segu
                          M         MOVE?BW _segu, R2
                          M         CHK?RP  _segu
                          M     if (((_segu) & 180h) == 0)
                          M       if (PREV_BANK == 1)
                          M         bcf     STATUS, RP0
                          M       endif
                          M       if (PREV_BANK == 2)
                          M         bcf     STATUS, RP1
                          M       endif
                          M       if (PREV_BANK == 3)
                          M         bcf     STATUS, RP0
                          M         bcf     STATUS, RP1
                          M       endif
  00000000                M PREV_BANK = 0
                          M     endif
                          M 
                          M     if (((_segu) & 180h) == 80h)
                          M       if (PREV_BANK == 0)
                          M         bsf     STATUS, RP0
                          M       endif
                          M       if (PREV_BANK == 2)
                          M         bsf     STATUS, RP0
                          M         bcf     STATUS, RP1
                          M       endif
                          M       if (PREV_BANK == 3)
                          M         bcf     STATUS, RP1
                          M       endif
                          M PREV_BANK = 1
                          M     endif
                          M 
MPASM  5.49                      RTCCON~1.ASM   1-27-2021  11:00:41         PAGE 243


LOC  OBJECT CODE     LINE SOURCE TEXT
  VALUE

                          M     if (((_segu) & 180h) == 100h)
                          M       if (PREV_BANK == 0)
                          M         bsf     STATUS, RP1
                          M       endif
                          M       if (PREV_BANK == 1)
                          M         bcf     STATUS, RP0
                          M         bsf     STATUS, RP1
                          M       endif
                          M       if (PREV_BANK == 3)
                          M         bcf     STATUS, RP0
                          M       endif
                          M PREV_BANK = 2
                          M     endif
                          M 
                          M     if (((_segu) & 180h) == 180h)
                          M       if (PREV_BANK == 0)
                          M         bsf     STATUS, RP0
                          M         bsf     STATUS, RP1
                          M       endif
                          M       if (PREV_BANK == 1)
                          M         bsf     STATUS, RP1
                          M       endif
                          M       if (PREV_BANK == 2)
                          M         bsf     STATUS, RP0
                          M       endif
                          M PREV_BANK = 3
                          M     endif
0297   083F               M         movf    _segu, W
                          M         CHK?RP  R2
                          M     if (((R2)    & 180h) == 0)
                          M       if (PREV_BANK == 1)
                          M         bcf     STATUS, RP0
                          M       endif
                          M       if (PREV_BANK == 2)
                          M         bcf     STATUS, RP1
                          M       endif
                          M       if (PREV_BANK == 3)
                          M         bcf     STATUS, RP0
                          M         bcf     STATUS, RP1
                          M       endif
  00000000                M PREV_BANK = 0
                          M     endif
                          M 
                          M     if (((R2)    & 180h) == 80h)
                          M       if (PREV_BANK == 0)
                          M         bsf     STATUS, RP0
                          M       endif
                          M       if (PREV_BANK == 2)
                          M         bsf     STATUS, RP0
                          M         bcf     STATUS, RP1
                          M       endif
                          M       if (PREV_BANK == 3)
                          M         bcf     STATUS, RP1
MPASM  5.49                      RTCCON~1.ASM   1-27-2021  11:00:41         PAGE 244


LOC  OBJECT CODE     LINE SOURCE TEXT
  VALUE

                          M       endif
                          M PREV_BANK = 1
                          M     endif
                          M 
                          M     if (((R2)    & 180h) == 100h)
                          M       if (PREV_BANK == 0)
                          M         bsf     STATUS, RP1
                          M       endif
                          M       if (PREV_BANK == 1)
                          M         bcf     STATUS, RP0
                          M         bsf     STATUS, RP1
                          M       endif
                          M       if (PREV_BANK == 3)
                          M         bcf     STATUS, RP0
                          M       endif
                          M PREV_BANK = 2
                          M     endif
                          M 
                          M     if (((R2)    & 180h) == 180h)
                          M       if (PREV_BANK == 0)
                          M         bsf     STATUS, RP0
                          M         bsf     STATUS, RP1
                          M       endif
                          M       if (PREV_BANK == 1)
                          M         bsf     STATUS, RP1
                          M       endif
                          M       if (PREV_BANK == 2)
                          M         bsf     STATUS, RP0
                          M       endif
                          M PREV_BANK = 3
                          M     endif
0298   00A4               M         movwf   R2
0299   01A5               M         clrf    (R2)   + 1
                      00230         LCDOUTHEX?      
                          M         MOVE?CW LCDOUTJ, R8
                          M         MOVE?CB low (LCDOUTJ), R8
                          M         CHK?RP  R8
                          M     if (((R8)    & 180h) == 0)
                          M       if (PREV_BANK == 1)
                          M         bcf     STATUS, RP0
                          M       endif
                          M       if (PREV_BANK == 2)
                          M         bcf     STATUS, RP1
                          M       endif
                          M       if (PREV_BANK == 3)
                          M         bcf     STATUS, RP0
                          M         bcf     STATUS, RP1
                          M       endif
  00000000                M PREV_BANK = 0
                          M     endif
                          M 
                          M     if (((R8)    & 180h) == 80h)
                          M       if (PREV_BANK == 0)
MPASM  5.49                      RTCCON~1.ASM   1-27-2021  11:00:41         PAGE 245


LOC  OBJECT CODE     LINE SOURCE TEXT
  VALUE

                          M         bsf     STATUS, RP0
                          M       endif
                          M       if (PREV_BANK == 2)
                          M         bsf     STATUS, RP0
                          M         bcf     STATUS, RP1
                          M       endif
                          M       if (PREV_BANK == 3)
                          M         bcf     STATUS, RP1
                          M       endif
                          M PREV_BANK = 1
                          M     endif
                          M 
                          M     if (((R8)    & 180h) == 100h)
                          M       if (PREV_BANK == 0)
                          M         bsf     STATUS, RP1
                          M       endif
                          M       if (PREV_BANK == 1)
                          M         bcf     STATUS, RP0
                          M         bsf     STATUS, RP1
                          M       endif
                          M       if (PREV_BANK == 3)
                          M         bcf     STATUS, RP0
                          M       endif
                          M PREV_BANK = 2
                          M     endif
                          M 
                          M     if (((R8)    & 180h) == 180h)
                          M       if (PREV_BANK == 0)
                          M         bsf     STATUS, RP0
                          M         bsf     STATUS, RP1
                          M       endif
                          M       if (PREV_BANK == 1)
                          M         bsf     STATUS, RP1
                          M       endif
                          M       if (PREV_BANK == 2)
                          M         bsf     STATUS, RP0
                          M       endif
                          M PREV_BANK = 3
                          M     endif
                          M     if (low (low (LCDOUTJ)) == 0)
                          M         clrf    R8
                          M     else
029A   306A               M         movlw   low (low (LCDOUTJ))
029B   00B0               M         movwf   R8
                          M     endif
                          M         MOVE?CB high (LCDOUTJ), (R8) + 1
                          M         CHK?RP  (R8) + 1
                          M     if ((((R8) + 1) & 180h) == 0)
                          M       if (PREV_BANK == 1)
                          M         bcf     STATUS, RP0
                          M       endif
                          M       if (PREV_BANK == 2)
                          M         bcf     STATUS, RP1
MPASM  5.49                      RTCCON~1.ASM   1-27-2021  11:00:41         PAGE 246


LOC  OBJECT CODE     LINE SOURCE TEXT
  VALUE

                          M       endif
                          M       if (PREV_BANK == 3)
                          M         bcf     STATUS, RP0
                          M         bcf     STATUS, RP1
                          M       endif
  00000000                M PREV_BANK = 0
                          M     endif
                          M 
                          M     if ((((R8) + 1) & 180h) == 80h)
                          M       if (PREV_BANK == 0)
                          M         bsf     STATUS, RP0
                          M       endif
                          M       if (PREV_BANK == 2)
                          M         bsf     STATUS, RP0
                          M         bcf     STATUS, RP1
                          M       endif
                          M       if (PREV_BANK == 3)
                          M         bcf     STATUS, RP1
                          M       endif
                          M PREV_BANK = 1
                          M     endif
                          M 
                          M     if ((((R8) + 1) & 180h) == 100h)
                          M       if (PREV_BANK == 0)
                          M         bsf     STATUS, RP1
                          M       endif
                          M       if (PREV_BANK == 1)
                          M         bcf     STATUS, RP0
                          M         bsf     STATUS, RP1
                          M       endif
                          M       if (PREV_BANK == 3)
                          M         bcf     STATUS, RP0
                          M       endif
                          M PREV_BANK = 2
                          M     endif
                          M 
                          M     if ((((R8) + 1) & 180h) == 180h)
                          M       if (PREV_BANK == 0)
                          M         bsf     STATUS, RP0
                          M         bsf     STATUS, RP1
                          M       endif
                          M       if (PREV_BANK == 1)
                          M         bsf     STATUS, RP1
                          M       endif
                          M       if (PREV_BANK == 2)
                          M         bsf     STATUS, RP0
                          M       endif
                          M PREV_BANK = 3
                          M     endif
                          M     if (low (high (LCDOUTJ)) == 0)
029C   01B1               M         clrf    (R8) + 1
                          M     else
                          M         movlw   low (high (LCDOUTJ))
MPASM  5.49                      RTCCON~1.ASM   1-27-2021  11:00:41         PAGE 247


LOC  OBJECT CODE     LINE SOURCE TEXT
  VALUE

                          M         movwf   (R8) + 1
                          M     endif
                          M         L?CALL  SEROUT2HEX
                          M         RST?RP
                          M     if ((PREV_BANK & 1) != 0)
                          M         bcf     STATUS, RP0
                          M     endif
                          M     if ((PREV_BANK & 2) != 0)
                          M         bcf     STATUS, RP1
                          M     endif
  00000000                M PREV_BANK = 0
                          M 
                          M     if ((SEROUT2HEX) < 1)
                          M       if (CODE_SIZE >= 4)
                          M         if (((SEROUT2HEX) & 800h) == 0)
                          M         bcf     PCLATH, 3
                          M         else
                          M         bsf     PCLATH, 3
                          M         endif
                          M       endif
                          M       if (CODE_SIZE == 8)
                          M         if (((SEROUT2HEX) & 1000h) == 0)
                          M         bcf     PCLATH, 4
                          M         else
                          M         bsf     PCLATH, 4
                          M         endif
                          M       endif
                          M     else
                          M       if ((SEROUT2HEX) > $)
                          M         if (CODE_SIZE >= 4)
                          M           if (((SEROUT2HEX) & 800h) == 0)
                          M         bcf     PCLATH, 3
                          M           else
                          M         bsf     PCLATH, 3
                          M           endif
                          M         endif
                          M         if (CODE_SIZE == 8)
                          M           if (((SEROUT2HEX) & 1000h) == 0)
                          M         bcf     PCLATH, 4
                          M           else
                          M         bsf     PCLATH, 4
                          M           endif
                          M         endif
                          M       else
                          M         if (CODE_SIZE >= 4)
                          M           if (((SEROUT2HEX) & 1800h) == 0)
                          M         clrf    PCLATH
                          M           else
                          M             if (((SEROUT2HEX) & 800h) == 0)
                          M         bcf     PCLATH, 3
                          M             else
                          M         bsf     PCLATH, 3
                          M             endif
MPASM  5.49                      RTCCON~1.ASM   1-27-2021  11:00:41         PAGE 248


LOC  OBJECT CODE     LINE SOURCE TEXT
  VALUE

                          M             if (CODE_SIZE == 8)
                          M               if (((SEROUT2HEX) & 1000h) == 0)
                          M         bcf     PCLATH, 4
                          M               else
                          M         bsf     PCLATH, 4
                          M               endif
                          M             endif
                          M           endif
                          M         endif
                          M       endif
                          M     endif
                          M 
029D   20BA               M         call    SEROUT2HEX
                      00231         PAUSE?C 001F4h
                          M     if (((001F4h) >> 8) == 0)
                          M         MOVE?CA 001F4h
                          M         L?CALL  PAUSE
                          M     else
                          M         MOVE?CB (001F4h) >> 8, R1 + 1
                          M         CHK?RP  R1 + 1
                          M     if (((R1 + 1) & 180h) == 0)
                          M       if (PREV_BANK == 1)
                          M         bcf     STATUS, RP0
                          M       endif
                          M       if (PREV_BANK == 2)
                          M         bcf     STATUS, RP1
                          M       endif
                          M       if (PREV_BANK == 3)
                          M         bcf     STATUS, RP0
                          M         bcf     STATUS, RP1
                          M       endif
  00000000                M PREV_BANK = 0
                          M     endif
                          M 
                          M     if (((R1 + 1) & 180h) == 80h)
                          M       if (PREV_BANK == 0)
                          M         bsf     STATUS, RP0
                          M       endif
                          M       if (PREV_BANK == 2)
                          M         bsf     STATUS, RP0
                          M         bcf     STATUS, RP1
                          M       endif
                          M       if (PREV_BANK == 3)
                          M         bcf     STATUS, RP1
                          M       endif
                          M PREV_BANK = 1
                          M     endif
                          M 
                          M     if (((R1 + 1) & 180h) == 100h)
                          M       if (PREV_BANK == 0)
                          M         bsf     STATUS, RP1
                          M       endif
                          M       if (PREV_BANK == 1)
MPASM  5.49                      RTCCON~1.ASM   1-27-2021  11:00:41         PAGE 249


LOC  OBJECT CODE     LINE SOURCE TEXT
  VALUE

                          M         bcf     STATUS, RP0
                          M         bsf     STATUS, RP1
                          M       endif
                          M       if (PREV_BANK == 3)
                          M         bcf     STATUS, RP0
                          M       endif
                          M PREV_BANK = 2
                          M     endif
                          M 
                          M     if (((R1 + 1) & 180h) == 180h)
                          M       if (PREV_BANK == 0)
                          M         bsf     STATUS, RP0
                          M         bsf     STATUS, RP1
                          M       endif
                          M       if (PREV_BANK == 1)
                          M         bsf     STATUS, RP1
                          M       endif
                          M       if (PREV_BANK == 2)
                          M         bsf     STATUS, RP0
                          M       endif
                          M PREV_BANK = 3
                          M     endif
                          M     if (low ((001F4h) >> 8) == 0)
                          M         clrf    R1 + 1
                          M     else
029E   3001               M         movlw   low ((001F4h) >> 8)
029F   00A3               M         movwf   R1 + 1
                          M     endif
                          M         MOVE?CA low (001F4h)
02A0   30F4               M         movlw   low (low (001F4h))
                          M         L?CALL  PAUSEL
                          M         RST?RP
                          M     if ((PREV_BANK & 1) != 0)
                          M         bcf     STATUS, RP0
                          M     endif
                          M     if ((PREV_BANK & 2) != 0)
                          M         bcf     STATUS, RP1
                          M     endif
  00000000                M PREV_BANK = 0
                          M 
                          M     if ((PAUSEL) < 1)
                          M       if (CODE_SIZE >= 4)
                          M         if (((PAUSEL) & 800h) == 0)
                          M         bcf     PCLATH, 3
                          M         else
                          M         bsf     PCLATH, 3
                          M         endif
                          M       endif
                          M       if (CODE_SIZE == 8)
                          M         if (((PAUSEL) & 1000h) == 0)
                          M         bcf     PCLATH, 4
                          M         else
                          M         bsf     PCLATH, 4
MPASM  5.49                      RTCCON~1.ASM   1-27-2021  11:00:41         PAGE 250


LOC  OBJECT CODE     LINE SOURCE TEXT
  VALUE

                          M         endif
                          M       endif
                          M     else
                          M       if ((PAUSEL) > $)
                          M         if (CODE_SIZE >= 4)
                          M           if (((PAUSEL) & 800h) == 0)
                          M         bcf     PCLATH, 3
                          M           else
                          M         bsf     PCLATH, 3
                          M           endif
                          M         endif
                          M         if (CODE_SIZE == 8)
                          M           if (((PAUSEL) & 1000h) == 0)
                          M         bcf     PCLATH, 4
                          M           else
                          M         bsf     PCLATH, 4
                          M           endif
                          M         endif
                          M       else
                          M         if (CODE_SIZE >= 4)
                          M           if (((PAUSEL) & 1800h) == 0)
                          M         clrf    PCLATH
                          M           else
                          M             if (((PAUSEL) & 800h) == 0)
                          M         bcf     PCLATH, 3
                          M             else
                          M         bsf     PCLATH, 3
                          M             endif
                          M             if (CODE_SIZE == 8)
                          M               if (((PAUSEL) & 1000h) == 0)
                          M         bcf     PCLATH, 4
                          M               else
                          M         bsf     PCLATH, 4
                          M               endif
                          M             endif
                          M           endif
                          M         endif
                          M       endif
                          M     endif
                          M 
02A1   20EB               M         call    PAUSEL
                          M     endif
                      00232         GOTO?L  _INICIO
                          M         L?GOTO  _INICIO
                          M     if ($ == (_INICIO))
                          M         CLRWDT?
                          M     endif
                          M 
                          M         RST?RP
                          M     if ((PREV_BANK & 1) != 0)
                          M         bcf     STATUS, RP0
                          M     endif
                          M     if ((PREV_BANK & 2) != 0)
MPASM  5.49                      RTCCON~1.ASM   1-27-2021  11:00:41         PAGE 251


LOC  OBJECT CODE     LINE SOURCE TEXT
  VALUE

                          M         bcf     STATUS, RP1
                          M     endif
  00000000                M PREV_BANK = 0
                          M 
                          M     if ((_INICIO) < 1)
                          M       if (CODE_SIZE >= 4)
                          M         if (((_INICIO) & 800h) == 0)
                          M         bcf     PCLATH, 3
                          M         else
                          M         bsf     PCLATH, 3
                          M         endif
                          M       endif
                          M       if (CODE_SIZE == 8)
                          M         if (((_INICIO) & 1000h) == 0)
                          M         bcf     PCLATH, 4
                          M         else
                          M         bsf     PCLATH, 4
                          M         endif
                          M       endif
                          M     else
                          M       if ((_INICIO) > $)
                          M         if (CODE_SIZE >= 4)
                          M           if (((_INICIO) & 800h) == 0)
                          M         bcf     PCLATH, 3
                          M           else
                          M         bsf     PCLATH, 3
                          M           endif
                          M         endif
                          M         if (CODE_SIZE == 8)
                          M           if (((_INICIO) & 1000h) == 0)
                          M         bcf     PCLATH, 4
                          M           else
                          M         bsf     PCLATH, 4
                          M           endif
                          M         endif
                          M       else
                          M         if (CODE_SIZE >= 4)
                          M           if (((_INICIO) & 1800h) == 0)
                          M         clrf    PCLATH
                          M           else
                          M             if (((_INICIO) & 800h) == 0)
                          M         bcf     PCLATH, 3
                          M             else
                          M         bsf     PCLATH, 3
                          M             endif
                          M             if (CODE_SIZE == 8)
                          M               if (((_INICIO) & 1000h) == 0)
                          M         bcf     PCLATH, 4
                          M               else
                          M         bsf     PCLATH, 4
                          M               endif
                          M             endif
                          M           endif
MPASM  5.49                      RTCCON~1.ASM   1-27-2021  11:00:41         PAGE 252


LOC  OBJECT CODE     LINE SOURCE TEXT
  VALUE

                          M         endif
                          M       endif
                          M     endif
                          M 
02A2   2918               M         goto    _INICIO
                      00233 
                      00234         LABEL?L _grabarRTC      
                          M         RST?RP
                          M     if ((PREV_BANK & 1) != 0)
                          M         bcf     STATUS, RP0
                          M     endif
                          M     if ((PREV_BANK & 2) != 0)
                          M         bcf     STATUS, RP1
                          M     endif
  00000000                M PREV_BANK = 0
                          M     ifdef PM_USED
                          M         LALL
                          M _grabarRTC
                          M         XALL
                          M     else
02A3                      M _grabarRTC
                          M     endif
                      00235         I2CDATA?T       _DPIN
                          M         BIT?R1  PORTB, 006h
02A3   3006               M         movlw   low ((PORTB) + ((006h)  >> 3))
                          M         CHK?RP  RR1
                          M     if (((RR1)   & 180h) == 0)
                          M       if (PREV_BANK == 1)
                          M         bcf     STATUS, RP0
                          M       endif
                          M       if (PREV_BANK == 2)
                          M         bcf     STATUS, RP1
                          M       endif
                          M       if (PREV_BANK == 3)
                          M         bcf     STATUS, RP0
                          M         bcf     STATUS, RP1
                          M       endif
  00000000                M PREV_BANK = 0
                          M     endif
                          M 
                          M     if (((RR1)   & 180h) == 80h)
                          M       if (PREV_BANK == 0)
                          M         bsf     STATUS, RP0
                          M       endif
                          M       if (PREV_BANK == 2)
                          M         bsf     STATUS, RP0
                          M         bcf     STATUS, RP1
                          M       endif
                          M       if (PREV_BANK == 3)
                          M         bcf     STATUS, RP1
                          M       endif
                          M PREV_BANK = 1
                          M     endif
MPASM  5.49                      RTCCON~1.ASM   1-27-2021  11:00:41         PAGE 253


LOC  OBJECT CODE     LINE SOURCE TEXT
  VALUE

                          M 
                          M     if (((RR1)   & 180h) == 100h)
                          M       if (PREV_BANK == 0)
                          M         bsf     STATUS, RP1
                          M       endif
                          M       if (PREV_BANK == 1)
                          M         bcf     STATUS, RP0
                          M         bsf     STATUS, RP1
                          M       endif
                          M       if (PREV_BANK == 3)
                          M         bcf     STATUS, RP0
                          M       endif
                          M PREV_BANK = 2
                          M     endif
                          M 
                          M     if (((RR1)   & 180h) == 180h)
                          M       if (PREV_BANK == 0)
                          M         bsf     STATUS, RP0
                          M         bsf     STATUS, RP1
                          M       endif
                          M       if (PREV_BANK == 1)
                          M         bsf     STATUS, RP1
                          M       endif
                          M       if (PREV_BANK == 2)
                          M         bsf     STATUS, RP0
                          M       endif
                          M PREV_BANK = 3
                          M     endif
02A4   00B6               M         movwf   RR1
                          M         BIT?W   006h
                          M     if (((006h)  & 7) == 0)
                          M         movlw   01h
                          M     endif
                          M     if (((006h)  & 7) == 1)
                          M         movlw   02h
                          M     endif
                          M     if (((006h)  & 7) == 2)
                          M         movlw   04h
                          M     endif
                          M     if (((006h)  & 7) == 3)
                          M         movlw   08h
                          M     endif
                          M     if (((006h)  & 7) == 4)
                          M         movlw   10h
                          M     endif
                          M     if (((006h)  & 7) == 5)
                          M         movlw   20h
                          M     endif
                          M     if (((006h)  & 7) == 6)
02A5   3040               M         movlw   40h
                          M     endif
                          M     if (((006h)  & 7) == 7)
                          M         movlw   80h
MPASM  5.49                      RTCCON~1.ASM   1-27-2021  11:00:41         PAGE 254


LOC  OBJECT CODE     LINE SOURCE TEXT
  VALUE

                          M     endif
02A6   00B4               M         movwf   RM1
                      00236         I2CCLOCK?T      _CPIN
                          M         BIT?R2  PORTB, 007h
02A7   3006               M         movlw   low ((PORTB) + ((007h)  >> 3))
                          M         CHK?RP  RR2
                          M     if (((RR2)   & 180h) == 0)
                          M       if (PREV_BANK == 1)
                          M         bcf     STATUS, RP0
                          M       endif
                          M       if (PREV_BANK == 2)
                          M         bcf     STATUS, RP1
                          M       endif
                          M       if (PREV_BANK == 3)
                          M         bcf     STATUS, RP0
                          M         bcf     STATUS, RP1
                          M       endif
  00000000                M PREV_BANK = 0
                          M     endif
                          M 
                          M     if (((RR2)   & 180h) == 80h)
                          M       if (PREV_BANK == 0)
                          M         bsf     STATUS, RP0
                          M       endif
                          M       if (PREV_BANK == 2)
                          M         bsf     STATUS, RP0
                          M         bcf     STATUS, RP1
                          M       endif
                          M       if (PREV_BANK == 3)
                          M         bcf     STATUS, RP1
                          M       endif
                          M PREV_BANK = 1
                          M     endif
                          M 
                          M     if (((RR2)   & 180h) == 100h)
                          M       if (PREV_BANK == 0)
                          M         bsf     STATUS, RP1
                          M       endif
                          M       if (PREV_BANK == 1)
                          M         bcf     STATUS, RP0
                          M         bsf     STATUS, RP1
                          M       endif
                          M       if (PREV_BANK == 3)
                          M         bcf     STATUS, RP0
                          M       endif
                          M PREV_BANK = 2
                          M     endif
                          M 
                          M     if (((RR2)   & 180h) == 180h)
                          M       if (PREV_BANK == 0)
                          M         bsf     STATUS, RP0
                          M         bsf     STATUS, RP1
                          M       endif
MPASM  5.49                      RTCCON~1.ASM   1-27-2021  11:00:41         PAGE 255


LOC  OBJECT CODE     LINE SOURCE TEXT
  VALUE

                          M       if (PREV_BANK == 1)
                          M         bsf     STATUS, RP1
                          M       endif
                          M       if (PREV_BANK == 2)
                          M         bsf     STATUS, RP0
                          M       endif
                          M PREV_BANK = 3
                          M     endif
02A8   00B7               M         movwf   RR2
                          M         BIT?W   007h
                          M     if (((007h)  & 7) == 0)
                          M         movlw   01h
                          M     endif
                          M     if (((007h)  & 7) == 1)
                          M         movlw   02h
                          M     endif
                          M     if (((007h)  & 7) == 2)
                          M         movlw   04h
                          M     endif
                          M     if (((007h)  & 7) == 3)
                          M         movlw   08h
                          M     endif
                          M     if (((007h)  & 7) == 4)
                          M         movlw   10h
                          M     endif
                          M     if (((007h)  & 7) == 5)
                          M         movlw   20h
                          M     endif
                          M     if (((007h)  & 7) == 6)
                          M         movlw   40h
                          M     endif
                          M     if (((007h)  & 7) == 7)
02A9   3080               M         movlw   80h
                          M     endif
02AA   00B5               M         movwf   RM2
                      00237         I2CWRITE?C      0D0h
                          M     if ((high (0D0h)) != 0)
                          M         movlw   (0D0h) >> 8
                          M         L?CALL  I2CWRITE
                          M     endif
                          M         MOVE?CA low (0D0h)
02AB   30D0               M         movlw   low (low (0D0h))
                          M         L?CALL  I2CWRITE
                          M         RST?RP
                          M     if ((PREV_BANK & 1) != 0)
                          M         bcf     STATUS, RP0
                          M     endif
                          M     if ((PREV_BANK & 2) != 0)
                          M         bcf     STATUS, RP1
                          M     endif
  00000000                M PREV_BANK = 0
                          M 
                          M     if ((I2CWRITE) < 1)
MPASM  5.49                      RTCCON~1.ASM   1-27-2021  11:00:41         PAGE 256


LOC  OBJECT CODE     LINE SOURCE TEXT
  VALUE

                          M       if (CODE_SIZE >= 4)
                          M         if (((I2CWRITE) & 800h) == 0)
                          M         bcf     PCLATH, 3
                          M         else
                          M         bsf     PCLATH, 3
                          M         endif
                          M       endif
                          M       if (CODE_SIZE == 8)
                          M         if (((I2CWRITE) & 1000h) == 0)
                          M         bcf     PCLATH, 4
                          M         else
                          M         bsf     PCLATH, 4
                          M         endif
                          M       endif
                          M     else
                          M       if ((I2CWRITE) > $)
                          M         if (CODE_SIZE >= 4)
                          M           if (((I2CWRITE) & 800h) == 0)
                          M         bcf     PCLATH, 3
                          M           else
                          M         bsf     PCLATH, 3
                          M           endif
                          M         endif
                          M         if (CODE_SIZE == 8)
                          M           if (((I2CWRITE) & 1000h) == 0)
                          M         bcf     PCLATH, 4
                          M           else
                          M         bsf     PCLATH, 4
                          M           endif
                          M         endif
                          M       else
                          M         if (CODE_SIZE >= 4)
                          M           if (((I2CWRITE) & 1800h) == 0)
                          M         clrf    PCLATH
                          M           else
                          M             if (((I2CWRITE) & 800h) == 0)
                          M         bcf     PCLATH, 3
                          M             else
                          M         bsf     PCLATH, 3
                          M             endif
                          M             if (CODE_SIZE == 8)
                          M               if (((I2CWRITE) & 1000h) == 0)
                          M         bcf     PCLATH, 4
                          M               else
                          M         bsf     PCLATH, 4
                          M               endif
                          M             endif
                          M           endif
                          M         endif
                          M       endif
                          M     endif
                          M 
02AC   201D               M         call    I2CWRITE
MPASM  5.49                      RTCCON~1.ASM   1-27-2021  11:00:41         PAGE 257


LOC  OBJECT CODE     LINE SOURCE TEXT
  VALUE

                      00238         I2CWRITE?C      000h
                          M     if ((high (000h)) != 0)
                          M         movlw   (000h) >> 8
                          M         L?CALL  I2CWRITE
                          M     endif
                          M         MOVE?CA low (000h)
02AD   3000               M         movlw   low (low (000h))
                          M         L?CALL  I2CWRITE
                          M         RST?RP
                          M     if ((PREV_BANK & 1) != 0)
                          M         bcf     STATUS, RP0
                          M     endif
                          M     if ((PREV_BANK & 2) != 0)
                          M         bcf     STATUS, RP1
                          M     endif
  00000000                M PREV_BANK = 0
                          M 
                          M     if ((I2CWRITE) < 1)
                          M       if (CODE_SIZE >= 4)
                          M         if (((I2CWRITE) & 800h) == 0)
                          M         bcf     PCLATH, 3
                          M         else
                          M         bsf     PCLATH, 3
                          M         endif
                          M       endif
                          M       if (CODE_SIZE == 8)
                          M         if (((I2CWRITE) & 1000h) == 0)
                          M         bcf     PCLATH, 4
                          M         else
                          M         bsf     PCLATH, 4
                          M         endif
                          M       endif
                          M     else
                          M       if ((I2CWRITE) > $)
                          M         if (CODE_SIZE >= 4)
                          M           if (((I2CWRITE) & 800h) == 0)
                          M         bcf     PCLATH, 3
                          M           else
                          M         bsf     PCLATH, 3
                          M           endif
                          M         endif
                          M         if (CODE_SIZE == 8)
                          M           if (((I2CWRITE) & 1000h) == 0)
                          M         bcf     PCLATH, 4
                          M           else
                          M         bsf     PCLATH, 4
                          M           endif
                          M         endif
                          M       else
                          M         if (CODE_SIZE >= 4)
                          M           if (((I2CWRITE) & 1800h) == 0)
                          M         clrf    PCLATH
                          M           else
MPASM  5.49                      RTCCON~1.ASM   1-27-2021  11:00:41         PAGE 258


LOC  OBJECT CODE     LINE SOURCE TEXT
  VALUE

                          M             if (((I2CWRITE) & 800h) == 0)
                          M         bcf     PCLATH, 3
                          M             else
                          M         bsf     PCLATH, 3
                          M             endif
                          M             if (CODE_SIZE == 8)
                          M               if (((I2CWRITE) & 1000h) == 0)
                          M         bcf     PCLATH, 4
                          M               else
                          M         bsf     PCLATH, 4
                          M               endif
                          M             endif
                          M           endif
                          M         endif
                          M       endif
                          M     endif
                          M 
02AE   201D               M         call    I2CWRITE
                      00239         I2CWRITES?C     000h
                          M     if ((high (000h)) != 0)
                          M         movlw   (000h) >> 8
                          M         L?CALL  I2CWRITE
                          M     endif
                          M         MOVE?CA low (000h)
02AF   3000               M         movlw   low (low (000h))
                          M         L?CALL  I2CWRITES
                          M         RST?RP
                          M     if ((PREV_BANK & 1) != 0)
                          M         bcf     STATUS, RP0
                          M     endif
                          M     if ((PREV_BANK & 2) != 0)
                          M         bcf     STATUS, RP1
                          M     endif
  00000000                M PREV_BANK = 0
                          M 
                          M     if ((I2CWRITES) < 1)
                          M       if (CODE_SIZE >= 4)
                          M         if (((I2CWRITES) & 800h) == 0)
                          M         bcf     PCLATH, 3
                          M         else
                          M         bsf     PCLATH, 3
                          M         endif
                          M       endif
                          M       if (CODE_SIZE == 8)
                          M         if (((I2CWRITES) & 1000h) == 0)
                          M         bcf     PCLATH, 4
                          M         else
                          M         bsf     PCLATH, 4
                          M         endif
                          M       endif
                          M     else
                          M       if ((I2CWRITES) > $)
                          M         if (CODE_SIZE >= 4)
MPASM  5.49                      RTCCON~1.ASM   1-27-2021  11:00:41         PAGE 259


LOC  OBJECT CODE     LINE SOURCE TEXT
  VALUE

                          M           if (((I2CWRITES) & 800h) == 0)
                          M         bcf     PCLATH, 3
                          M           else
                          M         bsf     PCLATH, 3
                          M           endif
                          M         endif
                          M         if (CODE_SIZE == 8)
                          M           if (((I2CWRITES) & 1000h) == 0)
                          M         bcf     PCLATH, 4
                          M           else
                          M         bsf     PCLATH, 4
                          M           endif
                          M         endif
                          M       else
                          M         if (CODE_SIZE >= 4)
                          M           if (((I2CWRITES) & 1800h) == 0)
                          M         clrf    PCLATH
                          M           else
                          M             if (((I2CWRITES) & 800h) == 0)
                          M         bcf     PCLATH, 3
                          M             else
                          M         bsf     PCLATH, 3
                          M             endif
                          M             if (CODE_SIZE == 8)
                          M               if (((I2CWRITES) & 1000h) == 0)
                          M         bcf     PCLATH, 4
                          M               else
                          M         bsf     PCLATH, 4
                          M               endif
                          M             endif
                          M           endif
                          M         endif
                          M       endif
                          M     endif
                          M 
02B0   201B               M         call    I2CWRITES
                      00240         PAUSE?C 00Ah
                          M     if (((00Ah) >> 8) == 0)
                          M         MOVE?CA 00Ah
02B1   300A               M         movlw   low (00Ah)
                          M         L?CALL  PAUSE
                          M         RST?RP
                          M     if ((PREV_BANK & 1) != 0)
                          M         bcf     STATUS, RP0
                          M     endif
                          M     if ((PREV_BANK & 2) != 0)
                          M         bcf     STATUS, RP1
                          M     endif
  00000000                M PREV_BANK = 0
                          M 
                          M     if ((PAUSE) < 1)
                          M       if (CODE_SIZE >= 4)
                          M         if (((PAUSE) & 800h) == 0)
MPASM  5.49                      RTCCON~1.ASM   1-27-2021  11:00:41         PAGE 260


LOC  OBJECT CODE     LINE SOURCE TEXT
  VALUE

                          M         bcf     PCLATH, 3
                          M         else
                          M         bsf     PCLATH, 3
                          M         endif
                          M       endif
                          M       if (CODE_SIZE == 8)
                          M         if (((PAUSE) & 1000h) == 0)
                          M         bcf     PCLATH, 4
                          M         else
                          M         bsf     PCLATH, 4
                          M         endif
                          M       endif
                          M     else
                          M       if ((PAUSE) > $)
                          M         if (CODE_SIZE >= 4)
                          M           if (((PAUSE) & 800h) == 0)
                          M         bcf     PCLATH, 3
                          M           else
                          M         bsf     PCLATH, 3
                          M           endif
                          M         endif
                          M         if (CODE_SIZE == 8)
                          M           if (((PAUSE) & 1000h) == 0)
                          M         bcf     PCLATH, 4
                          M           else
                          M         bsf     PCLATH, 4
                          M           endif
                          M         endif
                          M       else
                          M         if (CODE_SIZE >= 4)
                          M           if (((PAUSE) & 1800h) == 0)
                          M         clrf    PCLATH
                          M           else
                          M             if (((PAUSE) & 800h) == 0)
                          M         bcf     PCLATH, 3
                          M             else
                          M         bsf     PCLATH, 3
                          M             endif
                          M             if (CODE_SIZE == 8)
                          M               if (((PAUSE) & 1000h) == 0)
                          M         bcf     PCLATH, 4
                          M               else
                          M         bsf     PCLATH, 4
                          M               endif
                          M             endif
                          M           endif
                          M         endif
                          M       endif
                          M     endif
                          M 
02B2   20EA               M         call    PAUSE
                          M     else
                          M         MOVE?CB (00Ah) >> 8, R1 + 1
MPASM  5.49                      RTCCON~1.ASM   1-27-2021  11:00:41         PAGE 261


LOC  OBJECT CODE     LINE SOURCE TEXT
  VALUE

                          M         MOVE?CA low (00Ah)
                          M         L?CALL  PAUSEL
                          M     endif
                      00241         I2CDATA?T       _DPIN
                          M         BIT?R1  PORTB, 006h
02B3   3006               M         movlw   low ((PORTB) + ((006h)  >> 3))
                          M         CHK?RP  RR1
                          M     if (((RR1)   & 180h) == 0)
                          M       if (PREV_BANK == 1)
                          M         bcf     STATUS, RP0
                          M       endif
                          M       if (PREV_BANK == 2)
                          M         bcf     STATUS, RP1
                          M       endif
                          M       if (PREV_BANK == 3)
                          M         bcf     STATUS, RP0
                          M         bcf     STATUS, RP1
                          M       endif
  00000000                M PREV_BANK = 0
                          M     endif
                          M 
                          M     if (((RR1)   & 180h) == 80h)
                          M       if (PREV_BANK == 0)
                          M         bsf     STATUS, RP0
                          M       endif
                          M       if (PREV_BANK == 2)
                          M         bsf     STATUS, RP0
                          M         bcf     STATUS, RP1
                          M       endif
                          M       if (PREV_BANK == 3)
                          M         bcf     STATUS, RP1
                          M       endif
                          M PREV_BANK = 1
                          M     endif
                          M 
                          M     if (((RR1)   & 180h) == 100h)
                          M       if (PREV_BANK == 0)
                          M         bsf     STATUS, RP1
                          M       endif
                          M       if (PREV_BANK == 1)
                          M         bcf     STATUS, RP0
                          M         bsf     STATUS, RP1
                          M       endif
                          M       if (PREV_BANK == 3)
                          M         bcf     STATUS, RP0
                          M       endif
                          M PREV_BANK = 2
                          M     endif
                          M 
                          M     if (((RR1)   & 180h) == 180h)
                          M       if (PREV_BANK == 0)
                          M         bsf     STATUS, RP0
                          M         bsf     STATUS, RP1
MPASM  5.49                      RTCCON~1.ASM   1-27-2021  11:00:41         PAGE 262


LOC  OBJECT CODE     LINE SOURCE TEXT
  VALUE

                          M       endif
                          M       if (PREV_BANK == 1)
                          M         bsf     STATUS, RP1
                          M       endif
                          M       if (PREV_BANK == 2)
                          M         bsf     STATUS, RP0
                          M       endif
                          M PREV_BANK = 3
                          M     endif
02B4   00B6               M         movwf   RR1
                          M         BIT?W   006h
                          M     if (((006h)  & 7) == 0)
                          M         movlw   01h
                          M     endif
                          M     if (((006h)  & 7) == 1)
                          M         movlw   02h
                          M     endif
                          M     if (((006h)  & 7) == 2)
                          M         movlw   04h
                          M     endif
                          M     if (((006h)  & 7) == 3)
                          M         movlw   08h
                          M     endif
                          M     if (((006h)  & 7) == 4)
                          M         movlw   10h
                          M     endif
                          M     if (((006h)  & 7) == 5)
                          M         movlw   20h
                          M     endif
                          M     if (((006h)  & 7) == 6)
02B5   3040               M         movlw   40h
                          M     endif
                          M     if (((006h)  & 7) == 7)
                          M         movlw   80h
                          M     endif
02B6   00B4               M         movwf   RM1
                      00242         I2CCLOCK?T      _CPIN
                          M         BIT?R2  PORTB, 007h
02B7   3006               M         movlw   low ((PORTB) + ((007h)  >> 3))
                          M         CHK?RP  RR2
                          M     if (((RR2)   & 180h) == 0)
                          M       if (PREV_BANK == 1)
                          M         bcf     STATUS, RP0
                          M       endif
                          M       if (PREV_BANK == 2)
                          M         bcf     STATUS, RP1
                          M       endif
                          M       if (PREV_BANK == 3)
                          M         bcf     STATUS, RP0
                          M         bcf     STATUS, RP1
                          M       endif
  00000000                M PREV_BANK = 0
                          M     endif
MPASM  5.49                      RTCCON~1.ASM   1-27-2021  11:00:41         PAGE 263


LOC  OBJECT CODE     LINE SOURCE TEXT
  VALUE

                          M 
                          M     if (((RR2)   & 180h) == 80h)
                          M       if (PREV_BANK == 0)
                          M         bsf     STATUS, RP0
                          M       endif
                          M       if (PREV_BANK == 2)
                          M         bsf     STATUS, RP0
                          M         bcf     STATUS, RP1
                          M       endif
                          M       if (PREV_BANK == 3)
                          M         bcf     STATUS, RP1
                          M       endif
                          M PREV_BANK = 1
                          M     endif
                          M 
                          M     if (((RR2)   & 180h) == 100h)
                          M       if (PREV_BANK == 0)
                          M         bsf     STATUS, RP1
                          M       endif
                          M       if (PREV_BANK == 1)
                          M         bcf     STATUS, RP0
                          M         bsf     STATUS, RP1
                          M       endif
                          M       if (PREV_BANK == 3)
                          M         bcf     STATUS, RP0
                          M       endif
                          M PREV_BANK = 2
                          M     endif
                          M 
                          M     if (((RR2)   & 180h) == 180h)
                          M       if (PREV_BANK == 0)
                          M         bsf     STATUS, RP0
                          M         bsf     STATUS, RP1
                          M       endif
                          M       if (PREV_BANK == 1)
                          M         bsf     STATUS, RP1
                          M       endif
                          M       if (PREV_BANK == 2)
                          M         bsf     STATUS, RP0
                          M       endif
                          M PREV_BANK = 3
                          M     endif
02B8   00B7               M         movwf   RR2
                          M         BIT?W   007h
                          M     if (((007h)  & 7) == 0)
                          M         movlw   01h
                          M     endif
                          M     if (((007h)  & 7) == 1)
                          M         movlw   02h
                          M     endif
                          M     if (((007h)  & 7) == 2)
                          M         movlw   04h
                          M     endif
MPASM  5.49                      RTCCON~1.ASM   1-27-2021  11:00:41         PAGE 264


LOC  OBJECT CODE     LINE SOURCE TEXT
  VALUE

                          M     if (((007h)  & 7) == 3)
                          M         movlw   08h
                          M     endif
                          M     if (((007h)  & 7) == 4)
                          M         movlw   10h
                          M     endif
                          M     if (((007h)  & 7) == 5)
                          M         movlw   20h
                          M     endif
                          M     if (((007h)  & 7) == 6)
                          M         movlw   40h
                          M     endif
                          M     if (((007h)  & 7) == 7)
02B9   3080               M         movlw   80h
                          M     endif
02BA   00B5               M         movwf   RM2
                      00243         I2CWRITE?C      0D0h
                          M     if ((high (0D0h)) != 0)
                          M         movlw   (0D0h) >> 8
                          M         L?CALL  I2CWRITE
                          M     endif
                          M         MOVE?CA low (0D0h)
02BB   30D0               M         movlw   low (low (0D0h))
                          M         L?CALL  I2CWRITE
                          M         RST?RP
                          M     if ((PREV_BANK & 1) != 0)
                          M         bcf     STATUS, RP0
                          M     endif
                          M     if ((PREV_BANK & 2) != 0)
                          M         bcf     STATUS, RP1
                          M     endif
  00000000                M PREV_BANK = 0
                          M 
                          M     if ((I2CWRITE) < 1)
                          M       if (CODE_SIZE >= 4)
                          M         if (((I2CWRITE) & 800h) == 0)
                          M         bcf     PCLATH, 3
                          M         else
                          M         bsf     PCLATH, 3
                          M         endif
                          M       endif
                          M       if (CODE_SIZE == 8)
                          M         if (((I2CWRITE) & 1000h) == 0)
                          M         bcf     PCLATH, 4
                          M         else
                          M         bsf     PCLATH, 4
                          M         endif
                          M       endif
                          M     else
                          M       if ((I2CWRITE) > $)
                          M         if (CODE_SIZE >= 4)
                          M           if (((I2CWRITE) & 800h) == 0)
                          M         bcf     PCLATH, 3
MPASM  5.49                      RTCCON~1.ASM   1-27-2021  11:00:41         PAGE 265


LOC  OBJECT CODE     LINE SOURCE TEXT
  VALUE

                          M           else
                          M         bsf     PCLATH, 3
                          M           endif
                          M         endif
                          M         if (CODE_SIZE == 8)
                          M           if (((I2CWRITE) & 1000h) == 0)
                          M         bcf     PCLATH, 4
                          M           else
                          M         bsf     PCLATH, 4
                          M           endif
                          M         endif
                          M       else
                          M         if (CODE_SIZE >= 4)
                          M           if (((I2CWRITE) & 1800h) == 0)
                          M         clrf    PCLATH
                          M           else
                          M             if (((I2CWRITE) & 800h) == 0)
                          M         bcf     PCLATH, 3
                          M             else
                          M         bsf     PCLATH, 3
                          M             endif
                          M             if (CODE_SIZE == 8)
                          M               if (((I2CWRITE) & 1000h) == 0)
                          M         bcf     PCLATH, 4
                          M               else
                          M         bsf     PCLATH, 4
                          M               endif
                          M             endif
                          M           endif
                          M         endif
                          M       endif
                          M     endif
                          M 
02BC   201D               M         call    I2CWRITE
                      00244         I2CWRITE?C      001h
                          M     if ((high (001h)) != 0)
                          M         movlw   (001h) >> 8
                          M         L?CALL  I2CWRITE
                          M     endif
                          M         MOVE?CA low (001h)
02BD   3001               M         movlw   low (low (001h))
                          M         L?CALL  I2CWRITE
                          M         RST?RP
                          M     if ((PREV_BANK & 1) != 0)
                          M         bcf     STATUS, RP0
                          M     endif
                          M     if ((PREV_BANK & 2) != 0)
                          M         bcf     STATUS, RP1
                          M     endif
  00000000                M PREV_BANK = 0
                          M 
                          M     if ((I2CWRITE) < 1)
                          M       if (CODE_SIZE >= 4)
MPASM  5.49                      RTCCON~1.ASM   1-27-2021  11:00:41         PAGE 266


LOC  OBJECT CODE     LINE SOURCE TEXT
  VALUE

                          M         if (((I2CWRITE) & 800h) == 0)
                          M         bcf     PCLATH, 3
                          M         else
                          M         bsf     PCLATH, 3
                          M         endif
                          M       endif
                          M       if (CODE_SIZE == 8)
                          M         if (((I2CWRITE) & 1000h) == 0)
                          M         bcf     PCLATH, 4
                          M         else
                          M         bsf     PCLATH, 4
                          M         endif
                          M       endif
                          M     else
                          M       if ((I2CWRITE) > $)
                          M         if (CODE_SIZE >= 4)
                          M           if (((I2CWRITE) & 800h) == 0)
                          M         bcf     PCLATH, 3
                          M           else
                          M         bsf     PCLATH, 3
                          M           endif
                          M         endif
                          M         if (CODE_SIZE == 8)
                          M           if (((I2CWRITE) & 1000h) == 0)
                          M         bcf     PCLATH, 4
                          M           else
                          M         bsf     PCLATH, 4
                          M           endif
                          M         endif
                          M       else
                          M         if (CODE_SIZE >= 4)
                          M           if (((I2CWRITE) & 1800h) == 0)
                          M         clrf    PCLATH
                          M           else
                          M             if (((I2CWRITE) & 800h) == 0)
                          M         bcf     PCLATH, 3
                          M             else
                          M         bsf     PCLATH, 3
                          M             endif
                          M             if (CODE_SIZE == 8)
                          M               if (((I2CWRITE) & 1000h) == 0)
                          M         bcf     PCLATH, 4
                          M               else
                          M         bsf     PCLATH, 4
                          M               endif
                          M             endif
                          M           endif
                          M         endif
                          M       endif
                          M     endif
                          M 
02BE   201D               M         call    I2CWRITE
                      00245         I2CWRITES?C     032h
MPASM  5.49                      RTCCON~1.ASM   1-27-2021  11:00:41         PAGE 267


LOC  OBJECT CODE     LINE SOURCE TEXT
  VALUE

                          M     if ((high (032h)) != 0)
                          M         movlw   (032h) >> 8
                          M         L?CALL  I2CWRITE
                          M     endif
                          M         MOVE?CA low (032h)
02BF   3032               M         movlw   low (low (032h))
                          M         L?CALL  I2CWRITES
                          M         RST?RP
                          M     if ((PREV_BANK & 1) != 0)
                          M         bcf     STATUS, RP0
                          M     endif
                          M     if ((PREV_BANK & 2) != 0)
                          M         bcf     STATUS, RP1
                          M     endif
  00000000                M PREV_BANK = 0
                          M 
                          M     if ((I2CWRITES) < 1)
                          M       if (CODE_SIZE >= 4)
                          M         if (((I2CWRITES) & 800h) == 0)
                          M         bcf     PCLATH, 3
                          M         else
                          M         bsf     PCLATH, 3
                          M         endif
                          M       endif
                          M       if (CODE_SIZE == 8)
                          M         if (((I2CWRITES) & 1000h) == 0)
                          M         bcf     PCLATH, 4
                          M         else
                          M         bsf     PCLATH, 4
                          M         endif
                          M       endif
                          M     else
                          M       if ((I2CWRITES) > $)
                          M         if (CODE_SIZE >= 4)
                          M           if (((I2CWRITES) & 800h) == 0)
                          M         bcf     PCLATH, 3
                          M           else
                          M         bsf     PCLATH, 3
                          M           endif
                          M         endif
                          M         if (CODE_SIZE == 8)
                          M           if (((I2CWRITES) & 1000h) == 0)
                          M         bcf     PCLATH, 4
                          M           else
                          M         bsf     PCLATH, 4
                          M           endif
                          M         endif
                          M       else
                          M         if (CODE_SIZE >= 4)
                          M           if (((I2CWRITES) & 1800h) == 0)
                          M         clrf    PCLATH
                          M           else
                          M             if (((I2CWRITES) & 800h) == 0)
MPASM  5.49                      RTCCON~1.ASM   1-27-2021  11:00:41         PAGE 268


LOC  OBJECT CODE     LINE SOURCE TEXT
  VALUE

                          M         bcf     PCLATH, 3
                          M             else
                          M         bsf     PCLATH, 3
                          M             endif
                          M             if (CODE_SIZE == 8)
                          M               if (((I2CWRITES) & 1000h) == 0)
                          M         bcf     PCLATH, 4
                          M               else
                          M         bsf     PCLATH, 4
                          M               endif
                          M             endif
                          M           endif
                          M         endif
                          M       endif
                          M     endif
                          M 
02C0   201B               M         call    I2CWRITES
                      00246         PAUSE?C 00Ah
                          M     if (((00Ah) >> 8) == 0)
                          M         MOVE?CA 00Ah
02C1   300A               M         movlw   low (00Ah)
                          M         L?CALL  PAUSE
                          M         RST?RP
                          M     if ((PREV_BANK & 1) != 0)
                          M         bcf     STATUS, RP0
                          M     endif
                          M     if ((PREV_BANK & 2) != 0)
                          M         bcf     STATUS, RP1
                          M     endif
  00000000                M PREV_BANK = 0
                          M 
                          M     if ((PAUSE) < 1)
                          M       if (CODE_SIZE >= 4)
                          M         if (((PAUSE) & 800h) == 0)
                          M         bcf     PCLATH, 3
                          M         else
                          M         bsf     PCLATH, 3
                          M         endif
                          M       endif
                          M       if (CODE_SIZE == 8)
                          M         if (((PAUSE) & 1000h) == 0)
                          M         bcf     PCLATH, 4
                          M         else
                          M         bsf     PCLATH, 4
                          M         endif
                          M       endif
                          M     else
                          M       if ((PAUSE) > $)
                          M         if (CODE_SIZE >= 4)
                          M           if (((PAUSE) & 800h) == 0)
                          M         bcf     PCLATH, 3
                          M           else
                          M         bsf     PCLATH, 3
MPASM  5.49                      RTCCON~1.ASM   1-27-2021  11:00:41         PAGE 269


LOC  OBJECT CODE     LINE SOURCE TEXT
  VALUE

                          M           endif
                          M         endif
                          M         if (CODE_SIZE == 8)
                          M           if (((PAUSE) & 1000h) == 0)
                          M         bcf     PCLATH, 4
                          M           else
                          M         bsf     PCLATH, 4
                          M           endif
                          M         endif
                          M       else
                          M         if (CODE_SIZE >= 4)
                          M           if (((PAUSE) & 1800h) == 0)
                          M         clrf    PCLATH
                          M           else
                          M             if (((PAUSE) & 800h) == 0)
                          M         bcf     PCLATH, 3
                          M             else
                          M         bsf     PCLATH, 3
                          M             endif
                          M             if (CODE_SIZE == 8)
                          M               if (((PAUSE) & 1000h) == 0)
                          M         bcf     PCLATH, 4
                          M               else
                          M         bsf     PCLATH, 4
                          M               endif
                          M             endif
                          M           endif
                          M         endif
                          M       endif
                          M     endif
                          M 
02C2   20EA               M         call    PAUSE
                          M     else
                          M         MOVE?CB (00Ah) >> 8, R1 + 1
                          M         MOVE?CA low (00Ah)
                          M         L?CALL  PAUSEL
                          M     endif
                      00247         I2CDATA?T       _DPIN
                          M         BIT?R1  PORTB, 006h
02C3   3006               M         movlw   low ((PORTB) + ((006h)  >> 3))
                          M         CHK?RP  RR1
                          M     if (((RR1)   & 180h) == 0)
                          M       if (PREV_BANK == 1)
                          M         bcf     STATUS, RP0
                          M       endif
                          M       if (PREV_BANK == 2)
                          M         bcf     STATUS, RP1
                          M       endif
                          M       if (PREV_BANK == 3)
                          M         bcf     STATUS, RP0
                          M         bcf     STATUS, RP1
                          M       endif
  00000000                M PREV_BANK = 0
MPASM  5.49                      RTCCON~1.ASM   1-27-2021  11:00:41         PAGE 270


LOC  OBJECT CODE     LINE SOURCE TEXT
  VALUE

                          M     endif
                          M 
                          M     if (((RR1)   & 180h) == 80h)
                          M       if (PREV_BANK == 0)
                          M         bsf     STATUS, RP0
                          M       endif
                          M       if (PREV_BANK == 2)
                          M         bsf     STATUS, RP0
                          M         bcf     STATUS, RP1
                          M       endif
                          M       if (PREV_BANK == 3)
                          M         bcf     STATUS, RP1
                          M       endif
                          M PREV_BANK = 1
                          M     endif
                          M 
                          M     if (((RR1)   & 180h) == 100h)
                          M       if (PREV_BANK == 0)
                          M         bsf     STATUS, RP1
                          M       endif
                          M       if (PREV_BANK == 1)
                          M         bcf     STATUS, RP0
                          M         bsf     STATUS, RP1
                          M       endif
                          M       if (PREV_BANK == 3)
                          M         bcf     STATUS, RP0
                          M       endif
                          M PREV_BANK = 2
                          M     endif
                          M 
                          M     if (((RR1)   & 180h) == 180h)
                          M       if (PREV_BANK == 0)
                          M         bsf     STATUS, RP0
                          M         bsf     STATUS, RP1
                          M       endif
                          M       if (PREV_BANK == 1)
                          M         bsf     STATUS, RP1
                          M       endif
                          M       if (PREV_BANK == 2)
                          M         bsf     STATUS, RP0
                          M       endif
                          M PREV_BANK = 3
                          M     endif
02C4   00B6               M         movwf   RR1
                          M         BIT?W   006h
                          M     if (((006h)  & 7) == 0)
                          M         movlw   01h
                          M     endif
                          M     if (((006h)  & 7) == 1)
                          M         movlw   02h
                          M     endif
                          M     if (((006h)  & 7) == 2)
                          M         movlw   04h
MPASM  5.49                      RTCCON~1.ASM   1-27-2021  11:00:41         PAGE 271


LOC  OBJECT CODE     LINE SOURCE TEXT
  VALUE

                          M     endif
                          M     if (((006h)  & 7) == 3)
                          M         movlw   08h
                          M     endif
                          M     if (((006h)  & 7) == 4)
                          M         movlw   10h
                          M     endif
                          M     if (((006h)  & 7) == 5)
                          M         movlw   20h
                          M     endif
                          M     if (((006h)  & 7) == 6)
02C5   3040               M         movlw   40h
                          M     endif
                          M     if (((006h)  & 7) == 7)
                          M         movlw   80h
                          M     endif
02C6   00B4               M         movwf   RM1
                      00248         I2CCLOCK?T      _CPIN
                          M         BIT?R2  PORTB, 007h
02C7   3006               M         movlw   low ((PORTB) + ((007h)  >> 3))
                          M         CHK?RP  RR2
                          M     if (((RR2)   & 180h) == 0)
                          M       if (PREV_BANK == 1)
                          M         bcf     STATUS, RP0
                          M       endif
                          M       if (PREV_BANK == 2)
                          M         bcf     STATUS, RP1
                          M       endif
                          M       if (PREV_BANK == 3)
                          M         bcf     STATUS, RP0
                          M         bcf     STATUS, RP1
                          M       endif
  00000000                M PREV_BANK = 0
                          M     endif
                          M 
                          M     if (((RR2)   & 180h) == 80h)
                          M       if (PREV_BANK == 0)
                          M         bsf     STATUS, RP0
                          M       endif
                          M       if (PREV_BANK == 2)
                          M         bsf     STATUS, RP0
                          M         bcf     STATUS, RP1
                          M       endif
                          M       if (PREV_BANK == 3)
                          M         bcf     STATUS, RP1
                          M       endif
                          M PREV_BANK = 1
                          M     endif
                          M 
                          M     if (((RR2)   & 180h) == 100h)
                          M       if (PREV_BANK == 0)
                          M         bsf     STATUS, RP1
                          M       endif
MPASM  5.49                      RTCCON~1.ASM   1-27-2021  11:00:41         PAGE 272


LOC  OBJECT CODE     LINE SOURCE TEXT
  VALUE

                          M       if (PREV_BANK == 1)
                          M         bcf     STATUS, RP0
                          M         bsf     STATUS, RP1
                          M       endif
                          M       if (PREV_BANK == 3)
                          M         bcf     STATUS, RP0
                          M       endif
                          M PREV_BANK = 2
                          M     endif
                          M 
                          M     if (((RR2)   & 180h) == 180h)
                          M       if (PREV_BANK == 0)
                          M         bsf     STATUS, RP0
                          M         bsf     STATUS, RP1
                          M       endif
                          M       if (PREV_BANK == 1)
                          M         bsf     STATUS, RP1
                          M       endif
                          M       if (PREV_BANK == 2)
                          M         bsf     STATUS, RP0
                          M       endif
                          M PREV_BANK = 3
                          M     endif
02C8   00B7               M         movwf   RR2
                          M         BIT?W   007h
                          M     if (((007h)  & 7) == 0)
                          M         movlw   01h
                          M     endif
                          M     if (((007h)  & 7) == 1)
                          M         movlw   02h
                          M     endif
                          M     if (((007h)  & 7) == 2)
                          M         movlw   04h
                          M     endif
                          M     if (((007h)  & 7) == 3)
                          M         movlw   08h
                          M     endif
                          M     if (((007h)  & 7) == 4)
                          M         movlw   10h
                          M     endif
                          M     if (((007h)  & 7) == 5)
                          M         movlw   20h
                          M     endif
                          M     if (((007h)  & 7) == 6)
                          M         movlw   40h
                          M     endif
                          M     if (((007h)  & 7) == 7)
02C9   3080               M         movlw   80h
                          M     endif
02CA   00B5               M         movwf   RM2
                      00249         I2CWRITE?C      0D0h
                          M     if ((high (0D0h)) != 0)
                          M         movlw   (0D0h) >> 8
MPASM  5.49                      RTCCON~1.ASM   1-27-2021  11:00:41         PAGE 273


LOC  OBJECT CODE     LINE SOURCE TEXT
  VALUE

                          M         L?CALL  I2CWRITE
                          M     endif
                          M         MOVE?CA low (0D0h)
02CB   30D0               M         movlw   low (low (0D0h))
                          M         L?CALL  I2CWRITE
                          M         RST?RP
                          M     if ((PREV_BANK & 1) != 0)
                          M         bcf     STATUS, RP0
                          M     endif
                          M     if ((PREV_BANK & 2) != 0)
                          M         bcf     STATUS, RP1
                          M     endif
  00000000                M PREV_BANK = 0
                          M 
                          M     if ((I2CWRITE) < 1)
                          M       if (CODE_SIZE >= 4)
                          M         if (((I2CWRITE) & 800h) == 0)
                          M         bcf     PCLATH, 3
                          M         else
                          M         bsf     PCLATH, 3
                          M         endif
                          M       endif
                          M       if (CODE_SIZE == 8)
                          M         if (((I2CWRITE) & 1000h) == 0)
                          M         bcf     PCLATH, 4
                          M         else
                          M         bsf     PCLATH, 4
                          M         endif
                          M       endif
                          M     else
                          M       if ((I2CWRITE) > $)
                          M         if (CODE_SIZE >= 4)
                          M           if (((I2CWRITE) & 800h) == 0)
                          M         bcf     PCLATH, 3
                          M           else
                          M         bsf     PCLATH, 3
                          M           endif
                          M         endif
                          M         if (CODE_SIZE == 8)
                          M           if (((I2CWRITE) & 1000h) == 0)
                          M         bcf     PCLATH, 4
                          M           else
                          M         bsf     PCLATH, 4
                          M           endif
                          M         endif
                          M       else
                          M         if (CODE_SIZE >= 4)
                          M           if (((I2CWRITE) & 1800h) == 0)
                          M         clrf    PCLATH
                          M           else
                          M             if (((I2CWRITE) & 800h) == 0)
                          M         bcf     PCLATH, 3
                          M             else
MPASM  5.49                      RTCCON~1.ASM   1-27-2021  11:00:41         PAGE 274


LOC  OBJECT CODE     LINE SOURCE TEXT
  VALUE

                          M         bsf     PCLATH, 3
                          M             endif
                          M             if (CODE_SIZE == 8)
                          M               if (((I2CWRITE) & 1000h) == 0)
                          M         bcf     PCLATH, 4
                          M               else
                          M         bsf     PCLATH, 4
                          M               endif
                          M             endif
                          M           endif
                          M         endif
                          M       endif
                          M     endif
                          M 
02CC   201D               M         call    I2CWRITE
                      00250         I2CWRITE?C      002h
                          M     if ((high (002h)) != 0)
                          M         movlw   (002h) >> 8
                          M         L?CALL  I2CWRITE
                          M     endif
                          M         MOVE?CA low (002h)
02CD   3002               M         movlw   low (low (002h))
                          M         L?CALL  I2CWRITE
                          M         RST?RP
                          M     if ((PREV_BANK & 1) != 0)
                          M         bcf     STATUS, RP0
                          M     endif
                          M     if ((PREV_BANK & 2) != 0)
                          M         bcf     STATUS, RP1
                          M     endif
  00000000                M PREV_BANK = 0
                          M 
                          M     if ((I2CWRITE) < 1)
                          M       if (CODE_SIZE >= 4)
                          M         if (((I2CWRITE) & 800h) == 0)
                          M         bcf     PCLATH, 3
                          M         else
                          M         bsf     PCLATH, 3
                          M         endif
                          M       endif
                          M       if (CODE_SIZE == 8)
                          M         if (((I2CWRITE) & 1000h) == 0)
                          M         bcf     PCLATH, 4
                          M         else
                          M         bsf     PCLATH, 4
                          M         endif
                          M       endif
                          M     else
                          M       if ((I2CWRITE) > $)
                          M         if (CODE_SIZE >= 4)
                          M           if (((I2CWRITE) & 800h) == 0)
                          M         bcf     PCLATH, 3
                          M           else
MPASM  5.49                      RTCCON~1.ASM   1-27-2021  11:00:41         PAGE 275


LOC  OBJECT CODE     LINE SOURCE TEXT
  VALUE

                          M         bsf     PCLATH, 3
                          M           endif
                          M         endif
                          M         if (CODE_SIZE == 8)
                          M           if (((I2CWRITE) & 1000h) == 0)
                          M         bcf     PCLATH, 4
                          M           else
                          M         bsf     PCLATH, 4
                          M           endif
                          M         endif
                          M       else
                          M         if (CODE_SIZE >= 4)
                          M           if (((I2CWRITE) & 1800h) == 0)
                          M         clrf    PCLATH
                          M           else
                          M             if (((I2CWRITE) & 800h) == 0)
                          M         bcf     PCLATH, 3
                          M             else
                          M         bsf     PCLATH, 3
                          M             endif
                          M             if (CODE_SIZE == 8)
                          M               if (((I2CWRITE) & 1000h) == 0)
                          M         bcf     PCLATH, 4
                          M               else
                          M         bsf     PCLATH, 4
                          M               endif
                          M             endif
                          M           endif
                          M         endif
                          M       endif
                          M     endif
                          M 
02CE   201D               M         call    I2CWRITE
                      00251         I2CWRITES?C     015h
                          M     if ((high (015h)) != 0)
                          M         movlw   (015h) >> 8
                          M         L?CALL  I2CWRITE
                          M     endif
                          M         MOVE?CA low (015h)
02CF   3015               M         movlw   low (low (015h))
                          M         L?CALL  I2CWRITES
                          M         RST?RP
                          M     if ((PREV_BANK & 1) != 0)
                          M         bcf     STATUS, RP0
                          M     endif
                          M     if ((PREV_BANK & 2) != 0)
                          M         bcf     STATUS, RP1
                          M     endif
  00000000                M PREV_BANK = 0
                          M 
                          M     if ((I2CWRITES) < 1)
                          M       if (CODE_SIZE >= 4)
                          M         if (((I2CWRITES) & 800h) == 0)
MPASM  5.49                      RTCCON~1.ASM   1-27-2021  11:00:41         PAGE 276


LOC  OBJECT CODE     LINE SOURCE TEXT
  VALUE

                          M         bcf     PCLATH, 3
                          M         else
                          M         bsf     PCLATH, 3
                          M         endif
                          M       endif
                          M       if (CODE_SIZE == 8)
                          M         if (((I2CWRITES) & 1000h) == 0)
                          M         bcf     PCLATH, 4
                          M         else
                          M         bsf     PCLATH, 4
                          M         endif
                          M       endif
                          M     else
                          M       if ((I2CWRITES) > $)
                          M         if (CODE_SIZE >= 4)
                          M           if (((I2CWRITES) & 800h) == 0)
                          M         bcf     PCLATH, 3
                          M           else
                          M         bsf     PCLATH, 3
                          M           endif
                          M         endif
                          M         if (CODE_SIZE == 8)
                          M           if (((I2CWRITES) & 1000h) == 0)
                          M         bcf     PCLATH, 4
                          M           else
                          M         bsf     PCLATH, 4
                          M           endif
                          M         endif
                          M       else
                          M         if (CODE_SIZE >= 4)
                          M           if (((I2CWRITES) & 1800h) == 0)
                          M         clrf    PCLATH
                          M           else
                          M             if (((I2CWRITES) & 800h) == 0)
                          M         bcf     PCLATH, 3
                          M             else
                          M         bsf     PCLATH, 3
                          M             endif
                          M             if (CODE_SIZE == 8)
                          M               if (((I2CWRITES) & 1000h) == 0)
                          M         bcf     PCLATH, 4
                          M               else
                          M         bsf     PCLATH, 4
                          M               endif
                          M             endif
                          M           endif
                          M         endif
                          M       endif
                          M     endif
                          M 
02D0   201B               M         call    I2CWRITES
                      00252         PAUSE?C 00Ah
                          M     if (((00Ah) >> 8) == 0)
MPASM  5.49                      RTCCON~1.ASM   1-27-2021  11:00:41         PAGE 277


LOC  OBJECT CODE     LINE SOURCE TEXT
  VALUE

                          M         MOVE?CA 00Ah
02D1   300A               M         movlw   low (00Ah)
                          M         L?CALL  PAUSE
                          M         RST?RP
                          M     if ((PREV_BANK & 1) != 0)
                          M         bcf     STATUS, RP0
                          M     endif
                          M     if ((PREV_BANK & 2) != 0)
                          M         bcf     STATUS, RP1
                          M     endif
  00000000                M PREV_BANK = 0
                          M 
                          M     if ((PAUSE) < 1)
                          M       if (CODE_SIZE >= 4)
                          M         if (((PAUSE) & 800h) == 0)
                          M         bcf     PCLATH, 3
                          M         else
                          M         bsf     PCLATH, 3
                          M         endif
                          M       endif
                          M       if (CODE_SIZE == 8)
                          M         if (((PAUSE) & 1000h) == 0)
                          M         bcf     PCLATH, 4
                          M         else
                          M         bsf     PCLATH, 4
                          M         endif
                          M       endif
                          M     else
                          M       if ((PAUSE) > $)
                          M         if (CODE_SIZE >= 4)
                          M           if (((PAUSE) & 800h) == 0)
                          M         bcf     PCLATH, 3
                          M           else
                          M         bsf     PCLATH, 3
                          M           endif
                          M         endif
                          M         if (CODE_SIZE == 8)
                          M           if (((PAUSE) & 1000h) == 0)
                          M         bcf     PCLATH, 4
                          M           else
                          M         bsf     PCLATH, 4
                          M           endif
                          M         endif
                          M       else
                          M         if (CODE_SIZE >= 4)
                          M           if (((PAUSE) & 1800h) == 0)
                          M         clrf    PCLATH
                          M           else
                          M             if (((PAUSE) & 800h) == 0)
                          M         bcf     PCLATH, 3
                          M             else
                          M         bsf     PCLATH, 3
                          M             endif
MPASM  5.49                      RTCCON~1.ASM   1-27-2021  11:00:41         PAGE 278


LOC  OBJECT CODE     LINE SOURCE TEXT
  VALUE

                          M             if (CODE_SIZE == 8)
                          M               if (((PAUSE) & 1000h) == 0)
                          M         bcf     PCLATH, 4
                          M               else
                          M         bsf     PCLATH, 4
                          M               endif
                          M             endif
                          M           endif
                          M         endif
                          M       endif
                          M     endif
                          M 
02D2   20EA               M         call    PAUSE
                          M     else
                          M         MOVE?CB (00Ah) >> 8, R1 + 1
                          M         MOVE?CA low (00Ah)
                          M         L?CALL  PAUSEL
                          M     endif
                      00253         I2CDATA?T       _DPIN
                          M         BIT?R1  PORTB, 006h
02D3   3006               M         movlw   low ((PORTB) + ((006h)  >> 3))
                          M         CHK?RP  RR1
                          M     if (((RR1)   & 180h) == 0)
                          M       if (PREV_BANK == 1)
                          M         bcf     STATUS, RP0
                          M       endif
                          M       if (PREV_BANK == 2)
                          M         bcf     STATUS, RP1
                          M       endif
                          M       if (PREV_BANK == 3)
                          M         bcf     STATUS, RP0
                          M         bcf     STATUS, RP1
                          M       endif
  00000000                M PREV_BANK = 0
                          M     endif
                          M 
                          M     if (((RR1)   & 180h) == 80h)
                          M       if (PREV_BANK == 0)
                          M         bsf     STATUS, RP0
                          M       endif
                          M       if (PREV_BANK == 2)
                          M         bsf     STATUS, RP0
                          M         bcf     STATUS, RP1
                          M       endif
                          M       if (PREV_BANK == 3)
                          M         bcf     STATUS, RP1
                          M       endif
                          M PREV_BANK = 1
                          M     endif
                          M 
                          M     if (((RR1)   & 180h) == 100h)
                          M       if (PREV_BANK == 0)
                          M         bsf     STATUS, RP1
MPASM  5.49                      RTCCON~1.ASM   1-27-2021  11:00:41         PAGE 279


LOC  OBJECT CODE     LINE SOURCE TEXT
  VALUE

                          M       endif
                          M       if (PREV_BANK == 1)
                          M         bcf     STATUS, RP0
                          M         bsf     STATUS, RP1
                          M       endif
                          M       if (PREV_BANK == 3)
                          M         bcf     STATUS, RP0
                          M       endif
                          M PREV_BANK = 2
                          M     endif
                          M 
                          M     if (((RR1)   & 180h) == 180h)
                          M       if (PREV_BANK == 0)
                          M         bsf     STATUS, RP0
                          M         bsf     STATUS, RP1
                          M       endif
                          M       if (PREV_BANK == 1)
                          M         bsf     STATUS, RP1
                          M       endif
                          M       if (PREV_BANK == 2)
                          M         bsf     STATUS, RP0
                          M       endif
                          M PREV_BANK = 3
                          M     endif
02D4   00B6               M         movwf   RR1
                          M         BIT?W   006h
                          M     if (((006h)  & 7) == 0)
                          M         movlw   01h
                          M     endif
                          M     if (((006h)  & 7) == 1)
                          M         movlw   02h
                          M     endif
                          M     if (((006h)  & 7) == 2)
                          M         movlw   04h
                          M     endif
                          M     if (((006h)  & 7) == 3)
                          M         movlw   08h
                          M     endif
                          M     if (((006h)  & 7) == 4)
                          M         movlw   10h
                          M     endif
                          M     if (((006h)  & 7) == 5)
                          M         movlw   20h
                          M     endif
                          M     if (((006h)  & 7) == 6)
02D5   3040               M         movlw   40h
                          M     endif
                          M     if (((006h)  & 7) == 7)
                          M         movlw   80h
                          M     endif
02D6   00B4               M         movwf   RM1
                      00254         I2CCLOCK?T      _CPIN
                          M         BIT?R2  PORTB, 007h
MPASM  5.49                      RTCCON~1.ASM   1-27-2021  11:00:41         PAGE 280


LOC  OBJECT CODE     LINE SOURCE TEXT
  VALUE

02D7   3006               M         movlw   low ((PORTB) + ((007h)  >> 3))
                          M         CHK?RP  RR2
                          M     if (((RR2)   & 180h) == 0)
                          M       if (PREV_BANK == 1)
                          M         bcf     STATUS, RP0
                          M       endif
                          M       if (PREV_BANK == 2)
                          M         bcf     STATUS, RP1
                          M       endif
                          M       if (PREV_BANK == 3)
                          M         bcf     STATUS, RP0
                          M         bcf     STATUS, RP1
                          M       endif
  00000000                M PREV_BANK = 0
                          M     endif
                          M 
                          M     if (((RR2)   & 180h) == 80h)
                          M       if (PREV_BANK == 0)
                          M         bsf     STATUS, RP0
                          M       endif
                          M       if (PREV_BANK == 2)
                          M         bsf     STATUS, RP0
                          M         bcf     STATUS, RP1
                          M       endif
                          M       if (PREV_BANK == 3)
                          M         bcf     STATUS, RP1
                          M       endif
                          M PREV_BANK = 1
                          M     endif
                          M 
                          M     if (((RR2)   & 180h) == 100h)
                          M       if (PREV_BANK == 0)
                          M         bsf     STATUS, RP1
                          M       endif
                          M       if (PREV_BANK == 1)
                          M         bcf     STATUS, RP0
                          M         bsf     STATUS, RP1
                          M       endif
                          M       if (PREV_BANK == 3)
                          M         bcf     STATUS, RP0
                          M       endif
                          M PREV_BANK = 2
                          M     endif
                          M 
                          M     if (((RR2)   & 180h) == 180h)
                          M       if (PREV_BANK == 0)
                          M         bsf     STATUS, RP0
                          M         bsf     STATUS, RP1
                          M       endif
                          M       if (PREV_BANK == 1)
                          M         bsf     STATUS, RP1
                          M       endif
                          M       if (PREV_BANK == 2)
MPASM  5.49                      RTCCON~1.ASM   1-27-2021  11:00:41         PAGE 281


LOC  OBJECT CODE     LINE SOURCE TEXT
  VALUE

                          M         bsf     STATUS, RP0
                          M       endif
                          M PREV_BANK = 3
                          M     endif
02D8   00B7               M         movwf   RR2
                          M         BIT?W   007h
                          M     if (((007h)  & 7) == 0)
                          M         movlw   01h
                          M     endif
                          M     if (((007h)  & 7) == 1)
                          M         movlw   02h
                          M     endif
                          M     if (((007h)  & 7) == 2)
                          M         movlw   04h
                          M     endif
                          M     if (((007h)  & 7) == 3)
                          M         movlw   08h
                          M     endif
                          M     if (((007h)  & 7) == 4)
                          M         movlw   10h
                          M     endif
                          M     if (((007h)  & 7) == 5)
                          M         movlw   20h
                          M     endif
                          M     if (((007h)  & 7) == 6)
                          M         movlw   40h
                          M     endif
                          M     if (((007h)  & 7) == 7)
02D9   3080               M         movlw   80h
                          M     endif
02DA   00B5               M         movwf   RM2
                      00255         I2CWRITE?C      0D0h
                          M     if ((high (0D0h)) != 0)
                          M         movlw   (0D0h) >> 8
                          M         L?CALL  I2CWRITE
                          M     endif
                          M         MOVE?CA low (0D0h)
02DB   30D0               M         movlw   low (low (0D0h))
                          M         L?CALL  I2CWRITE
                          M         RST?RP
                          M     if ((PREV_BANK & 1) != 0)
                          M         bcf     STATUS, RP0
                          M     endif
                          M     if ((PREV_BANK & 2) != 0)
                          M         bcf     STATUS, RP1
                          M     endif
  00000000                M PREV_BANK = 0
                          M 
                          M     if ((I2CWRITE) < 1)
                          M       if (CODE_SIZE >= 4)
                          M         if (((I2CWRITE) & 800h) == 0)
                          M         bcf     PCLATH, 3
                          M         else
MPASM  5.49                      RTCCON~1.ASM   1-27-2021  11:00:41         PAGE 282


LOC  OBJECT CODE     LINE SOURCE TEXT
  VALUE

                          M         bsf     PCLATH, 3
                          M         endif
                          M       endif
                          M       if (CODE_SIZE == 8)
                          M         if (((I2CWRITE) & 1000h) == 0)
                          M         bcf     PCLATH, 4
                          M         else
                          M         bsf     PCLATH, 4
                          M         endif
                          M       endif
                          M     else
                          M       if ((I2CWRITE) > $)
                          M         if (CODE_SIZE >= 4)
                          M           if (((I2CWRITE) & 800h) == 0)
                          M         bcf     PCLATH, 3
                          M           else
                          M         bsf     PCLATH, 3
                          M           endif
                          M         endif
                          M         if (CODE_SIZE == 8)
                          M           if (((I2CWRITE) & 1000h) == 0)
                          M         bcf     PCLATH, 4
                          M           else
                          M         bsf     PCLATH, 4
                          M           endif
                          M         endif
                          M       else
                          M         if (CODE_SIZE >= 4)
                          M           if (((I2CWRITE) & 1800h) == 0)
                          M         clrf    PCLATH
                          M           else
                          M             if (((I2CWRITE) & 800h) == 0)
                          M         bcf     PCLATH, 3
                          M             else
                          M         bsf     PCLATH, 3
                          M             endif
                          M             if (CODE_SIZE == 8)
                          M               if (((I2CWRITE) & 1000h) == 0)
                          M         bcf     PCLATH, 4
                          M               else
                          M         bsf     PCLATH, 4
                          M               endif
                          M             endif
                          M           endif
                          M         endif
                          M       endif
                          M     endif
                          M 
02DC   201D               M         call    I2CWRITE
                      00256         I2CWRITE?C      003h
                          M     if ((high (003h)) != 0)
                          M         movlw   (003h) >> 8
                          M         L?CALL  I2CWRITE
MPASM  5.49                      RTCCON~1.ASM   1-27-2021  11:00:41         PAGE 283


LOC  OBJECT CODE     LINE SOURCE TEXT
  VALUE

                          M     endif
                          M         MOVE?CA low (003h)
02DD   3003               M         movlw   low (low (003h))
                          M         L?CALL  I2CWRITE
                          M         RST?RP
                          M     if ((PREV_BANK & 1) != 0)
                          M         bcf     STATUS, RP0
                          M     endif
                          M     if ((PREV_BANK & 2) != 0)
                          M         bcf     STATUS, RP1
                          M     endif
  00000000                M PREV_BANK = 0
                          M 
                          M     if ((I2CWRITE) < 1)
                          M       if (CODE_SIZE >= 4)
                          M         if (((I2CWRITE) & 800h) == 0)
                          M         bcf     PCLATH, 3
                          M         else
                          M         bsf     PCLATH, 3
                          M         endif
                          M       endif
                          M       if (CODE_SIZE == 8)
                          M         if (((I2CWRITE) & 1000h) == 0)
                          M         bcf     PCLATH, 4
                          M         else
                          M         bsf     PCLATH, 4
                          M         endif
                          M       endif
                          M     else
                          M       if ((I2CWRITE) > $)
                          M         if (CODE_SIZE >= 4)
                          M           if (((I2CWRITE) & 800h) == 0)
                          M         bcf     PCLATH, 3
                          M           else
                          M         bsf     PCLATH, 3
                          M           endif
                          M         endif
                          M         if (CODE_SIZE == 8)
                          M           if (((I2CWRITE) & 1000h) == 0)
                          M         bcf     PCLATH, 4
                          M           else
                          M         bsf     PCLATH, 4
                          M           endif
                          M         endif
                          M       else
                          M         if (CODE_SIZE >= 4)
                          M           if (((I2CWRITE) & 1800h) == 0)
                          M         clrf    PCLATH
                          M           else
                          M             if (((I2CWRITE) & 800h) == 0)
                          M         bcf     PCLATH, 3
                          M             else
                          M         bsf     PCLATH, 3
MPASM  5.49                      RTCCON~1.ASM   1-27-2021  11:00:41         PAGE 284


LOC  OBJECT CODE     LINE SOURCE TEXT
  VALUE

                          M             endif
                          M             if (CODE_SIZE == 8)
                          M               if (((I2CWRITE) & 1000h) == 0)
                          M         bcf     PCLATH, 4
                          M               else
                          M         bsf     PCLATH, 4
                          M               endif
                          M             endif
                          M           endif
                          M         endif
                          M       endif
                          M     endif
                          M 
02DE   201D               M         call    I2CWRITE
                      00257         I2CWRITES?C     005h
                          M     if ((high (005h)) != 0)
                          M         movlw   (005h) >> 8
                          M         L?CALL  I2CWRITE
                          M     endif
                          M         MOVE?CA low (005h)
02DF   3005               M         movlw   low (low (005h))
                          M         L?CALL  I2CWRITES
                          M         RST?RP
                          M     if ((PREV_BANK & 1) != 0)
                          M         bcf     STATUS, RP0
                          M     endif
                          M     if ((PREV_BANK & 2) != 0)
                          M         bcf     STATUS, RP1
                          M     endif
  00000000                M PREV_BANK = 0
                          M 
                          M     if ((I2CWRITES) < 1)
                          M       if (CODE_SIZE >= 4)
                          M         if (((I2CWRITES) & 800h) == 0)
                          M         bcf     PCLATH, 3
                          M         else
                          M         bsf     PCLATH, 3
                          M         endif
                          M       endif
                          M       if (CODE_SIZE == 8)
                          M         if (((I2CWRITES) & 1000h) == 0)
                          M         bcf     PCLATH, 4
                          M         else
                          M         bsf     PCLATH, 4
                          M         endif
                          M       endif
                          M     else
                          M       if ((I2CWRITES) > $)
                          M         if (CODE_SIZE >= 4)
                          M           if (((I2CWRITES) & 800h) == 0)
                          M         bcf     PCLATH, 3
                          M           else
                          M         bsf     PCLATH, 3
MPASM  5.49                      RTCCON~1.ASM   1-27-2021  11:00:41         PAGE 285


LOC  OBJECT CODE     LINE SOURCE TEXT
  VALUE

                          M           endif
                          M         endif
                          M         if (CODE_SIZE == 8)
                          M           if (((I2CWRITES) & 1000h) == 0)
                          M         bcf     PCLATH, 4
                          M           else
                          M         bsf     PCLATH, 4
                          M           endif
                          M         endif
                          M       else
                          M         if (CODE_SIZE >= 4)
                          M           if (((I2CWRITES) & 1800h) == 0)
                          M         clrf    PCLATH
                          M           else
                          M             if (((I2CWRITES) & 800h) == 0)
                          M         bcf     PCLATH, 3
                          M             else
                          M         bsf     PCLATH, 3
                          M             endif
                          M             if (CODE_SIZE == 8)
                          M               if (((I2CWRITES) & 1000h) == 0)
                          M         bcf     PCLATH, 4
                          M               else
                          M         bsf     PCLATH, 4
                          M               endif
                          M             endif
                          M           endif
                          M         endif
                          M       endif
                          M     endif
                          M 
02E0   201B               M         call    I2CWRITES
                      00258         PAUSE?C 00Ah
                          M     if (((00Ah) >> 8) == 0)
                          M         MOVE?CA 00Ah
02E1   300A               M         movlw   low (00Ah)
                          M         L?CALL  PAUSE
                          M         RST?RP
                          M     if ((PREV_BANK & 1) != 0)
                          M         bcf     STATUS, RP0
                          M     endif
                          M     if ((PREV_BANK & 2) != 0)
                          M         bcf     STATUS, RP1
                          M     endif
  00000000                M PREV_BANK = 0
                          M 
                          M     if ((PAUSE) < 1)
                          M       if (CODE_SIZE >= 4)
                          M         if (((PAUSE) & 800h) == 0)
                          M         bcf     PCLATH, 3
                          M         else
                          M         bsf     PCLATH, 3
                          M         endif
MPASM  5.49                      RTCCON~1.ASM   1-27-2021  11:00:41         PAGE 286


LOC  OBJECT CODE     LINE SOURCE TEXT
  VALUE

                          M       endif
                          M       if (CODE_SIZE == 8)
                          M         if (((PAUSE) & 1000h) == 0)
                          M         bcf     PCLATH, 4
                          M         else
                          M         bsf     PCLATH, 4
                          M         endif
                          M       endif
                          M     else
                          M       if ((PAUSE) > $)
                          M         if (CODE_SIZE >= 4)
                          M           if (((PAUSE) & 800h) == 0)
                          M         bcf     PCLATH, 3
                          M           else
                          M         bsf     PCLATH, 3
                          M           endif
                          M         endif
                          M         if (CODE_SIZE == 8)
                          M           if (((PAUSE) & 1000h) == 0)
                          M         bcf     PCLATH, 4
                          M           else
                          M         bsf     PCLATH, 4
                          M           endif
                          M         endif
                          M       else
                          M         if (CODE_SIZE >= 4)
                          M           if (((PAUSE) & 1800h) == 0)
                          M         clrf    PCLATH
                          M           else
                          M             if (((PAUSE) & 800h) == 0)
                          M         bcf     PCLATH, 3
                          M             else
                          M         bsf     PCLATH, 3
                          M             endif
                          M             if (CODE_SIZE == 8)
                          M               if (((PAUSE) & 1000h) == 0)
                          M         bcf     PCLATH, 4
                          M               else
                          M         bsf     PCLATH, 4
                          M               endif
                          M             endif
                          M           endif
                          M         endif
                          M       endif
                          M     endif
                          M 
02E2   20EA               M         call    PAUSE
                          M     else
                          M         MOVE?CB (00Ah) >> 8, R1 + 1
                          M         MOVE?CA low (00Ah)
                          M         L?CALL  PAUSEL
                          M     endif
                      00259         I2CDATA?T       _DPIN
MPASM  5.49                      RTCCON~1.ASM   1-27-2021  11:00:41         PAGE 287


LOC  OBJECT CODE     LINE SOURCE TEXT
  VALUE

                          M         BIT?R1  PORTB, 006h
02E3   3006               M         movlw   low ((PORTB) + ((006h)  >> 3))
                          M         CHK?RP  RR1
                          M     if (((RR1)   & 180h) == 0)
                          M       if (PREV_BANK == 1)
                          M         bcf     STATUS, RP0
                          M       endif
                          M       if (PREV_BANK == 2)
                          M         bcf     STATUS, RP1
                          M       endif
                          M       if (PREV_BANK == 3)
                          M         bcf     STATUS, RP0
                          M         bcf     STATUS, RP1
                          M       endif
  00000000                M PREV_BANK = 0
                          M     endif
                          M 
                          M     if (((RR1)   & 180h) == 80h)
                          M       if (PREV_BANK == 0)
                          M         bsf     STATUS, RP0
                          M       endif
                          M       if (PREV_BANK == 2)
                          M         bsf     STATUS, RP0
                          M         bcf     STATUS, RP1
                          M       endif
                          M       if (PREV_BANK == 3)
                          M         bcf     STATUS, RP1
                          M       endif
                          M PREV_BANK = 1
                          M     endif
                          M 
                          M     if (((RR1)   & 180h) == 100h)
                          M       if (PREV_BANK == 0)
                          M         bsf     STATUS, RP1
                          M       endif
                          M       if (PREV_BANK == 1)
                          M         bcf     STATUS, RP0
                          M         bsf     STATUS, RP1
                          M       endif
                          M       if (PREV_BANK == 3)
                          M         bcf     STATUS, RP0
                          M       endif
                          M PREV_BANK = 2
                          M     endif
                          M 
                          M     if (((RR1)   & 180h) == 180h)
                          M       if (PREV_BANK == 0)
                          M         bsf     STATUS, RP0
                          M         bsf     STATUS, RP1
                          M       endif
                          M       if (PREV_BANK == 1)
                          M         bsf     STATUS, RP1
                          M       endif
MPASM  5.49                      RTCCON~1.ASM   1-27-2021  11:00:41         PAGE 288


LOC  OBJECT CODE     LINE SOURCE TEXT
  VALUE

                          M       if (PREV_BANK == 2)
                          M         bsf     STATUS, RP0
                          M       endif
                          M PREV_BANK = 3
                          M     endif
02E4   00B6               M         movwf   RR1
                          M         BIT?W   006h
                          M     if (((006h)  & 7) == 0)
                          M         movlw   01h
                          M     endif
                          M     if (((006h)  & 7) == 1)
                          M         movlw   02h
                          M     endif
                          M     if (((006h)  & 7) == 2)
                          M         movlw   04h
                          M     endif
                          M     if (((006h)  & 7) == 3)
                          M         movlw   08h
                          M     endif
                          M     if (((006h)  & 7) == 4)
                          M         movlw   10h
                          M     endif
                          M     if (((006h)  & 7) == 5)
                          M         movlw   20h
                          M     endif
                          M     if (((006h)  & 7) == 6)
02E5   3040               M         movlw   40h
                          M     endif
                          M     if (((006h)  & 7) == 7)
                          M         movlw   80h
                          M     endif
02E6   00B4               M         movwf   RM1
                      00260         I2CCLOCK?T      _CPIN
                          M         BIT?R2  PORTB, 007h
02E7   3006               M         movlw   low ((PORTB) + ((007h)  >> 3))
                          M         CHK?RP  RR2
                          M     if (((RR2)   & 180h) == 0)
                          M       if (PREV_BANK == 1)
                          M         bcf     STATUS, RP0
                          M       endif
                          M       if (PREV_BANK == 2)
                          M         bcf     STATUS, RP1
                          M       endif
                          M       if (PREV_BANK == 3)
                          M         bcf     STATUS, RP0
                          M         bcf     STATUS, RP1
                          M       endif
  00000000                M PREV_BANK = 0
                          M     endif
                          M 
                          M     if (((RR2)   & 180h) == 80h)
                          M       if (PREV_BANK == 0)
                          M         bsf     STATUS, RP0
MPASM  5.49                      RTCCON~1.ASM   1-27-2021  11:00:41         PAGE 289


LOC  OBJECT CODE     LINE SOURCE TEXT
  VALUE

                          M       endif
                          M       if (PREV_BANK == 2)
                          M         bsf     STATUS, RP0
                          M         bcf     STATUS, RP1
                          M       endif
                          M       if (PREV_BANK == 3)
                          M         bcf     STATUS, RP1
                          M       endif
                          M PREV_BANK = 1
                          M     endif
                          M 
                          M     if (((RR2)   & 180h) == 100h)
                          M       if (PREV_BANK == 0)
                          M         bsf     STATUS, RP1
                          M       endif
                          M       if (PREV_BANK == 1)
                          M         bcf     STATUS, RP0
                          M         bsf     STATUS, RP1
                          M       endif
                          M       if (PREV_BANK == 3)
                          M         bcf     STATUS, RP0
                          M       endif
                          M PREV_BANK = 2
                          M     endif
                          M 
                          M     if (((RR2)   & 180h) == 180h)
                          M       if (PREV_BANK == 0)
                          M         bsf     STATUS, RP0
                          M         bsf     STATUS, RP1
                          M       endif
                          M       if (PREV_BANK == 1)
                          M         bsf     STATUS, RP1
                          M       endif
                          M       if (PREV_BANK == 2)
                          M         bsf     STATUS, RP0
                          M       endif
                          M PREV_BANK = 3
                          M     endif
02E8   00B7               M         movwf   RR2
                          M         BIT?W   007h
                          M     if (((007h)  & 7) == 0)
                          M         movlw   01h
                          M     endif
                          M     if (((007h)  & 7) == 1)
                          M         movlw   02h
                          M     endif
                          M     if (((007h)  & 7) == 2)
                          M         movlw   04h
                          M     endif
                          M     if (((007h)  & 7) == 3)
                          M         movlw   08h
                          M     endif
                          M     if (((007h)  & 7) == 4)
MPASM  5.49                      RTCCON~1.ASM   1-27-2021  11:00:41         PAGE 290


LOC  OBJECT CODE     LINE SOURCE TEXT
  VALUE

                          M         movlw   10h
                          M     endif
                          M     if (((007h)  & 7) == 5)
                          M         movlw   20h
                          M     endif
                          M     if (((007h)  & 7) == 6)
                          M         movlw   40h
                          M     endif
                          M     if (((007h)  & 7) == 7)
02E9   3080               M         movlw   80h
                          M     endif
02EA   00B5               M         movwf   RM2
                      00261         I2CWRITE?C      0D0h
                          M     if ((high (0D0h)) != 0)
                          M         movlw   (0D0h) >> 8
                          M         L?CALL  I2CWRITE
                          M     endif
                          M         MOVE?CA low (0D0h)
02EB   30D0               M         movlw   low (low (0D0h))
                          M         L?CALL  I2CWRITE
                          M         RST?RP
                          M     if ((PREV_BANK & 1) != 0)
                          M         bcf     STATUS, RP0
                          M     endif
                          M     if ((PREV_BANK & 2) != 0)
                          M         bcf     STATUS, RP1
                          M     endif
  00000000                M PREV_BANK = 0
                          M 
                          M     if ((I2CWRITE) < 1)
                          M       if (CODE_SIZE >= 4)
                          M         if (((I2CWRITE) & 800h) == 0)
                          M         bcf     PCLATH, 3
                          M         else
                          M         bsf     PCLATH, 3
                          M         endif
                          M       endif
                          M       if (CODE_SIZE == 8)
                          M         if (((I2CWRITE) & 1000h) == 0)
                          M         bcf     PCLATH, 4
                          M         else
                          M         bsf     PCLATH, 4
                          M         endif
                          M       endif
                          M     else
                          M       if ((I2CWRITE) > $)
                          M         if (CODE_SIZE >= 4)
                          M           if (((I2CWRITE) & 800h) == 0)
                          M         bcf     PCLATH, 3
                          M           else
                          M         bsf     PCLATH, 3
                          M           endif
                          M         endif
MPASM  5.49                      RTCCON~1.ASM   1-27-2021  11:00:41         PAGE 291


LOC  OBJECT CODE     LINE SOURCE TEXT
  VALUE

                          M         if (CODE_SIZE == 8)
                          M           if (((I2CWRITE) & 1000h) == 0)
                          M         bcf     PCLATH, 4
                          M           else
                          M         bsf     PCLATH, 4
                          M           endif
                          M         endif
                          M       else
                          M         if (CODE_SIZE >= 4)
                          M           if (((I2CWRITE) & 1800h) == 0)
                          M         clrf    PCLATH
                          M           else
                          M             if (((I2CWRITE) & 800h) == 0)
                          M         bcf     PCLATH, 3
                          M             else
                          M         bsf     PCLATH, 3
                          M             endif
                          M             if (CODE_SIZE == 8)
                          M               if (((I2CWRITE) & 1000h) == 0)
                          M         bcf     PCLATH, 4
                          M               else
                          M         bsf     PCLATH, 4
                          M               endif
                          M             endif
                          M           endif
                          M         endif
                          M       endif
                          M     endif
                          M 
02EC   201D               M         call    I2CWRITE
                      00262         I2CWRITE?C      004h
                          M     if ((high (004h)) != 0)
                          M         movlw   (004h) >> 8
                          M         L?CALL  I2CWRITE
                          M     endif
                          M         MOVE?CA low (004h)
02ED   3004               M         movlw   low (low (004h))
                          M         L?CALL  I2CWRITE
                          M         RST?RP
                          M     if ((PREV_BANK & 1) != 0)
                          M         bcf     STATUS, RP0
                          M     endif
                          M     if ((PREV_BANK & 2) != 0)
                          M         bcf     STATUS, RP1
                          M     endif
  00000000                M PREV_BANK = 0
                          M 
                          M     if ((I2CWRITE) < 1)
                          M       if (CODE_SIZE >= 4)
                          M         if (((I2CWRITE) & 800h) == 0)
                          M         bcf     PCLATH, 3
                          M         else
                          M         bsf     PCLATH, 3
MPASM  5.49                      RTCCON~1.ASM   1-27-2021  11:00:41         PAGE 292


LOC  OBJECT CODE     LINE SOURCE TEXT
  VALUE

                          M         endif
                          M       endif
                          M       if (CODE_SIZE == 8)
                          M         if (((I2CWRITE) & 1000h) == 0)
                          M         bcf     PCLATH, 4
                          M         else
                          M         bsf     PCLATH, 4
                          M         endif
                          M       endif
                          M     else
                          M       if ((I2CWRITE) > $)
                          M         if (CODE_SIZE >= 4)
                          M           if (((I2CWRITE) & 800h) == 0)
                          M         bcf     PCLATH, 3
                          M           else
                          M         bsf     PCLATH, 3
                          M           endif
                          M         endif
                          M         if (CODE_SIZE == 8)
                          M           if (((I2CWRITE) & 1000h) == 0)
                          M         bcf     PCLATH, 4
                          M           else
                          M         bsf     PCLATH, 4
                          M           endif
                          M         endif
                          M       else
                          M         if (CODE_SIZE >= 4)
                          M           if (((I2CWRITE) & 1800h) == 0)
                          M         clrf    PCLATH
                          M           else
                          M             if (((I2CWRITE) & 800h) == 0)
                          M         bcf     PCLATH, 3
                          M             else
                          M         bsf     PCLATH, 3
                          M             endif
                          M             if (CODE_SIZE == 8)
                          M               if (((I2CWRITE) & 1000h) == 0)
                          M         bcf     PCLATH, 4
                          M               else
                          M         bsf     PCLATH, 4
                          M               endif
                          M             endif
                          M           endif
                          M         endif
                          M       endif
                          M     endif
                          M 
02EE   201D               M         call    I2CWRITE
                      00263         I2CWRITES?C     021h
                          M     if ((high (021h)) != 0)
                          M         movlw   (021h) >> 8
                          M         L?CALL  I2CWRITE
                          M     endif
MPASM  5.49                      RTCCON~1.ASM   1-27-2021  11:00:41         PAGE 293


LOC  OBJECT CODE     LINE SOURCE TEXT
  VALUE

                          M         MOVE?CA low (021h)
02EF   3021               M         movlw   low (low (021h))
                          M         L?CALL  I2CWRITES
                          M         RST?RP
                          M     if ((PREV_BANK & 1) != 0)
                          M         bcf     STATUS, RP0
                          M     endif
                          M     if ((PREV_BANK & 2) != 0)
                          M         bcf     STATUS, RP1
                          M     endif
  00000000                M PREV_BANK = 0
                          M 
                          M     if ((I2CWRITES) < 1)
                          M       if (CODE_SIZE >= 4)
                          M         if (((I2CWRITES) & 800h) == 0)
                          M         bcf     PCLATH, 3
                          M         else
                          M         bsf     PCLATH, 3
                          M         endif
                          M       endif
                          M       if (CODE_SIZE == 8)
                          M         if (((I2CWRITES) & 1000h) == 0)
                          M         bcf     PCLATH, 4
                          M         else
                          M         bsf     PCLATH, 4
                          M         endif
                          M       endif
                          M     else
                          M       if ((I2CWRITES) > $)
                          M         if (CODE_SIZE >= 4)
                          M           if (((I2CWRITES) & 800h) == 0)
                          M         bcf     PCLATH, 3
                          M           else
                          M         bsf     PCLATH, 3
                          M           endif
                          M         endif
                          M         if (CODE_SIZE == 8)
                          M           if (((I2CWRITES) & 1000h) == 0)
                          M         bcf     PCLATH, 4
                          M           else
                          M         bsf     PCLATH, 4
                          M           endif
                          M         endif
                          M       else
                          M         if (CODE_SIZE >= 4)
                          M           if (((I2CWRITES) & 1800h) == 0)
                          M         clrf    PCLATH
                          M           else
                          M             if (((I2CWRITES) & 800h) == 0)
                          M         bcf     PCLATH, 3
                          M             else
                          M         bsf     PCLATH, 3
                          M             endif
MPASM  5.49                      RTCCON~1.ASM   1-27-2021  11:00:41         PAGE 294


LOC  OBJECT CODE     LINE SOURCE TEXT
  VALUE

                          M             if (CODE_SIZE == 8)
                          M               if (((I2CWRITES) & 1000h) == 0)
                          M         bcf     PCLATH, 4
                          M               else
                          M         bsf     PCLATH, 4
                          M               endif
                          M             endif
                          M           endif
                          M         endif
                          M       endif
                          M     endif
                          M 
02F0   201B               M         call    I2CWRITES
                      00264         PAUSE?C 00Ah
                          M     if (((00Ah) >> 8) == 0)
                          M         MOVE?CA 00Ah
02F1   300A               M         movlw   low (00Ah)
                          M         L?CALL  PAUSE
                          M         RST?RP
                          M     if ((PREV_BANK & 1) != 0)
                          M         bcf     STATUS, RP0
                          M     endif
                          M     if ((PREV_BANK & 2) != 0)
                          M         bcf     STATUS, RP1
                          M     endif
  00000000                M PREV_BANK = 0
                          M 
                          M     if ((PAUSE) < 1)
                          M       if (CODE_SIZE >= 4)
                          M         if (((PAUSE) & 800h) == 0)
                          M         bcf     PCLATH, 3
                          M         else
                          M         bsf     PCLATH, 3
                          M         endif
                          M       endif
                          M       if (CODE_SIZE == 8)
                          M         if (((PAUSE) & 1000h) == 0)
                          M         bcf     PCLATH, 4
                          M         else
                          M         bsf     PCLATH, 4
                          M         endif
                          M       endif
                          M     else
                          M       if ((PAUSE) > $)
                          M         if (CODE_SIZE >= 4)
                          M           if (((PAUSE) & 800h) == 0)
                          M         bcf     PCLATH, 3
                          M           else
                          M         bsf     PCLATH, 3
                          M           endif
                          M         endif
                          M         if (CODE_SIZE == 8)
                          M           if (((PAUSE) & 1000h) == 0)
MPASM  5.49                      RTCCON~1.ASM   1-27-2021  11:00:41         PAGE 295


LOC  OBJECT CODE     LINE SOURCE TEXT
  VALUE

                          M         bcf     PCLATH, 4
                          M           else
                          M         bsf     PCLATH, 4
                          M           endif
                          M         endif
                          M       else
                          M         if (CODE_SIZE >= 4)
                          M           if (((PAUSE) & 1800h) == 0)
                          M         clrf    PCLATH
                          M           else
                          M             if (((PAUSE) & 800h) == 0)
                          M         bcf     PCLATH, 3
                          M             else
                          M         bsf     PCLATH, 3
                          M             endif
                          M             if (CODE_SIZE == 8)
                          M               if (((PAUSE) & 1000h) == 0)
                          M         bcf     PCLATH, 4
                          M               else
                          M         bsf     PCLATH, 4
                          M               endif
                          M             endif
                          M           endif
                          M         endif
                          M       endif
                          M     endif
                          M 
02F2   20EA               M         call    PAUSE
                          M     else
                          M         MOVE?CB (00Ah) >> 8, R1 + 1
                          M         MOVE?CA low (00Ah)
                          M         L?CALL  PAUSEL
                          M     endif
                      00265         I2CDATA?T       _DPIN
                          M         BIT?R1  PORTB, 006h
02F3   3006               M         movlw   low ((PORTB) + ((006h)  >> 3))
                          M         CHK?RP  RR1
                          M     if (((RR1)   & 180h) == 0)
                          M       if (PREV_BANK == 1)
                          M         bcf     STATUS, RP0
                          M       endif
                          M       if (PREV_BANK == 2)
                          M         bcf     STATUS, RP1
                          M       endif
                          M       if (PREV_BANK == 3)
                          M         bcf     STATUS, RP0
                          M         bcf     STATUS, RP1
                          M       endif
  00000000                M PREV_BANK = 0
                          M     endif
                          M 
                          M     if (((RR1)   & 180h) == 80h)
                          M       if (PREV_BANK == 0)
MPASM  5.49                      RTCCON~1.ASM   1-27-2021  11:00:41         PAGE 296


LOC  OBJECT CODE     LINE SOURCE TEXT
  VALUE

                          M         bsf     STATUS, RP0
                          M       endif
                          M       if (PREV_BANK == 2)
                          M         bsf     STATUS, RP0
                          M         bcf     STATUS, RP1
                          M       endif
                          M       if (PREV_BANK == 3)
                          M         bcf     STATUS, RP1
                          M       endif
                          M PREV_BANK = 1
                          M     endif
                          M 
                          M     if (((RR1)   & 180h) == 100h)
                          M       if (PREV_BANK == 0)
                          M         bsf     STATUS, RP1
                          M       endif
                          M       if (PREV_BANK == 1)
                          M         bcf     STATUS, RP0
                          M         bsf     STATUS, RP1
                          M       endif
                          M       if (PREV_BANK == 3)
                          M         bcf     STATUS, RP0
                          M       endif
                          M PREV_BANK = 2
                          M     endif
                          M 
                          M     if (((RR1)   & 180h) == 180h)
                          M       if (PREV_BANK == 0)
                          M         bsf     STATUS, RP0
                          M         bsf     STATUS, RP1
                          M       endif
                          M       if (PREV_BANK == 1)
                          M         bsf     STATUS, RP1
                          M       endif
                          M       if (PREV_BANK == 2)
                          M         bsf     STATUS, RP0
                          M       endif
                          M PREV_BANK = 3
                          M     endif
02F4   00B6               M         movwf   RR1
                          M         BIT?W   006h
                          M     if (((006h)  & 7) == 0)
                          M         movlw   01h
                          M     endif
                          M     if (((006h)  & 7) == 1)
                          M         movlw   02h
                          M     endif
                          M     if (((006h)  & 7) == 2)
                          M         movlw   04h
                          M     endif
                          M     if (((006h)  & 7) == 3)
                          M         movlw   08h
                          M     endif
MPASM  5.49                      RTCCON~1.ASM   1-27-2021  11:00:41         PAGE 297


LOC  OBJECT CODE     LINE SOURCE TEXT
  VALUE

                          M     if (((006h)  & 7) == 4)
                          M         movlw   10h
                          M     endif
                          M     if (((006h)  & 7) == 5)
                          M         movlw   20h
                          M     endif
                          M     if (((006h)  & 7) == 6)
02F5   3040               M         movlw   40h
                          M     endif
                          M     if (((006h)  & 7) == 7)
                          M         movlw   80h
                          M     endif
02F6   00B4               M         movwf   RM1
                      00266         I2CCLOCK?T      _CPIN
                          M         BIT?R2  PORTB, 007h
02F7   3006               M         movlw   low ((PORTB) + ((007h)  >> 3))
                          M         CHK?RP  RR2
                          M     if (((RR2)   & 180h) == 0)
                          M       if (PREV_BANK == 1)
                          M         bcf     STATUS, RP0
                          M       endif
                          M       if (PREV_BANK == 2)
                          M         bcf     STATUS, RP1
                          M       endif
                          M       if (PREV_BANK == 3)
                          M         bcf     STATUS, RP0
                          M         bcf     STATUS, RP1
                          M       endif
  00000000                M PREV_BANK = 0
                          M     endif
                          M 
                          M     if (((RR2)   & 180h) == 80h)
                          M       if (PREV_BANK == 0)
                          M         bsf     STATUS, RP0
                          M       endif
                          M       if (PREV_BANK == 2)
                          M         bsf     STATUS, RP0
                          M         bcf     STATUS, RP1
                          M       endif
                          M       if (PREV_BANK == 3)
                          M         bcf     STATUS, RP1
                          M       endif
                          M PREV_BANK = 1
                          M     endif
                          M 
                          M     if (((RR2)   & 180h) == 100h)
                          M       if (PREV_BANK == 0)
                          M         bsf     STATUS, RP1
                          M       endif
                          M       if (PREV_BANK == 1)
                          M         bcf     STATUS, RP0
                          M         bsf     STATUS, RP1
                          M       endif
MPASM  5.49                      RTCCON~1.ASM   1-27-2021  11:00:41         PAGE 298


LOC  OBJECT CODE     LINE SOURCE TEXT
  VALUE

                          M       if (PREV_BANK == 3)
                          M         bcf     STATUS, RP0
                          M       endif
                          M PREV_BANK = 2
                          M     endif
                          M 
                          M     if (((RR2)   & 180h) == 180h)
                          M       if (PREV_BANK == 0)
                          M         bsf     STATUS, RP0
                          M         bsf     STATUS, RP1
                          M       endif
                          M       if (PREV_BANK == 1)
                          M         bsf     STATUS, RP1
                          M       endif
                          M       if (PREV_BANK == 2)
                          M         bsf     STATUS, RP0
                          M       endif
                          M PREV_BANK = 3
                          M     endif
02F8   00B7               M         movwf   RR2
                          M         BIT?W   007h
                          M     if (((007h)  & 7) == 0)
                          M         movlw   01h
                          M     endif
                          M     if (((007h)  & 7) == 1)
                          M         movlw   02h
                          M     endif
                          M     if (((007h)  & 7) == 2)
                          M         movlw   04h
                          M     endif
                          M     if (((007h)  & 7) == 3)
                          M         movlw   08h
                          M     endif
                          M     if (((007h)  & 7) == 4)
                          M         movlw   10h
                          M     endif
                          M     if (((007h)  & 7) == 5)
                          M         movlw   20h
                          M     endif
                          M     if (((007h)  & 7) == 6)
                          M         movlw   40h
                          M     endif
                          M     if (((007h)  & 7) == 7)
02F9   3080               M         movlw   80h
                          M     endif
02FA   00B5               M         movwf   RM2
                      00267         I2CWRITE?C      0D0h
                          M     if ((high (0D0h)) != 0)
                          M         movlw   (0D0h) >> 8
                          M         L?CALL  I2CWRITE
                          M     endif
                          M         MOVE?CA low (0D0h)
02FB   30D0               M         movlw   low (low (0D0h))
MPASM  5.49                      RTCCON~1.ASM   1-27-2021  11:00:41         PAGE 299


LOC  OBJECT CODE     LINE SOURCE TEXT
  VALUE

                          M         L?CALL  I2CWRITE
                          M         RST?RP
                          M     if ((PREV_BANK & 1) != 0)
                          M         bcf     STATUS, RP0
                          M     endif
                          M     if ((PREV_BANK & 2) != 0)
                          M         bcf     STATUS, RP1
                          M     endif
  00000000                M PREV_BANK = 0
                          M 
                          M     if ((I2CWRITE) < 1)
                          M       if (CODE_SIZE >= 4)
                          M         if (((I2CWRITE) & 800h) == 0)
                          M         bcf     PCLATH, 3
                          M         else
                          M         bsf     PCLATH, 3
                          M         endif
                          M       endif
                          M       if (CODE_SIZE == 8)
                          M         if (((I2CWRITE) & 1000h) == 0)
                          M         bcf     PCLATH, 4
                          M         else
                          M         bsf     PCLATH, 4
                          M         endif
                          M       endif
                          M     else
                          M       if ((I2CWRITE) > $)
                          M         if (CODE_SIZE >= 4)
                          M           if (((I2CWRITE) & 800h) == 0)
                          M         bcf     PCLATH, 3
                          M           else
                          M         bsf     PCLATH, 3
                          M           endif
                          M         endif
                          M         if (CODE_SIZE == 8)
                          M           if (((I2CWRITE) & 1000h) == 0)
                          M         bcf     PCLATH, 4
                          M           else
                          M         bsf     PCLATH, 4
                          M           endif
                          M         endif
                          M       else
                          M         if (CODE_SIZE >= 4)
                          M           if (((I2CWRITE) & 1800h) == 0)
                          M         clrf    PCLATH
                          M           else
                          M             if (((I2CWRITE) & 800h) == 0)
                          M         bcf     PCLATH, 3
                          M             else
                          M         bsf     PCLATH, 3
                          M             endif
                          M             if (CODE_SIZE == 8)
                          M               if (((I2CWRITE) & 1000h) == 0)
MPASM  5.49                      RTCCON~1.ASM   1-27-2021  11:00:41         PAGE 300


LOC  OBJECT CODE     LINE SOURCE TEXT
  VALUE

                          M         bcf     PCLATH, 4
                          M               else
                          M         bsf     PCLATH, 4
                          M               endif
                          M             endif
                          M           endif
                          M         endif
                          M       endif
                          M     endif
                          M 
02FC   201D               M         call    I2CWRITE
                      00268         I2CWRITE?C      005h
                          M     if ((high (005h)) != 0)
                          M         movlw   (005h) >> 8
                          M         L?CALL  I2CWRITE
                          M     endif
                          M         MOVE?CA low (005h)
02FD   3005               M         movlw   low (low (005h))
                          M         L?CALL  I2CWRITE
                          M         RST?RP
                          M     if ((PREV_BANK & 1) != 0)
                          M         bcf     STATUS, RP0
                          M     endif
                          M     if ((PREV_BANK & 2) != 0)
                          M         bcf     STATUS, RP1
                          M     endif
  00000000                M PREV_BANK = 0
                          M 
                          M     if ((I2CWRITE) < 1)
                          M       if (CODE_SIZE >= 4)
                          M         if (((I2CWRITE) & 800h) == 0)
                          M         bcf     PCLATH, 3
                          M         else
                          M         bsf     PCLATH, 3
                          M         endif
                          M       endif
                          M       if (CODE_SIZE == 8)
                          M         if (((I2CWRITE) & 1000h) == 0)
                          M         bcf     PCLATH, 4
                          M         else
                          M         bsf     PCLATH, 4
                          M         endif
                          M       endif
                          M     else
                          M       if ((I2CWRITE) > $)
                          M         if (CODE_SIZE >= 4)
                          M           if (((I2CWRITE) & 800h) == 0)
                          M         bcf     PCLATH, 3
                          M           else
                          M         bsf     PCLATH, 3
                          M           endif
                          M         endif
                          M         if (CODE_SIZE == 8)
MPASM  5.49                      RTCCON~1.ASM   1-27-2021  11:00:41         PAGE 301


LOC  OBJECT CODE     LINE SOURCE TEXT
  VALUE

                          M           if (((I2CWRITE) & 1000h) == 0)
                          M         bcf     PCLATH, 4
                          M           else
                          M         bsf     PCLATH, 4
                          M           endif
                          M         endif
                          M       else
                          M         if (CODE_SIZE >= 4)
                          M           if (((I2CWRITE) & 1800h) == 0)
                          M         clrf    PCLATH
                          M           else
                          M             if (((I2CWRITE) & 800h) == 0)
                          M         bcf     PCLATH, 3
                          M             else
                          M         bsf     PCLATH, 3
                          M             endif
                          M             if (CODE_SIZE == 8)
                          M               if (((I2CWRITE) & 1000h) == 0)
                          M         bcf     PCLATH, 4
                          M               else
                          M         bsf     PCLATH, 4
                          M               endif
                          M             endif
                          M           endif
                          M         endif
                          M       endif
                          M     endif
                          M 
02FE   201D               M         call    I2CWRITE
                      00269         I2CWRITES?C     001h
                          M     if ((high (001h)) != 0)
                          M         movlw   (001h) >> 8
                          M         L?CALL  I2CWRITE
                          M     endif
                          M         MOVE?CA low (001h)
02FF   3001               M         movlw   low (low (001h))
                          M         L?CALL  I2CWRITES
                          M         RST?RP
                          M     if ((PREV_BANK & 1) != 0)
                          M         bcf     STATUS, RP0
                          M     endif
                          M     if ((PREV_BANK & 2) != 0)
                          M         bcf     STATUS, RP1
                          M     endif
  00000000                M PREV_BANK = 0
                          M 
                          M     if ((I2CWRITES) < 1)
                          M       if (CODE_SIZE >= 4)
                          M         if (((I2CWRITES) & 800h) == 0)
                          M         bcf     PCLATH, 3
                          M         else
                          M         bsf     PCLATH, 3
                          M         endif
MPASM  5.49                      RTCCON~1.ASM   1-27-2021  11:00:41         PAGE 302


LOC  OBJECT CODE     LINE SOURCE TEXT
  VALUE

                          M       endif
                          M       if (CODE_SIZE == 8)
                          M         if (((I2CWRITES) & 1000h) == 0)
                          M         bcf     PCLATH, 4
                          M         else
                          M         bsf     PCLATH, 4
                          M         endif
                          M       endif
                          M     else
                          M       if ((I2CWRITES) > $)
                          M         if (CODE_SIZE >= 4)
                          M           if (((I2CWRITES) & 800h) == 0)
                          M         bcf     PCLATH, 3
                          M           else
                          M         bsf     PCLATH, 3
                          M           endif
                          M         endif
                          M         if (CODE_SIZE == 8)
                          M           if (((I2CWRITES) & 1000h) == 0)
                          M         bcf     PCLATH, 4
                          M           else
                          M         bsf     PCLATH, 4
                          M           endif
                          M         endif
                          M       else
                          M         if (CODE_SIZE >= 4)
                          M           if (((I2CWRITES) & 1800h) == 0)
                          M         clrf    PCLATH
                          M           else
                          M             if (((I2CWRITES) & 800h) == 0)
                          M         bcf     PCLATH, 3
                          M             else
                          M         bsf     PCLATH, 3
                          M             endif
                          M             if (CODE_SIZE == 8)
                          M               if (((I2CWRITES) & 1000h) == 0)
                          M         bcf     PCLATH, 4
                          M               else
                          M         bsf     PCLATH, 4
                          M               endif
                          M             endif
                          M           endif
                          M         endif
                          M       endif
                          M     endif
                          M 
0300   201B               M         call    I2CWRITES
                      00270         PAUSE?C 00Ah
                          M     if (((00Ah) >> 8) == 0)
                          M         MOVE?CA 00Ah
0301   300A               M         movlw   low (00Ah)
                          M         L?CALL  PAUSE
                          M         RST?RP
MPASM  5.49                      RTCCON~1.ASM   1-27-2021  11:00:41         PAGE 303


LOC  OBJECT CODE     LINE SOURCE TEXT
  VALUE

                          M     if ((PREV_BANK & 1) != 0)
                          M         bcf     STATUS, RP0
                          M     endif
                          M     if ((PREV_BANK & 2) != 0)
                          M         bcf     STATUS, RP1
                          M     endif
  00000000                M PREV_BANK = 0
                          M 
                          M     if ((PAUSE) < 1)
                          M       if (CODE_SIZE >= 4)
                          M         if (((PAUSE) & 800h) == 0)
                          M         bcf     PCLATH, 3
                          M         else
                          M         bsf     PCLATH, 3
                          M         endif
                          M       endif
                          M       if (CODE_SIZE == 8)
                          M         if (((PAUSE) & 1000h) == 0)
                          M         bcf     PCLATH, 4
                          M         else
                          M         bsf     PCLATH, 4
                          M         endif
                          M       endif
                          M     else
                          M       if ((PAUSE) > $)
                          M         if (CODE_SIZE >= 4)
                          M           if (((PAUSE) & 800h) == 0)
                          M         bcf     PCLATH, 3
                          M           else
                          M         bsf     PCLATH, 3
                          M           endif
                          M         endif
                          M         if (CODE_SIZE == 8)
                          M           if (((PAUSE) & 1000h) == 0)
                          M         bcf     PCLATH, 4
                          M           else
                          M         bsf     PCLATH, 4
                          M           endif
                          M         endif
                          M       else
                          M         if (CODE_SIZE >= 4)
                          M           if (((PAUSE) & 1800h) == 0)
                          M         clrf    PCLATH
                          M           else
                          M             if (((PAUSE) & 800h) == 0)
                          M         bcf     PCLATH, 3
                          M             else
                          M         bsf     PCLATH, 3
                          M             endif
                          M             if (CODE_SIZE == 8)
                          M               if (((PAUSE) & 1000h) == 0)
                          M         bcf     PCLATH, 4
                          M               else
MPASM  5.49                      RTCCON~1.ASM   1-27-2021  11:00:41         PAGE 304


LOC  OBJECT CODE     LINE SOURCE TEXT
  VALUE

                          M         bsf     PCLATH, 4
                          M               endif
                          M             endif
                          M           endif
                          M         endif
                          M       endif
                          M     endif
                          M 
0302   20EA               M         call    PAUSE
                          M     else
                          M         MOVE?CB (00Ah) >> 8, R1 + 1
                          M         MOVE?CA low (00Ah)
                          M         L?CALL  PAUSEL
                          M     endif
                      00271         I2CDATA?T       _DPIN
                          M         BIT?R1  PORTB, 006h
0303   3006               M         movlw   low ((PORTB) + ((006h)  >> 3))
                          M         CHK?RP  RR1
                          M     if (((RR1)   & 180h) == 0)
                          M       if (PREV_BANK == 1)
                          M         bcf     STATUS, RP0
                          M       endif
                          M       if (PREV_BANK == 2)
                          M         bcf     STATUS, RP1
                          M       endif
                          M       if (PREV_BANK == 3)
                          M         bcf     STATUS, RP0
                          M         bcf     STATUS, RP1
                          M       endif
  00000000                M PREV_BANK = 0
                          M     endif
                          M 
                          M     if (((RR1)   & 180h) == 80h)
                          M       if (PREV_BANK == 0)
                          M         bsf     STATUS, RP0
                          M       endif
                          M       if (PREV_BANK == 2)
                          M         bsf     STATUS, RP0
                          M         bcf     STATUS, RP1
                          M       endif
                          M       if (PREV_BANK == 3)
                          M         bcf     STATUS, RP1
                          M       endif
                          M PREV_BANK = 1
                          M     endif
                          M 
                          M     if (((RR1)   & 180h) == 100h)
                          M       if (PREV_BANK == 0)
                          M         bsf     STATUS, RP1
                          M       endif
                          M       if (PREV_BANK == 1)
                          M         bcf     STATUS, RP0
                          M         bsf     STATUS, RP1
MPASM  5.49                      RTCCON~1.ASM   1-27-2021  11:00:41         PAGE 305


LOC  OBJECT CODE     LINE SOURCE TEXT
  VALUE

                          M       endif
                          M       if (PREV_BANK == 3)
                          M         bcf     STATUS, RP0
                          M       endif
                          M PREV_BANK = 2
                          M     endif
                          M 
                          M     if (((RR1)   & 180h) == 180h)
                          M       if (PREV_BANK == 0)
                          M         bsf     STATUS, RP0
                          M         bsf     STATUS, RP1
                          M       endif
                          M       if (PREV_BANK == 1)
                          M         bsf     STATUS, RP1
                          M       endif
                          M       if (PREV_BANK == 2)
                          M         bsf     STATUS, RP0
                          M       endif
                          M PREV_BANK = 3
                          M     endif
0304   00B6               M         movwf   RR1
                          M         BIT?W   006h
                          M     if (((006h)  & 7) == 0)
                          M         movlw   01h
                          M     endif
                          M     if (((006h)  & 7) == 1)
                          M         movlw   02h
                          M     endif
                          M     if (((006h)  & 7) == 2)
                          M         movlw   04h
                          M     endif
                          M     if (((006h)  & 7) == 3)
                          M         movlw   08h
                          M     endif
                          M     if (((006h)  & 7) == 4)
                          M         movlw   10h
                          M     endif
                          M     if (((006h)  & 7) == 5)
                          M         movlw   20h
                          M     endif
                          M     if (((006h)  & 7) == 6)
0305   3040               M         movlw   40h
                          M     endif
                          M     if (((006h)  & 7) == 7)
                          M         movlw   80h
                          M     endif
0306   00B4               M         movwf   RM1
                      00272         I2CCLOCK?T      _CPIN
                          M         BIT?R2  PORTB, 007h
0307   3006               M         movlw   low ((PORTB) + ((007h)  >> 3))
                          M         CHK?RP  RR2
                          M     if (((RR2)   & 180h) == 0)
                          M       if (PREV_BANK == 1)
MPASM  5.49                      RTCCON~1.ASM   1-27-2021  11:00:41         PAGE 306


LOC  OBJECT CODE     LINE SOURCE TEXT
  VALUE

                          M         bcf     STATUS, RP0
                          M       endif
                          M       if (PREV_BANK == 2)
                          M         bcf     STATUS, RP1
                          M       endif
                          M       if (PREV_BANK == 3)
                          M         bcf     STATUS, RP0
                          M         bcf     STATUS, RP1
                          M       endif
  00000000                M PREV_BANK = 0
                          M     endif
                          M 
                          M     if (((RR2)   & 180h) == 80h)
                          M       if (PREV_BANK == 0)
                          M         bsf     STATUS, RP0
                          M       endif
                          M       if (PREV_BANK == 2)
                          M         bsf     STATUS, RP0
                          M         bcf     STATUS, RP1
                          M       endif
                          M       if (PREV_BANK == 3)
                          M         bcf     STATUS, RP1
                          M       endif
                          M PREV_BANK = 1
                          M     endif
                          M 
                          M     if (((RR2)   & 180h) == 100h)
                          M       if (PREV_BANK == 0)
                          M         bsf     STATUS, RP1
                          M       endif
                          M       if (PREV_BANK == 1)
                          M         bcf     STATUS, RP0
                          M         bsf     STATUS, RP1
                          M       endif
                          M       if (PREV_BANK == 3)
                          M         bcf     STATUS, RP0
                          M       endif
                          M PREV_BANK = 2
                          M     endif
                          M 
                          M     if (((RR2)   & 180h) == 180h)
                          M       if (PREV_BANK == 0)
                          M         bsf     STATUS, RP0
                          M         bsf     STATUS, RP1
                          M       endif
                          M       if (PREV_BANK == 1)
                          M         bsf     STATUS, RP1
                          M       endif
                          M       if (PREV_BANK == 2)
                          M         bsf     STATUS, RP0
                          M       endif
                          M PREV_BANK = 3
                          M     endif
MPASM  5.49                      RTCCON~1.ASM   1-27-2021  11:00:41         PAGE 307


LOC  OBJECT CODE     LINE SOURCE TEXT
  VALUE

0308   00B7               M         movwf   RR2
                          M         BIT?W   007h
                          M     if (((007h)  & 7) == 0)
                          M         movlw   01h
                          M     endif
                          M     if (((007h)  & 7) == 1)
                          M         movlw   02h
                          M     endif
                          M     if (((007h)  & 7) == 2)
                          M         movlw   04h
                          M     endif
                          M     if (((007h)  & 7) == 3)
                          M         movlw   08h
                          M     endif
                          M     if (((007h)  & 7) == 4)
                          M         movlw   10h
                          M     endif
                          M     if (((007h)  & 7) == 5)
                          M         movlw   20h
                          M     endif
                          M     if (((007h)  & 7) == 6)
                          M         movlw   40h
                          M     endif
                          M     if (((007h)  & 7) == 7)
0309   3080               M         movlw   80h
                          M     endif
030A   00B5               M         movwf   RM2
                      00273         I2CWRITE?C      0D0h
                          M     if ((high (0D0h)) != 0)
                          M         movlw   (0D0h) >> 8
                          M         L?CALL  I2CWRITE
                          M     endif
                          M         MOVE?CA low (0D0h)
030B   30D0               M         movlw   low (low (0D0h))
                          M         L?CALL  I2CWRITE
                          M         RST?RP
                          M     if ((PREV_BANK & 1) != 0)
                          M         bcf     STATUS, RP0
                          M     endif
                          M     if ((PREV_BANK & 2) != 0)
                          M         bcf     STATUS, RP1
                          M     endif
  00000000                M PREV_BANK = 0
                          M 
                          M     if ((I2CWRITE) < 1)
                          M       if (CODE_SIZE >= 4)
                          M         if (((I2CWRITE) & 800h) == 0)
                          M         bcf     PCLATH, 3
                          M         else
                          M         bsf     PCLATH, 3
                          M         endif
                          M       endif
                          M       if (CODE_SIZE == 8)
MPASM  5.49                      RTCCON~1.ASM   1-27-2021  11:00:41         PAGE 308


LOC  OBJECT CODE     LINE SOURCE TEXT
  VALUE

                          M         if (((I2CWRITE) & 1000h) == 0)
                          M         bcf     PCLATH, 4
                          M         else
                          M         bsf     PCLATH, 4
                          M         endif
                          M       endif
                          M     else
                          M       if ((I2CWRITE) > $)
                          M         if (CODE_SIZE >= 4)
                          M           if (((I2CWRITE) & 800h) == 0)
                          M         bcf     PCLATH, 3
                          M           else
                          M         bsf     PCLATH, 3
                          M           endif
                          M         endif
                          M         if (CODE_SIZE == 8)
                          M           if (((I2CWRITE) & 1000h) == 0)
                          M         bcf     PCLATH, 4
                          M           else
                          M         bsf     PCLATH, 4
                          M           endif
                          M         endif
                          M       else
                          M         if (CODE_SIZE >= 4)
                          M           if (((I2CWRITE) & 1800h) == 0)
                          M         clrf    PCLATH
                          M           else
                          M             if (((I2CWRITE) & 800h) == 0)
                          M         bcf     PCLATH, 3
                          M             else
                          M         bsf     PCLATH, 3
                          M             endif
                          M             if (CODE_SIZE == 8)
                          M               if (((I2CWRITE) & 1000h) == 0)
                          M         bcf     PCLATH, 4
                          M               else
                          M         bsf     PCLATH, 4
                          M               endif
                          M             endif
                          M           endif
                          M         endif
                          M       endif
                          M     endif
                          M 
030C   201D               M         call    I2CWRITE
                      00274         I2CWRITE?C      006h
                          M     if ((high (006h)) != 0)
                          M         movlw   (006h) >> 8
                          M         L?CALL  I2CWRITE
                          M     endif
                          M         MOVE?CA low (006h)
030D   3006               M         movlw   low (low (006h))
                          M         L?CALL  I2CWRITE
MPASM  5.49                      RTCCON~1.ASM   1-27-2021  11:00:41         PAGE 309


LOC  OBJECT CODE     LINE SOURCE TEXT
  VALUE

                          M         RST?RP
                          M     if ((PREV_BANK & 1) != 0)
                          M         bcf     STATUS, RP0
                          M     endif
                          M     if ((PREV_BANK & 2) != 0)
                          M         bcf     STATUS, RP1
                          M     endif
  00000000                M PREV_BANK = 0
                          M 
                          M     if ((I2CWRITE) < 1)
                          M       if (CODE_SIZE >= 4)
                          M         if (((I2CWRITE) & 800h) == 0)
                          M         bcf     PCLATH, 3
                          M         else
                          M         bsf     PCLATH, 3
                          M         endif
                          M       endif
                          M       if (CODE_SIZE == 8)
                          M         if (((I2CWRITE) & 1000h) == 0)
                          M         bcf     PCLATH, 4
                          M         else
                          M         bsf     PCLATH, 4
                          M         endif
                          M       endif
                          M     else
                          M       if ((I2CWRITE) > $)
                          M         if (CODE_SIZE >= 4)
                          M           if (((I2CWRITE) & 800h) == 0)
                          M         bcf     PCLATH, 3
                          M           else
                          M         bsf     PCLATH, 3
                          M           endif
                          M         endif
                          M         if (CODE_SIZE == 8)
                          M           if (((I2CWRITE) & 1000h) == 0)
                          M         bcf     PCLATH, 4
                          M           else
                          M         bsf     PCLATH, 4
                          M           endif
                          M         endif
                          M       else
                          M         if (CODE_SIZE >= 4)
                          M           if (((I2CWRITE) & 1800h) == 0)
                          M         clrf    PCLATH
                          M           else
                          M             if (((I2CWRITE) & 800h) == 0)
                          M         bcf     PCLATH, 3
                          M             else
                          M         bsf     PCLATH, 3
                          M             endif
                          M             if (CODE_SIZE == 8)
                          M               if (((I2CWRITE) & 1000h) == 0)
                          M         bcf     PCLATH, 4
MPASM  5.49                      RTCCON~1.ASM   1-27-2021  11:00:41         PAGE 310


LOC  OBJECT CODE     LINE SOURCE TEXT
  VALUE

                          M               else
                          M         bsf     PCLATH, 4
                          M               endif
                          M             endif
                          M           endif
                          M         endif
                          M       endif
                          M     endif
                          M 
030E   201D               M         call    I2CWRITE
                      00275         I2CWRITES?C     021h
                          M     if ((high (021h)) != 0)
                          M         movlw   (021h) >> 8
                          M         L?CALL  I2CWRITE
                          M     endif
                          M         MOVE?CA low (021h)
030F   3021               M         movlw   low (low (021h))
                          M         L?CALL  I2CWRITES
                          M         RST?RP
                          M     if ((PREV_BANK & 1) != 0)
                          M         bcf     STATUS, RP0
                          M     endif
                          M     if ((PREV_BANK & 2) != 0)
                          M         bcf     STATUS, RP1
                          M     endif
  00000000                M PREV_BANK = 0
                          M 
                          M     if ((I2CWRITES) < 1)
                          M       if (CODE_SIZE >= 4)
                          M         if (((I2CWRITES) & 800h) == 0)
                          M         bcf     PCLATH, 3
                          M         else
                          M         bsf     PCLATH, 3
                          M         endif
                          M       endif
                          M       if (CODE_SIZE == 8)
                          M         if (((I2CWRITES) & 1000h) == 0)
                          M         bcf     PCLATH, 4
                          M         else
                          M         bsf     PCLATH, 4
                          M         endif
                          M       endif
                          M     else
                          M       if ((I2CWRITES) > $)
                          M         if (CODE_SIZE >= 4)
                          M           if (((I2CWRITES) & 800h) == 0)
                          M         bcf     PCLATH, 3
                          M           else
                          M         bsf     PCLATH, 3
                          M           endif
                          M         endif
                          M         if (CODE_SIZE == 8)
                          M           if (((I2CWRITES) & 1000h) == 0)
MPASM  5.49                      RTCCON~1.ASM   1-27-2021  11:00:41         PAGE 311


LOC  OBJECT CODE     LINE SOURCE TEXT
  VALUE

                          M         bcf     PCLATH, 4
                          M           else
                          M         bsf     PCLATH, 4
                          M           endif
                          M         endif
                          M       else
                          M         if (CODE_SIZE >= 4)
                          M           if (((I2CWRITES) & 1800h) == 0)
                          M         clrf    PCLATH
                          M           else
                          M             if (((I2CWRITES) & 800h) == 0)
                          M         bcf     PCLATH, 3
                          M             else
                          M         bsf     PCLATH, 3
                          M             endif
                          M             if (CODE_SIZE == 8)
                          M               if (((I2CWRITES) & 1000h) == 0)
                          M         bcf     PCLATH, 4
                          M               else
                          M         bsf     PCLATH, 4
                          M               endif
                          M             endif
                          M           endif
                          M         endif
                          M       endif
                          M     endif
                          M 
0310   201B               M         call    I2CWRITES
                      00276         PAUSE?C 00Ah
                          M     if (((00Ah) >> 8) == 0)
                          M         MOVE?CA 00Ah
0311   300A               M         movlw   low (00Ah)
                          M         L?CALL  PAUSE
                          M         RST?RP
                          M     if ((PREV_BANK & 1) != 0)
                          M         bcf     STATUS, RP0
                          M     endif
                          M     if ((PREV_BANK & 2) != 0)
                          M         bcf     STATUS, RP1
                          M     endif
  00000000                M PREV_BANK = 0
                          M 
                          M     if ((PAUSE) < 1)
                          M       if (CODE_SIZE >= 4)
                          M         if (((PAUSE) & 800h) == 0)
                          M         bcf     PCLATH, 3
                          M         else
                          M         bsf     PCLATH, 3
                          M         endif
                          M       endif
                          M       if (CODE_SIZE == 8)
                          M         if (((PAUSE) & 1000h) == 0)
                          M         bcf     PCLATH, 4
MPASM  5.49                      RTCCON~1.ASM   1-27-2021  11:00:41         PAGE 312


LOC  OBJECT CODE     LINE SOURCE TEXT
  VALUE

                          M         else
                          M         bsf     PCLATH, 4
                          M         endif
                          M       endif
                          M     else
                          M       if ((PAUSE) > $)
                          M         if (CODE_SIZE >= 4)
                          M           if (((PAUSE) & 800h) == 0)
                          M         bcf     PCLATH, 3
                          M           else
                          M         bsf     PCLATH, 3
                          M           endif
                          M         endif
                          M         if (CODE_SIZE == 8)
                          M           if (((PAUSE) & 1000h) == 0)
                          M         bcf     PCLATH, 4
                          M           else
                          M         bsf     PCLATH, 4
                          M           endif
                          M         endif
                          M       else
                          M         if (CODE_SIZE >= 4)
                          M           if (((PAUSE) & 1800h) == 0)
                          M         clrf    PCLATH
                          M           else
                          M             if (((PAUSE) & 800h) == 0)
                          M         bcf     PCLATH, 3
                          M             else
                          M         bsf     PCLATH, 3
                          M             endif
                          M             if (CODE_SIZE == 8)
                          M               if (((PAUSE) & 1000h) == 0)
                          M         bcf     PCLATH, 4
                          M               else
                          M         bsf     PCLATH, 4
                          M               endif
                          M             endif
                          M           endif
                          M         endif
                          M       endif
                          M     endif
                          M 
0312   20EA               M         call    PAUSE
                          M     else
                          M         MOVE?CB (00Ah) >> 8, R1 + 1
                          M         MOVE?CA low (00Ah)
                          M         L?CALL  PAUSEL
                          M     endif
                      00277         WRITE?CC        000h, 001h
                          M         MOVE?CB 000h, EEADR
                          M         CHK?RP  EEADR
                          M     if (((EEADR) & 180h) == 0)
                          M       if (PREV_BANK == 1)
MPASM  5.49                      RTCCON~1.ASM   1-27-2021  11:00:41         PAGE 313


LOC  OBJECT CODE     LINE SOURCE TEXT
  VALUE

                          M         bcf     STATUS, RP0
                          M       endif
                          M       if (PREV_BANK == 2)
                          M         bcf     STATUS, RP1
                          M       endif
                          M       if (PREV_BANK == 3)
                          M         bcf     STATUS, RP0
                          M         bcf     STATUS, RP1
                          M       endif
                          M PREV_BANK = 0
                          M     endif
                          M 
                          M     if (((EEADR) & 180h) == 80h)
                          M       if (PREV_BANK == 0)
0313   1683               M         bsf     STATUS, RP0
                          M       endif
                          M       if (PREV_BANK == 2)
                          M         bsf     STATUS, RP0
                          M         bcf     STATUS, RP1
                          M       endif
                          M       if (PREV_BANK == 3)
                          M         bcf     STATUS, RP1
                          M       endif
  00000001                M PREV_BANK = 1
                          M     endif
                          M 
                          M     if (((EEADR) & 180h) == 100h)
                          M       if (PREV_BANK == 0)
                          M         bsf     STATUS, RP1
                          M       endif
                          M       if (PREV_BANK == 1)
                          M         bcf     STATUS, RP0
                          M         bsf     STATUS, RP1
                          M       endif
                          M       if (PREV_BANK == 3)
                          M         bcf     STATUS, RP0
                          M       endif
                          M PREV_BANK = 2
                          M     endif
                          M 
                          M     if (((EEADR) & 180h) == 180h)
                          M       if (PREV_BANK == 0)
                          M         bsf     STATUS, RP0
                          M         bsf     STATUS, RP1
                          M       endif
                          M       if (PREV_BANK == 1)
                          M         bsf     STATUS, RP1
                          M       endif
                          M       if (PREV_BANK == 2)
                          M         bsf     STATUS, RP0
                          M       endif
                          M PREV_BANK = 3
                          M     endif
MPASM  5.49                      RTCCON~1.ASM   1-27-2021  11:00:41         PAGE 314


LOC  OBJECT CODE     LINE SOURCE TEXT
  VALUE

                          M     if (low (000h) == 0)
0314   019B               M         clrf    EEADR
                          M     else
                          M         movlw   low (000h)
                          M         movwf   EEADR
                          M     endif
0315   3001               M         movlw   001h
                          M         L?CALL  WRITE
                          M         RST?RP
                          M     if ((PREV_BANK & 1) != 0)
0316   1283               M         bcf     STATUS, RP0
                          M     endif
                          M     if ((PREV_BANK & 2) != 0)
                          M         bcf     STATUS, RP1
                          M     endif
  00000000                M PREV_BANK = 0
                          M 
                          M     if ((WRITE) < 1)
                          M       if (CODE_SIZE >= 4)
                          M         if (((WRITE) & 800h) == 0)
                          M         bcf     PCLATH, 3
                          M         else
                          M         bsf     PCLATH, 3
                          M         endif
                          M       endif
                          M       if (CODE_SIZE == 8)
                          M         if (((WRITE) & 1000h) == 0)
                          M         bcf     PCLATH, 4
                          M         else
                          M         bsf     PCLATH, 4
                          M         endif
                          M       endif
                          M     else
                          M       if ((WRITE) > $)
                          M         if (CODE_SIZE >= 4)
                          M           if (((WRITE) & 800h) == 0)
                          M         bcf     PCLATH, 3
                          M           else
                          M         bsf     PCLATH, 3
                          M           endif
                          M         endif
                          M         if (CODE_SIZE == 8)
                          M           if (((WRITE) & 1000h) == 0)
                          M         bcf     PCLATH, 4
                          M           else
                          M         bsf     PCLATH, 4
                          M           endif
                          M         endif
                          M       else
                          M         if (CODE_SIZE >= 4)
                          M           if (((WRITE) & 1800h) == 0)
                          M         clrf    PCLATH
                          M           else
MPASM  5.49                      RTCCON~1.ASM   1-27-2021  11:00:41         PAGE 315


LOC  OBJECT CODE     LINE SOURCE TEXT
  VALUE

                          M             if (((WRITE) & 800h) == 0)
                          M         bcf     PCLATH, 3
                          M             else
                          M         bsf     PCLATH, 3
                          M             endif
                          M             if (CODE_SIZE == 8)
                          M               if (((WRITE) & 1000h) == 0)
                          M         bcf     PCLATH, 4
                          M               else
                          M         bsf     PCLATH, 4
                          M               endif
                          M             endif
                          M           endif
                          M         endif
                          M       endif
                          M     endif
                          M 
0317   20DE               M         call    WRITE
                      00278         GOTO?L  _INICIO
                          M         L?GOTO  _INICIO
                          M     if ($ == (_INICIO))
                          M         CLRWDT?
                          M     endif
                          M 
                          M         RST?RP
                          M     if ((PREV_BANK & 1) != 0)
                          M         bcf     STATUS, RP0
                          M     endif
                          M     if ((PREV_BANK & 2) != 0)
                          M         bcf     STATUS, RP1
                          M     endif
  00000000                M PREV_BANK = 0
                          M 
                          M     if ((_INICIO) < 1)
                          M       if (CODE_SIZE >= 4)
                          M         if (((_INICIO) & 800h) == 0)
                          M         bcf     PCLATH, 3
                          M         else
                          M         bsf     PCLATH, 3
                          M         endif
                          M       endif
                          M       if (CODE_SIZE == 8)
                          M         if (((_INICIO) & 1000h) == 0)
                          M         bcf     PCLATH, 4
                          M         else
                          M         bsf     PCLATH, 4
                          M         endif
                          M       endif
                          M     else
                          M       if ((_INICIO) > $)
                          M         if (CODE_SIZE >= 4)
                          M           if (((_INICIO) & 800h) == 0)
                          M         bcf     PCLATH, 3
MPASM  5.49                      RTCCON~1.ASM   1-27-2021  11:00:41         PAGE 316


LOC  OBJECT CODE     LINE SOURCE TEXT
  VALUE

                          M           else
                          M         bsf     PCLATH, 3
                          M           endif
                          M         endif
                          M         if (CODE_SIZE == 8)
                          M           if (((_INICIO) & 1000h) == 0)
                          M         bcf     PCLATH, 4
                          M           else
                          M         bsf     PCLATH, 4
                          M           endif
                          M         endif
                          M       else
                          M         if (CODE_SIZE >= 4)
                          M           if (((_INICIO) & 1800h) == 0)
                          M         clrf    PCLATH
                          M           else
                          M             if (((_INICIO) & 800h) == 0)
                          M         bcf     PCLATH, 3
                          M             else
                          M         bsf     PCLATH, 3
                          M             endif
                          M             if (CODE_SIZE == 8)
                          M               if (((_INICIO) & 1000h) == 0)
                          M         bcf     PCLATH, 4
                          M               else
                          M         bsf     PCLATH, 4
                          M               endif
                          M             endif
                          M           endif
                          M         endif
                          M       endif
                          M     endif
                          M 
0318   2918               M         goto    _INICIO
                      00279 
                      00280         END
MPASM  5.49                      RTCCON~1.ASM   1-27-2021  11:00:41         PAGE 317


SYMBOL TABLE
  LABEL                             VALUE 

ADC_BITS                          00000008
ADC_CLOCK                         00000003
ADC_SAMPLEUS                      00000032
ADDEN                             00000003
ADEN                              00000003
BANK0_END                         0000007F
BANK0_START                       00000020
BANK1_END                         000000EF
BANK1_START                       000000A0
BANK2_END                         0000014F
BANK2_START                       00000120
BIT?FLIP                          
BIT?FW                            
BIT?GOTO                          
BIT?R1                            
BIT?R2                            
BIT?W                             
BRGH                              00000002
BUTTON_PAUSE                      0000000A
C                                 00000000
C1INV                             00000004
C1OUT                             00000006
C2INV                             00000005
C2OUT                             00000007
CCP1CON                           00000017
CCP1IE                            00000002
CCP1IF                            00000002
CCP1M0                            00000000
CCP1M1                            00000001
CCP1M2                            00000002
CCP1M3                            00000003
CCP1X                             00000005
CCP1Y                             00000004
CCP1_BIT                          00000003
CCP1_REG                          00000006
CCPR1                             00000015
CCPR1H                            00000016
CCPR1L                            00000015
CHK?RP                            
CIS                               00000003
CLRWDT?                           
CLRWDT?NOP                        
CM0                               00000000
CM1                               00000001
CM2                               00000002
CMCON                             0000001F
CMIE                              00000006
CMIF                              00000006
CMPNE?BCL                         
CODE_SIZE                         00000002
CREN                              00000004
CSRC                              00000007
DATA_CP_OFF                       00003FFF
MPASM  5.49                      RTCCON~1.ASM   1-27-2021  11:00:41         PAGE 318


SYMBOL TABLE
  LABEL                             VALUE 

DATA_CP_ON                        00003EFF
DC                                00000001
DEBUGIN_BIT                       00000000
DEBUGIN_MODE                      00000001
DEBUGIN_REG                       00000006
DEBUG_BAUD                        00000960
DEBUG_BIT                         00000000
DEBUG_DELAY                       00000193
DEBUG_MODE                        00000001
DEBUG_REG                         00000006
DONE                              00000111
DONERET                           00000115
DONE_USED                         00000001
EEADR                             0000009B
EECON1                            0000009C
EECON2                            0000009D
EEDATA                            0000009A
EEIE                              00000007
EEIF                              00000007
EEPROM_END                        0000217F
EEPROM_START                      00002100
F                                 00000001
FERR                              00000002
FLAGS                             00000032
FLAGS_USED                        00000001
FSR                               00000004
GIE                               00000007
GOP                               00000033
GOTO?L                            
HSER_BAUD                         00000960
HSER_BITS                         00000008
HSER_RCSTA                        00000090
HSER_SPBRG                        00000019
HSER_TXSTA                        00000020
I2CCLOCK?T                        
I2CDATA?T                         
I2CFIRSTFLAG                      FLAGS, 2
I2CREAD                           00000004
I2CREADFLAG                       FLAGS, 3
I2CREADS                          00000002
I2CREADS?B                        
I2CREAD_USED                      00000001
I2CSTOPFLAG                       FLAGS, 5
I2CSTOPSTRFLAG                    FLAGS, 6
I2CWRITE                          0000001D
I2CWRITE?C                        
I2CWRITEFLAG                      FLAGS, 4
I2CWRITES                         0000001B
I2CWRITES?C                       
I2CWRITE_USED                     00000001
I2C_SCLOUT                        1
INDF                              00000000
INIT                              00000116
MPASM  5.49                      RTCCON~1.ASM   1-27-2021  11:00:41         PAGE 319


SYMBOL TABLE
  LABEL                             VALUE 

INTCON                            0000000B
INTE                              00000004
INTEDG                            00000006
INTF                              00000001
IRP                               00000007
JUMPMAN                           0000010C
JUMPMAN_USED                      00000001
L00001                            0000018F
L00003                            0000019C
L00005                            000001A9
L00007                            000001B6
L00009                            000001C3
L00011                            000001D0
L00013                            000001DD
L00015                            000001F3
L00017                            000001FE
L00019                            00000209
L00021                            00000214
L00023                            0000021F
L00025                            0000022A
L00027                            00000235
L00029                            00000240
L00031                            0000024B
L00033                            00000256
L00035                            00000261
L00037                            0000026C
L?CALL                            
L?GOTO                            
LABEL?L                           
LCDCDFLAG                         FLAGS, 0
LCDINITFLAG                       FLAGS, 1
LCDOUT                            0000006B
LCDOUT?C                          
LCDOUTCOUNT?C                     
LCDOUTHEX?                        
LCDOUTJ                           0000006A
LCDOUTJ_USED                      00000001
LCDOUTNUM?B                       
LCDOUT_USED                       00000001
LCD_BITS                          00000004
LCD_COMMANDUS                     000005DC
LCD_DATAUS                        0000002C
LCD_DBIT                          0
LCD_DREG                          PORTA
LCD_EBIT                          1
LCD_EREG                          PORTB
LCD_LINES                         00000002
LCD_RSBIT                         0
LCD_RSREG                         PORTB
LCD_RWBIT                         00000000
LCD_RWREG                         00000006
MOVE?AB                           
MOVE?AT                           
MPASM  5.49                      RTCCON~1.ASM   1-27-2021  11:00:41         PAGE 320


SYMBOL TABLE
  LABEL                             VALUE 

MOVE?AW                           
MOVE?AWW                          
MOVE?BA                           
MOVE?BB                           
MOVE?BT                           
MOVE?BW                           
MOVE?CA                           
MOVE?CB                           
MOVE?CT                           
MOVE?CW                           
MOVE?TA                           
MOVE?TB                           
MOVE?TT                           
MOVE?TW                           
MOVE?WA                           
MOVE?WB                           
MOVE?WT                           
MOVE?WW                           
MOVE?WWA                          
NOT_BO                            00000000
NOT_BOD                           00000000
NOT_BOR                           00000000
NOT_PD                            00000003
NOT_POR                           00000001
NOT_RBPU                          00000007
NOT_T1SYNC                        00000002
NOT_TO                            00000004
OERR                              00000001
OPTION_REG                        00000081
OSC                               00000004
OSCF                              00000003
OSC_VALID                         00000001
PAUSE                             000000EA
PAUSE?C                           
PAUSEL                            000000EB
PAUSEUS                           000000F7
PAUSEUSL                          000000F8
PAUSEUS_USED                      00000001
PAUSE_DELAY                       000003DF
PAUSE_USED                        00000001
PB01                              0000003E
PCL                               00000002
PCLATH                            0000000A
PCON                              0000008E
PEIE                              00000006
PIE1                              0000008C
PIR1                              0000000C
PORTA                             00000005
PORTB                             00000006
PR2                               00000092
PREV_BANK                         00000000
PS0                               00000000
PS1                               00000001
MPASM  5.49                      RTCCON~1.ASM   1-27-2021  11:00:41         PAGE 321


SYMBOL TABLE
  LABEL                             VALUE 

PS2                               00000002
PSA                               00000003
R0                                00000020
R1                                00000022
R2                                00000024
R3                                00000026
R4                                00000028
R5                                0000002A
R6                                0000002C
R7                                0000002E
R8                                00000030
RA0                               00000000
RA1                               00000001
RA2                               00000002
RA3                               00000003
RA4                               00000004
RA5                               00000005
RA6                               00000006
RA7                               00000007
RAM_BANKS                         00000003
RAM_END                           0000014F
RAM_START                         00000020
RB0                               00000000
RB1                               00000001
RB2                               00000002
RB3                               00000003
RB4                               00000004
RB5                               00000005
RB6                               00000006
RB7                               00000007
RBIE                              00000003
RBIF                              00000000
RCIE                              00000005
RCIF                              00000005
RCREG                             0000001A
RCSTA                             00000018
RD                                00000000
RM1                               00000034
RM2                               00000035
RP0                               00000005
RP1                               00000006
RR1                               00000036
RR2                               00000037
RST?RP                            
RX9                               00000006
RX9D                              00000000
SEROUT2HEX                        000000BA
SEROUT2HEX_USED                   00000001
SEROUT2SEND                       000000CD
SEROUT2SEND_USED                  00000001
SPBRG                             00000099
SPEN                              00000007
SREN                              00000005
MPASM  5.49                      RTCCON~1.ASM   1-27-2021  11:00:41         PAGE 322


SYMBOL TABLE
  LABEL                             VALUE 

STATUS                            00000003
SYNC                              00000004
T0CS                              00000005
T0IE                              00000005
T0IF                              00000002
T0SE                              00000004
T1CKPS0                           00000004
T1CKPS1                           00000005
T1CON                             00000010
T1OSCEN                           00000003
T2CKPS0                           00000000
T2CKPS1                           00000001
T2CON                             00000012
TABLE?C                           
TMR0                              00000001
TMR0IE                            00000005
TMR0IF                            00000002
TMR1                              0000000E
TMR1CS                            00000001
TMR1H                             0000000F
TMR1IE                            00000000
TMR1IF                            00000000
TMR1L                             0000000E
TMR1ON                            00000000
TMR2                              00000011
TMR2IE                            00000001
TMR2IF                            00000001
TMR2ON                            00000002
TOUTPS0                           00000003
TOUTPS1                           00000004
TOUTPS2                           00000005
TOUTPS3                           00000006
TRISA                             00000085
TRISA0                            00000000
TRISA1                            00000001
TRISA2                            00000002
TRISA3                            00000003
TRISA4                            00000004
TRISA5                            00000005
TRISA6                            00000006
TRISA7                            00000007
TRISB                             00000086
TRISB0                            00000000
TRISB1                            00000001
TRISB2                            00000002
TRISB3                            00000003
TRISB4                            00000004
TRISB5                            00000005
TRISB6                            00000006
TRISB7                            00000007
TRMT                              00000001
TX9                               00000006
TX9D                              00000000
MPASM  5.49                      RTCCON~1.ASM   1-27-2021  11:00:41         PAGE 323


SYMBOL TABLE
  LABEL                             VALUE 

TXEN                              00000005
TXIE                              00000004
TXIF                              00000004
TXREG                             00000019
TXSTA                             00000098
VR0                               00000000
VR1                               00000001
VR2                               00000002
VR3                               00000003
VRCON                             0000009F
VREN                              00000007
VROE                              00000006
VRR                               00000005
W                                 00000000
WR                                00000001
WREN                              00000002
WRERR                             00000003
WRITE                             000000DE
WRITE?CC                          
WRITE_USED                        00000001
Z                                 00000002
_BODEN_OFF                        00003FBF
_BODEN_ON                         00003FFF
_BOREN_OFF                        00003FBF
_BOREN_ON                         00003FFF
_CONFIG                           00002007
_CPD_OFF                          00003FFF
_CPD_ON                           00003EFF
_CPIN                             _PORTB??7
_CP_OFF                           00003FFF
_CP_ON                            00001FFF
_DEVID1                           00002006
_DPIN                             _PORTB??6
_ER_OSC_CLKOUT                    00003FFF
_ER_OSC_NOCLKOUT                  00003FFE
_EXTCLK_OSC                       00003FEF
_FOSC_ECIO                        00003FEF
_FOSC_EXTRCCLK                    00003FFF
_FOSC_EXTRCIO                     00003FFE
_FOSC_HS                          00003FEE
_FOSC_INTOSCCLK                   00003FFD
_FOSC_INTOSCIO                    00003FFC
_FOSC_LP                          00003FEC
_FOSC_XT                          00003FED
_HS_OSC                           00003FEE
_IDLOC0                           00002000
_IDLOC1                           00002001
_IDLOC2                           00002002
_IDLOC3                           00002003
_INICIO                           00000118
_INTOSC_OSC_CLKOUT                00003FFD
_INTOSC_OSC_NOCLKOUT              00003FFC
_INTRC_OSC_CLKOUT                 00003FFD
MPASM  5.49                      RTCCON~1.ASM   1-27-2021  11:00:41         PAGE 324


SYMBOL TABLE
  LABEL                             VALUE 

_INTRC_OSC_NOCLKOUT               00003FFC
_LP_OSC                           00003FEC
_LVP_OFF                          00003F7F
_LVP_ON                           00003FFF
_MCLRE_OFF                        00003FDF
_MCLRE_ON                         00003FFF
_PORTB??6                         PORTB, 006h
_PORTB??7                         PORTB, 007h
_PORTH                            00000005
_PORTL                            00000006
_PWRTE_OFF                        00003FFF
_PWRTE_ON                         00003FF7
_RC_OSC_CLKOUT                    00003FFF
_RC_OSC_NOCLKOUT                  00003FFE
_TRISH                            00000085
_TRISL                            00000086
_USED                             00000001
_WDTE_OFF                         00003FFB
_WDTE_ON                          00003FFF
_WDT_OFF                          00003FFB
_WDT_ON                           00003FFF
_XT_OSC                           00003FED
__16F628A                         00000001
_actualizado                      PB01, 000h
_anio                             00000038
_diaF                             00000039
_diaS                             0000003A
_grabarRTC                        000002A3
_hora                             0000003B
_mes                              0000003C
_minu                             0000003D
_segu                             0000003F
i2cckh                            00000062
i2cckl                            0000005E
i2cdah                            00000037
i2cdal                            0000003D
i2cgetbit                         00000058
i2chigh                           0000003A
i2chl                             00000043
i2chold                           00000064
i2clow                            00000040
i2creadip                         0000000B
i2creadloop                       0000000D
i2cstart                          00000044
i2cstop                           00000032
i2cwrite2                         00000025
i2cwritec                         0000004B
i2cwriteip                        0000002D
i2cwriteloop                      0000004E
lcdchkcd                          000000A4
lcdloop                           000000AB
lcdout1                           00000096
lcdoutcom                         00000095
MPASM  5.49                      RTCCON~1.ASM   1-27-2021  11:00:41         PAGE 325


SYMBOL TABLE
  LABEL                             VALUE 

lcdsend                           000000A9
main                              00000116
pauseloop                         000000EC
pauseusdone                       0000010B
pauseush                          00000101
pauseusloop                       000000FE
serout2hdig                       000000C7
serout2send1                      000000D7
writeloop                         000000E6


MEMORY USAGE MAP ('X' = Used,  '-' = Unused)

0000 : XXXXXXXXXXXXXXXX XXXXXXXXXXXXXXXX XXXXXXXXXXXXXXXX XXXXXXXXXXXXXXXX
0040 : XXXXXXXXXXXXXXXX XXXXXXXXXXXXXXXX XXXXXXXXXXXXXXXX XXXXXXXXXXXXXXXX
0080 : XXXXXXXXXXXXXXXX XXXXXXXXXXXXXXXX XXXXXXXXXXXXXXXX XXXXXXXXXXXXXXXX
00C0 : XXXXXXXXXXXXXXXX XXXXXXXXXXXXXXXX XXXXXXXXXXXXXXXX XXXXXXXXXXXXXXXX
0100 : XXXXXXXXXXXXXXXX XXXXXXXXXXXXXXXX XXXXXXXXXXXXXXXX XXXXXXXXXXXXXXXX
0140 : XXXXXXXXXXXXXXXX XXXXXXXXXXXXXXXX XXXXXXXXXXXXXXXX XXXXXXXXXXXXXXXX
0180 : XXXXXXXXXXXXXXXX XXXXXXXXXXXXXXXX XXXXXXXXXXXXXXXX XXXXXXXXXXXXXXXX
01C0 : XXXXXXXXXXXXXXXX XXXXXXXXXXXXXXXX XXXXXXXXXXXXXXXX XXXXXXXXXXXXXXXX
0200 : XXXXXXXXXXXXXXXX XXXXXXXXXXXXXXXX XXXXXXXXXXXXXXXX XXXXXXXXXXXXXXXX
0240 : XXXXXXXXXXXXXXXX XXXXXXXXXXXXXXXX XXXXXXXXXXXXXXXX XXXXXXXXXXXXXXXX
0280 : XXXXXXXXXXXXXXXX XXXXXXXXXXXXXXXX XXXXXXXXXXXXXXXX XXXXXXXXXXXXXXXX
02C0 : XXXXXXXXXXXXXXXX XXXXXXXXXXXXXXXX XXXXXXXXXXXXXXXX XXXXXXXXXXXXXXXX
0300 : XXXXXXXXXXXXXXXX XXXXXXXXX------- ---------------- ----------------
2000 : -------X-------- ---------------- ---------------- ----------------

All other memory blocks unused.

Program Memory Words Used:   793
Program Memory Words Free:  1255


Errors   :     0
Warnings :     0 reported,     0 suppressed
Messages :     0 reported,     8 suppressed

