MPASM  5.49                      SDCCON~1.ASM   7-1-2005  0:07:41         PAGE  1


LOC  OBJECT CODE     LINE SOURCE TEXT
  VALUE

                      00001 
                      00002 ; PICBASIC PRO(TM) Compiler 2.50, (c) 1998, 2007 microEngineering Labs, Inc. All Rights Reserved.  
  00000001            00003 _USED                   EQU     1
                      00004 
                      00005         INCLUDE "C:\PBP\16F877A.INC"
                      00001 ;****************************************************************
                      00002 ;*  16F877A.INC                                                 *
                      00003 ;*                                                              *
                      00004 ;*  By        : Leonard Zerman, Jeff Schmoyer                   *
                      00005 ;*  Notice    : Copyright (c) 2003 microEngineering Labs, Inc.  *
                      00006 ;*              All Rights Reserved                             *
                      00007 ;*  Date      : 11/06/03                                        *
                      00008 ;*  Version   : 2.45                                            *
                      00009 ;*  Notes     :                                                 *
                      00010 ;****************************************************************
                      00019         LIST
                      00020         LIST p = 16F877A, r = dec, w = -302
                      00021         INCLUDE "P16F877A.INC"  ; MPASM  Header
                      00001         LIST
                      00002 
                      00003 ;==========================================================================
                      00004 ;  MPASM PIC16F877A processor include
                      00005 ; 
                      00006 ;  (c) Copyright 1999-2013 Microchip Technology, All rights reserved
                      00007 ;==========================================================================
                      00008 
                      00566         LIST
2007   3F7D           00022         __config _XT_OSC & _WDT_ON & _LVP_OFF & _CP_OFF
                      00025         LIST
                      00006 
                      00007 
                      00008 ; Define statements.
                      00009 #define         CODE_SIZE                8
                      00010 #define         LCD_DREG                 PORTB 
                      00011 #define         LCD_DBIT                 0 
                      00012 #define         LCD_RSREG                PORTB 
                      00013 #define         LCD_RSBIT                4 
                      00014 #define         LCD_EREG                 PORTB 
                      00015 #define         LCD_EBIT                 5
                      00016 #define         ADC_BITS                 10 ;Fijar número de BITS del resultado (5,8,10)
                      00017 #define         ADC_CLOCK                3 ;Fijar EL CLOCK (rc = 3)
                      00018 #define         ADC_SAMPLEUS             50 ;Fijar el tiempo de muestreo en Us
                      00019 
  00000020            00020 RAM_START                       EQU     00020h
  000001EF            00021 RAM_END                         EQU     001EFh
  00000004            00022 RAM_BANKS                       EQU     00004h
  00000020            00023 BANK0_START                     EQU     00020h
  0000007F            00024 BANK0_END                       EQU     0007Fh
  000000A0            00025 BANK1_START                     EQU     000A0h
  000000EF            00026 BANK1_END                       EQU     000EFh
  00000110            00027 BANK2_START                     EQU     00110h
  0000016F            00028 BANK2_END                       EQU     0016Fh
  00000190            00029 BANK3_START                     EQU     00190h
MPASM  5.49                      SDCCON~1.ASM   7-1-2005  0:07:41         PAGE  2


LOC  OBJECT CODE     LINE SOURCE TEXT
  VALUE

  000001EF            00030 BANK3_END                       EQU     001EFh
  00002100            00031 EEPROM_START                    EQU     02100h
  000021FF            00032 EEPROM_END                      EQU     021FFh
                      00033 
  00000020            00034 R0                              EQU     RAM_START + 000h
  00000022            00035 R1                              EQU     RAM_START + 002h
  00000024            00036 R2                              EQU     RAM_START + 004h
  00000026            00037 R3                              EQU     RAM_START + 006h
  00000028            00038 R4                              EQU     RAM_START + 008h
  0000002A            00039 R5                              EQU     RAM_START + 00Ah
  0000002C            00040 R6                              EQU     RAM_START + 00Ch
  0000002E            00041 R7                              EQU     RAM_START + 00Eh
  00000030            00042 R8                              EQU     RAM_START + 010h
  00000032            00043 FLAGS                           EQU     RAM_START + 012h
  00000033            00044 GOP                             EQU     RAM_START + 013h
  00000034            00045 RM1                             EQU     RAM_START + 014h
  00000035            00046 RM2                             EQU     RAM_START + 015h
  00000036            00047 RR1                             EQU     RAM_START + 016h
  00000037            00048 RR2                             EQU     RAM_START + 017h
  00000038            00049 _dato                           EQU     RAM_START + 018h
  0000003A            00050 _tempMax                        EQU     RAM_START + 01Ah
  0000003B            00051 _tempMin                        EQU     RAM_START + 01Bh
  0000003C            00052 _x                              EQU     RAM_START + 01Ch
  00000006            00053 _PORTL                          EQU      PORTB
  00000007            00054 _PORTH                          EQU      PORTC
  00000086            00055 _TRISL                          EQU      TRISB
  00000087            00056 _TRISH                          EQU      TRISC
                      00057 #define _calf                   _PORTD??3
                      00058 #define _vent                   _PORTD??4
                      00059 #define _enter                  _PORTD??5
                      00060 #define _botonBajar             _PORTD??6
                      00061 #define _botonSubir             _PORTD??7
                      00062 #define _PORTD??3                PORTD, 003h
                      00063 #define _PORTD??4                PORTD, 004h
                      00064 #define _PORTD??5                PORTD, 005h
                      00065 #define _PORTD??6                PORTD, 006h
                      00066 #define _PORTD??7                PORTD, 007h
                      00067 
                      00068 ; Constants.
  000000DF            00069 _g                              EQU     000DFh
                      00070 
                      00071 ; EEPROM data.
2100                  00072         ORG EEPROM_START
                      00073 
2100                  00074         ORG EEPROM_START + 000h
2100   0012           00075         DE      012h
2101   0019           00076         DE      019h
                      00077 
                      00078         INCLUDE "SDCCON~1.MAC"
                      00001 
                      00261         LIST
                      00079         INCLUDE "C:\PBP\PBPPIC14.LIB"
                      00001 ;******************************************************************
MPASM  5.49                      SDCCON~1.ASM   7-1-2005  0:07:41         PAGE  3


LOC  OBJECT CODE     LINE SOURCE TEXT
  VALUE

                      00002 ;*  PBPPIC14.LIB                                                  *
                      00003 ;*                                                                *
                      00004 ;*  By        : Leonard Zerman, Jeff Schmoyer                     *
                      00005 ;*  Notice    : Copyright (c) 2007 microEngineering Labs, Inc.    *
                      00006 ;*              All Rights Reserved                               *
                      00007 ;*  Date      : 08/01/07                                          *
                      00008 ;*  Version   : 2.50                                              *
                      00009 ;*  Notes     :                                                   *
                      00010 ;******************************************************************
                      00046   LIST
                      00047 ; Oscillator is 4MHz
                      01112   LIST
0000                  01113     ORG 0                       ; Reset vector at 0
                      01122   LIST
0000   01B2           01123         clrf    FLAGS           ; Clear all flags on reset
                      01127   LIST
0001   2909           01128         goto    INIT            ; Finish initialization
                      02784   LIST
0002   0804           02785 LCDOUTJ  movf    FSR, W          ; Jumpman entry
                      02791   LIST
0003   00A7           02792 LCDOUT  movwf   R3 + 1          ; Save char
                      02793 
0004   1286           02794         bcf     LCD_EREG, LCD_EBIT      ; Set E low
0005   1206           02795         bcf     LCD_RSREG, LCD_RSBIT    ; Set command register select
0006   1206           02796         bcf     LCD_RWREG, LCD_RWBIT    ; Set RW low (write)
                      02797 
0007   1683           02798         bsf     STATUS, RP0     ; Point to trises
0008   1286           02799         bcf     LCD_EREG, LCD_EBIT      ; Set E to output
0009   1206           02800         bcf     LCD_RSREG, LCD_RSBIT    ; Set RS to output
000A   1206           02801         bcf     LCD_RWREG, LCD_RWBIT    ; Set RW to output
                      02802     if ((LCD_BITS) == 8)
                      02803         clrf    LCD_DREG        ; Set port to all output
                      02804     else
                      02805       if ((LCD_DBIT) == 0)
000B   30F0           02806         movlw   0f0h
                      02807       else
                      02808         movlw   0fh
                      02809       endif
000C   0586           02810         andwf   LCD_DREG, F     ; Set proper half of port to output
                      02811     endif
000D   1283           02812         bcf     STATUS, RP0     ; Point back to ports
                      02813 
000E   0827           02814         movf    R3 + 1, W       ; Get back char
                      02815 
000F   18B2           02816         btfsc   LCDINITFLAG     ; Has lcd been inititalized?
0010   282E           02817         goto    lcdout1         ; Yes
                      02818 
0011   303A           02819         movlw   high 15100      ; Wait at least 15ms
0012   00A1           02820         movwf   R0 + 1
0013   30FC           02821         movlw   low 15100
0014   20B7           02822         call    PAUSEUSL
                      02823 
0015   3033           02824         movlw   33h             ; Init lcd
MPASM  5.49                      SDCCON~1.ASM   7-1-2005  0:07:41         PAGE  4


LOC  OBJECT CODE     LINE SOURCE TEXT
  VALUE

0016   00A6           02825         movwf   R3              ; Save char
0017   2043           02826         call    lcdloop         ; Send init
                      02827 
0018   3010           02828         movlw   high 4200       ; Wait at least 4.1ms
0019   00A1           02829         movwf   R0 + 1
001A   3068           02830         movlw   low 4200
001B   20B7           02831         call    PAUSEUSL
                      02832 
001C   2043           02833         call    lcdloop         ; Send init (33) again
                      02834 
001D   3064           02835         movlw   100             ; Wait at least 100us
001E   20B6           02836         call    PAUSEUS
                      02837 
                      02838     if ((LCD_BITS) == 8)
                      02839         call    lcdloop         ; Send init (33) one more time
                      02840       if ((LCD_LINES) == 1)
                      02841         movlw   30h             ; 8-bit mode, 1 line, 5x7 font
                      02842       else
                      02843         movlw   38h             ; 8-bit mode, 2+ lines, 5x7 font
                      02844       endif
                      02845     else
001F   3022           02846         movlw   22h             ; Send init to 4-bit mode
0020   00A6           02847         movwf   R3              ; Save character
0021   2043           02848         call    lcdloop         ; Set interface to 4-bit mode
                      02849       if ((LCD_LINES) == 1)
                      02850         movlw   20h             ; 4-bit mode, 1 line, 5x7 font
                      02851       else
0022   3028           02852         movlw   28h             ; 4-bit mode, 2+ lines, 5x7 font
                      02853       endif
                      02854     endif
0023   202D           02855         call    lcdoutcom       ; Send function set
                      02856 
0024   300C           02857         movlw   0ch             ; Display on, no cursor, no blink
0025   202D           02858         call    lcdoutcom
                      02859 
0026   3001           02860         movlw   01h             ; Display clear
0027   202D           02861         call    lcdoutcom
                      02862 
0028   3006           02863         movlw   06h             ; Lcd entry mode set, increment, no shift
0029   202D           02864         call    lcdoutcom
                      02865 
002A   14B2           02866         bsf     LCDINITFLAG     ; Set to initialized
                      02867 
002B   0827           02868         movf    R3 + 1, W       ; Get saved char back (again)
002C   282E           02869         goto    lcdout1
                      02870 
002D   1432           02871 lcdoutcom bsf   LCDCDFLAG       ; Set for command
                      02872 
002E   00A6           02873 lcdout1 movwf   R3              ; Save char
002F   1C32           02874         btfss   LCDCDFLAG       ; Command this time?
0030   283C           02875         goto    lcdchkcd        ; No
                      02876 
0031   1206           02877         bcf     LCD_RSREG, LCD_RSBIT    ; Set command register select
MPASM  5.49                      SDCCON~1.ASM   7-1-2005  0:07:41         PAGE  5


LOC  OBJECT CODE     LINE SOURCE TEXT
  VALUE

0032   3C03           02878         sublw   3               ; Is it a slow command (clear screen or home)?
0033   1C03           02879         btfss   STATUS, C       ; Long or short delay?
0034   2841           02880         goto    lcdsend         ; Short delay
                      02881 
0035   2041           02882         call    lcdsend         ; Long delay (includes short delay)
0036   3005           02883         movlw   high LCD_COMMANDUS      ; Wait for command to complete
0037   00A1           02884         movwf   R0 + 1
0038   30DC           02885         movlw   low LCD_COMMANDUS
0039   20B7           02886         call    PAUSEUSL
003A   1403           02887         bsf     STATUS, C       ; Set no timeout for Serout2mod
003B   0008           02888         return
                      02889 
003C   1432           02890 lcdchkcd bsf    LCDCDFLAG       ; Indicate first nibble (or command next time)
003D   3CFE           02891         sublw   0feh            ; Command next time? (char still in W)
003E   1903           02892         btfsc   STATUS, Z
003F   2904           02893         goto    DONE            ; Yes - nothing to do this time (C set for no timeout for Serout2mod)
                      02894 
0040   1606           02895         bsf     LCD_RSREG, LCD_RSBIT    ; Set data register select
                      02896 
0041                  02897 lcdsend
                      02898     if ((LCD_BITS) == 8)
                      02899 lcdloop bsf     LCD_EREG, LCD_EBIT      ; Enabled
                      02900         movf    R3, W           ; Get char back
                      02901         movwf   LCD_DREG        ; Write char to the port
                      02902       if (OSC > 16)
                      02903         nop                     ; Minimum 1us enable time
                      02904       endif
                      02905       if (OSC > 20)
                      02906         nop
                      02907       endif
                      02908         bcf     LCDCDFLAG       ; Indicate data next time
                      02909         bcf     LCD_EREG, LCD_EBIT      ; Not enabled
                      02910     else
                      02911 
                      02912       if ((LCD_DBIT) == 0)
0041   0EA6           02913         swapf   R3, F           ; Swap top and bottom nibbles
                      02914       endif
                      02915 
0042   1C32           02916         btfss   LCDCDFLAG       ; First time through only
0043   1032           02917 lcdloop bcf     LCDCDFLAG       ; Indicate second nibble (and data next time)
                      02918 
0044   1686           02919         bsf     LCD_EREG, LCD_EBIT      ; Enabled
                      02920 
                      02921       if ((LCD_DBIT) == 0)
0045   30F0           02922         movlw   0f0h            ; Clear lcd data port
                      02923       else
                      02924         movlw   0fh             ; Clear lcd data port
                      02925       endif
0046   0586           02926         andwf   LCD_DREG, F
                      02927 
0047   0826           02928         movf    R3, W           ; Isolate proper nibble of char
                      02929       if ((LCD_DBIT) == 0)
0048   390F           02930         andlw   0fh
MPASM  5.49                      SDCCON~1.ASM   7-1-2005  0:07:41         PAGE  6


LOC  OBJECT CODE     LINE SOURCE TEXT
  VALUE

                      02931       else
                      02932         andlw   0f0h
                      02933       endif
0049   0486           02934         iorwf   LCD_DREG, F     ; Write char to port
004A   1286           02935         bcf     LCD_EREG, LCD_EBIT      ; Not enabled - that's four
004B   0EA6           02936         swapf   R3, F           ; Get to other nibble
                      02937 
004C   1832           02938         btfsc   LCDCDFLAG       ; Need to send 4 more?
004D   2843           02939         goto    lcdloop         ; Send lower 4 to lcd
                      02940     endif
                      02941 
004E   302C           02942         movlw   LCD_DATAUS      ; Wait for data operation to complete
004F   20B6           02943         call    PAUSEUS
0050   1403           02944         bsf     STATUS, C       ; Set no timeout for Serout2mod
0051   0008           02945         return
                      04961   LIST
0052   13B3           04962 SEROUT2DEC bcf  GOP, 7          ; Blanking off
0053   0829           04963         movf    R4 + 1, W       ; If 0 digits called for then blanking on
0054   1903           04964         btfsc   STATUS, Z
0055   17B3           04965         bsf     GOP, 7          ; Yes, blanking on
0056   3005           04966         movlw   5               ; 5 digits max to do
0057   00A8           04967         movwf   R4
0058   3027           04968         movlw   high 10000      ; Find 10,000s
0059   00A3           04969         movwf   R1 + 1
005A   3010           04970         movlw   low 10000
005B   2068           04971         call    serout2ddig     ; Do the work
                      04972       ifdef SEROUT2TO_USED
                      04973         btfss   STATUS, C       ; Timed out?
                      04974         return                  ; Yes
                      04975       endif
005C   3003           04976         movlw   high 1000       ; Find 1,000s
005D   00A3           04977         movwf   R1 + 1
005E   30E8           04978         movlw   low 1000
005F   2068           04979         call    serout2ddig     ; Do the work
                      04980       ifdef SEROUT2TO_USED
                      04981         btfss   STATUS, C       ; Timed out?
                      04982         return                  ; Yes
                      04983       endif
0060   01A3           04984         clrf    R1 + 1          ; Find 100s
0061   3064           04985         movlw   100
0062   2068           04986         call    serout2ddig     ; Do the work
                      04987       ifdef SEROUT2TO_USED
                      04988         btfss   STATUS, C       ; Timed out?
                      04989         return                  ; Yes
                      04990       endif
0063   01A3           04991         clrf    R1 + 1          ; Find 10s
0064   300A           04992         movlw   10
0065   2068           04993         call    serout2ddig     ; Do the work
                      04994       ifdef SEROUT2TO_USED
                      04995         btfss   STATUS, C       ; Timed out?
                      04996         return                  ; Yes
                      04997       endif
0066   0824           04998         movf    R2, W           ; Get the 1s
MPASM  5.49                      SDCCON~1.ASM   7-1-2005  0:07:41         PAGE  7


LOC  OBJECT CODE     LINE SOURCE TEXT
  VALUE

0067   286F           04999         goto    SEROUT2SEND     ; Send the 1s and exit
                      05000 
0068   00A2           05001 serout2ddig movwf R1            ; Save last piece
0069   0825           05002         movf    R2 + 1, W       ; Move remainder to dividend
006A   00A1           05003         movwf   R0 + 1
006B   0824           05004         movf    R2, W
006C   00A0           05005         movwf   R0
006D   20E3           05006         call    DIV             ; Do the math
006E   0820           05007         movf    R0, W           ; Get the result
                      05008 ;       goto    SEROUT2SEND     ; Fall through
                      05015   LIST
006F   00A0           05016 SEROUT2SEND movwf R0            ; Save char for a moment
0070   03A8           05017         decf    R4, F           ; Bump down count while we're here
0071   1903           05018         btfsc   STATUS, Z       ; If last digit don't blank
0072   13B3           05019         bcf     GOP, 7
0073   0829           05020         movf    R4 + 1, W       ; Get number of digits to send
0074   1903           05021         btfsc   STATUS, Z       ; If zero digits...
0075   2879           05022         goto    serout2send1    ; ...Skip count compare
0076   0228           05023         subwf   R4, W           ; Send if within count
0077   1803           05024         btfsc   STATUS, C
0078   0008           05025         return
0079   0820           05026 serout2send1 movf R0, W         ; Get char back
                      05027       ifdef SEROUT2TO_USED
                      05028         bsf     STATUS, C       ; Set carry for no timeout in case of blanking
                      05029       endif
007A   1D03           05030         btfss   STATUS, Z       ; If char zero, goto blank check
007B   13B3           05031         bcf     GOP, 7          ; Not zero so clear blank
007C   1BB3           05032         btfsc   GOP, 7          ; If blanking on, don't send
007D   0008           05033         return
007E   3E30           05034         addlw   '0'             ; Add ASCII offset
007F   28FF           05035         goto    JUMPMAN         ; Send it
                      05822   LIST
0080                  05823 ADCIN
                      05824       if (GO_DONE == 2)
0080   00A0           05825         movwf   R0              ; Store channel for rotate
0081   0DA0           05826         rlf     R0, F           ; Move channel into proper position
0082   0DA0           05827         rlf     R0, F
0083   0D20           05828         rlf     R0, W
0084   3938           05829         andlw   038h            ; Mask channel
                      05830           ifdef CHS3
                      05831         btfsc   R0, 5           ; Check for channel > 7
                      05832         iorlw   2               ; Set CHS3
                      05833           endif
0085   38C1           05834         iorlw   (((ADC_CLOCK) & 3) << 6) | 1    ; Set up clock source and turn on ADC
                      05835       else                      ; (GO_DONE == 1)
                      05836         andlw   0fh             ; Mask channel
                      05837         movwf   R0              ; Store channel for rotate later
                      05838         bcf     STATUS, C       ; Clear carry for rotate
                      05839         rlf     R0, F           ; Move channel into proper position
                      05840         rlf     R0, F
                      05841         movf    ADCON0, W       ; Get current value
                      05842           ifdef CHS3
                      05843         andlw   0c0h            ; Remove channel bits, preserving possible clock select, Vref, formed
MPASM  5.49                      SDCCON~1.ASM   7-1-2005  0:07:41         PAGE  8


LOC  OBJECT CODE     LINE SOURCE TEXT
  VALUE

                      05844           else
                      05845         andlw   0e0h            ; Remove channel bits, preserving possible clock select, Vref, formed
                      05846           endif
                      05847         iorwf   R0, W           ; Put in channel
                      05848         iorlw   1               ; Turn on ADC
                      05849       endif
0086   009F           05850         movwf   ADCON0          ; Set up to start sampling
                      05851       if ((ADC_SAMPLEUS) != 0)
0087   3000           05852         movlw   (ADC_SAMPLEUS) >> 8     ; Get sample time
0088   00A1           05853         movwf   R0 + 1
0089   3032           05854         movlw   low (ADC_SAMPLEUS)
008A   20B7           05855         call    PAUSEUSL        ; Wait sample time
                      05856       endif
008B   151F           05857         bsf     ADCON0, GO_DONE ; Start conversion
008C   191F           05858 adcinloop btfsc ADCON0, GO_DONE ; Wait for conversion to complete
008D   288C           05859         goto    adcinloop
                      05860       if ((ADC_BITS) <= 8)
                      05861         clrf    R0 + 1
                      05862           ifdef ADRES
                      05863         movf    ADRES, W        ; Get 8-bit result
                      05864           else
                      05865         movf    ADRESH, W       ; Get 8-bit result
                      05866           endif
                      05867       else
008E   081E           05868         movf    ADRESH, W       ; Get 16-bit result
008F   00A1           05869         movwf   R0 + 1
0090   1683           05870         bsf     STATUS, RP0     ; Point to bank 1 (DONE will reset it)
0091   081E           05871         movf    ADRESL, W
                      05872       endif
0092   2904           05873         goto    DONE
                      05974   LIST
0093                  05975 READ
                      05976       if ((EEADR & 180h) == 000h)       ; For 16F8x
                      05977         movwf   EEADR           ; Set the EEPROM address
                      05978         bsf     STATUS, RP0     ; EECON1 in bank 1
                      05979         bsf     EECON1, RD      ; Read the EEPROM
                      05980         bcf     STATUS, RP0     ; EEDATA in bank 0
                      05981         movf    EEDATA, W       ; Get the data
                      05982         goto    DONE            ; Done
                      05983       endif
                      05984 
                      05985       if ((EEADR & 180h) == 080h)       ; For 16F62x, 12F62x, 12F67x
                      05986         bsf     STATUS, RP0     ; For EE in bank 1
                      05987         movwf   EEADR           ; Set the EEPROM address
                      05988         bsf     EECON1, RD      ; Read the EEPROM
                      05989         movf    EEDATA, W       ; Get the data
                      05990         goto    DONE            ; Done
                      05991       endif
                      05992 
                      05993       if ((EEADR & 180h) == 100h)       ; For 16F87x
0093   1703           05994         bsf     STATUS, RP1     ; For EE in bank 2 & 3
0094   008D           05995         movwf   EEADR           ; Set the EEPROM address
0095   1683           05996         bsf     STATUS, RP0     ; EECON1 in bank 3
MPASM  5.49                      SDCCON~1.ASM   7-1-2005  0:07:41         PAGE  9


LOC  OBJECT CODE     LINE SOURCE TEXT
  VALUE

0096   018C           05997         clrf    EECON1          ; Read from data memory
0097   140C           05998         bsf     EECON1, RD      ; Read the EEPROM
0098   1283           05999         bcf     STATUS, RP0     ; EEDATA in bank 2
0099   080C           06000         movf    EEDATA, W       ; Get the data
009A   2904           06001         goto    DONE            ; Done
                      06002       endif
                      06043   LIST
009B                  06044 WRITE
                      06045       if ((EEADR & 180h) == 000h)       ; For 16F8x
                      06046         movwf   EEDATA          ; Set the EEPROM data
                      06047         bsf     STATUS, RP0     ; EECON1, 2 in bank 1
                      06048       endif
                      06049 
                      06050       if ((EEADR & 180h) == 080h)       ; For 16F62x, 12F62x, 12F67x
                      06051         bsf     STATUS, RP0     ; For EE in bank 1
                      06052         movwf   EEDATA          ; Set the EEPROM data
                      06053       endif
                      06054 
                      06055       if ((EEADR & 180h) == 100h)       ; For 16F87x
009B   1703           06056         bsf     STATUS, RP1     ; For EE in bank 2 & 3
009C   008C           06057         movwf   EEDATA          ; Set the EEPROM data
009D   1683           06058         bsf     STATUS, RP0     ; EECON1, 2 in bank 3
009E   018C           06059         clrf    EECON1          ; Write to data memory
                      06060       endif
                      06061 
009F   150C           06062         bsf     EECON1, WREN
                      06063       ifdef WRITE_INT
                      06064         bcf     INTCON, GIE     ; Disable global interrupts
                      06065         btfsc   INTCON, GIE     ; See AN576
                      06066         goto    $ - 2
                      06067       endif      
00A0   3055           06068         movlw   55h             ; Unlock the door
00A1   008D           06069         movwf   EECON2
00A2   30AA           06070         movlw   0AAh
00A3   008D           06071         movwf   EECON2
00A4   148C           06072         bsf     EECON1, WR      ; Do the write
                      06073       ifdef WRITE_INT
                      06074         bsf     INTCON, GIE     ; Enable global interrupts
                      06075       endif      
00A5   188C           06076 writeloop btfsc EECON1, WR      ; Wait for the write to complete
00A6   28A5           06077         goto    writeloop
00A7   110C           06078         bcf     EECON1, WREN    ; Lock up when we're done
00A8   2904           06079         goto    DONE            ; Done
                      06158   LIST
00A9   01A3           06159 PAUSE   clrf    R1 + 1
00AA   00A2           06160 PAUSEL  movwf   R1
00AB   30FF           06161 pauseloop movlw -1              ; 1 (9)
00AC   07A2           06162         addwf   R1, F           ; 1
00AD   1C03           06163         btfss   STATUS, C       ; 1 / 2
00AE   07A3           06164         addwf   R1 + 1, F       ; 1 / 0
00AF   1C03           06165         btfss   STATUS, C       ; 2
00B0   2904           06166         goto    DONE
00B1   3003           06167         movlw   (PAUSE_DELAY) >> 8      ; 1
MPASM  5.49                      SDCCON~1.ASM   7-1-2005  0:07:41         PAGE 10


LOC  OBJECT CODE     LINE SOURCE TEXT
  VALUE

00B2   00A1           06168         movwf   R0 + 1          ; 1
00B3   30DF           06169         movlw   low (PAUSE_DELAY)       ; 1
00B4   20B7           06170         call    PAUSEUSL        ; -2 (PAUSEUSL gives you 2 less than you ask for)
00B5   28AB           06171         goto    pauseloop       ; 2
                      06215   LIST
00B6   01A1           06216 PAUSEUS clrf    R0 + 1          ; 1
00B7   3EE8           06217 PAUSEUSL addlw  -24             ; 1 Subtract overhead
00B8   00A0           06218         movwf   R0              ; 1
00B9   09A1           06219         comf    R0 + 1, F       ; 1
00BA   30FC           06220         movlw   -4              ; 1
00BB   1C03           06221         btfss   STATUS, C       ; 1 / 2
00BC   28C0           06222         goto    pauseush        ; 2 / 0
00BD   07A0           06223 pauseusloop addwf R0, F         ; 1
00BE   1803           06224         btfsc   STATUS, C       ; 1 / 2
00BF   28BD           06225         goto    pauseusloop     ; 2 / 0
00C0   07A0           06226 pauseush addwf  R0, F           ; 1 Do an extra countdown
                      06227         CLRWDT?NOP              ; 1 Keep Watchdog clear
                          M     ifndef NO_CLRWDT
00C1   0064               M         clrwdt
                          M     else
                          M         nop
                          M     endif
00C2   0FA1           06228         incfsz  R0 + 1, F       ; 1 / 2
00C3   28BD           06229         goto    pauseusloop     ; 2 / 0
00C4   1820           06230         btfsc   R0, 0           ; 1 / 2
00C5   28C6           06231         goto    $ + 1           ; 2 / 0 Burn an extra cycle
00C6   1CA0           06232         btfss   R0, 1           ; 1 / 2
00C7   28CA           06233         goto    pauseusdone     ; 2 / 0
00C8   0000           06234         nop                     ; 1
00C9   28CA           06235         goto    $ + 1           ; 2 Burn an extra 2 cycles
00CA   0008           06236 pauseusdone return              ; 2 + 3 (call + setup)
                      06920   LIST
00CB   01A3           06921 CMPGTW  clrf    R1 + 1
                      06927   LIST
00CC   00A2           06928 CMPGT   movwf   R1
00CD   3001           06929         movlw   1               ; Mask for >
00CE   28D3           06930         goto    CMP
                      06986   LIST
00CF   01A3           06987 CMPLTW  clrf    R1 + 1
                      06993   LIST
00D0   00A2           06994 CMPLT   movwf   R1
00D1   3004           06995         movlw   4               ; Mask for <
00D2   28D3           06996         goto    CMP
                      07045   LIST
00D3   00A8           07046 CMP     movwf   R4              ; Save compare state
00D4   0823           07047         movf    R1 + 1, W       ; Flags = MSB(R0) - MSB(R1)
00D5   0221           07048         subwf   R0 + 1, W
00D6   1D03           07049         btfss   STATUS, Z       ; If unequal then done
00D7   28DA           07050         goto    cmpnoteq
00D8   0822           07051         movf    R1, W           ; Flags = LSB(R0) - LSB(R1)
00D9   0220           07052         subwf   R0, W
00DA   3004           07053 cmpnoteq movlw  4               ; W = 4 if R0 < R1
00DB   1803           07054         btfsc   STATUS, C
MPASM  5.49                      SDCCON~1.ASM   7-1-2005  0:07:41         PAGE 11


LOC  OBJECT CODE     LINE SOURCE TEXT
  VALUE

00DC   3001           07055         movlw   1               ; W = 1 if R0 > R1
00DD   1903           07056         btfsc   STATUS, Z
00DE   3002           07057         movlw   2               ; W = 2 if R0 == R1
00DF   0528           07058         andwf   R4, W           ; Mask for compare state
00E0   1D03           07059         btfss   STATUS, Z
00E1   30FF           07060         movlw   -1
00E2   2904           07061         goto    DONE
                      07277   LIST
00E3   01A5           07278 DIV     clrf    R2 + 1
00E4   01A4           07279         clrf    R2
                      07280 
00E5   3010           07281 DIV32DIV movlw   16
00E6   00A6           07282         movwf   R3
                      07283 
00E7   0D21           07284 divloop rlf     R0 + 1, W
00E8   0DA4           07285         rlf     R2, F
00E9   0DA5           07286         rlf     R2 + 1, F
00EA   0822           07287         movf    R1, W
00EB   02A4           07288         subwf   R2, F
00EC   0823           07289         movf    R1 + 1, W
00ED   1C03           07290         btfss   STATUS, C
00EE   0F23           07291         incfsz  R1 + 1, W
00EF   02A5           07292         subwf   R2 + 1, F
                      07293 
00F0   1803           07294         btfsc   STATUS, C
00F1   28F9           07295         goto    divok
00F2   0822           07296         movf    R1, W
00F3   07A4           07297         addwf   R2, F
00F4   0823           07298         movf    R1 + 1, W
00F5   1803           07299         btfsc   STATUS, C
00F6   0F23           07300         incfsz  R1 + 1, W
00F7   07A5           07301         addwf   R2 + 1, F
                      07302 
00F8   1003           07303         bcf     STATUS, C
                      07304 
00F9   0DA0           07305 divok   rlf     R0, F
00FA   0DA1           07306         rlf     R0 + 1, F
                      07307 
00FB   0BA6           07308         decfsz  R3, F
00FC   28E7           07309         goto    divloop
00FD   0820           07310         movf    R0, W           ; Get low byte to W
00FE   2904           07311         goto    DONE
                      07403   LIST
00FF   0084           07404 JUMPMAN movwf   FSR
0100   0831           07405         movf    R8 + 1, W
0101   008A           07406         movwf   PCLATH
0102   0830           07407         movf    R8, W
0103   0082           07408         movwf   PCL
                      07422   LIST
0104   1383           07423 DONE    bcf     STATUS, IRP     ; 1 Set FSR to bank 0/1
0105   1303           07424         bcf     STATUS, RP1     ; 1 Show direct bank 0
0106   1283           07425         bcf     STATUS, RP0     ; 1
                      07426         CLRWDT?NOP              ; 1 Hit Watchdog timer
MPASM  5.49                      SDCCON~1.ASM   7-1-2005  0:07:41         PAGE 12


LOC  OBJECT CODE     LINE SOURCE TEXT
  VALUE

                          M     ifndef NO_CLRWDT
0107   0064               M         clrwdt
                          M     else
                          M         nop
                          M     endif
0108   0008           07427 DONERET return                  ; 2 Done
                      07451   LIST
0109                  07452 INIT
                      07490   LIST
0109                  07491 main
                      00080 
                      00081         MOVE?CB 001h, TRISA
                          M         CHK?RP  TRISA
                          M     if (((TRISA) & 180h) == 0)
                          M       if (PREV_BANK == 1)
                          M         bcf     STATUS, RP0
                          M       endif
                          M       if (PREV_BANK == 2)
                          M         bcf     STATUS, RP1
                          M       endif
                          M       if (PREV_BANK == 3)
                          M         bcf     STATUS, RP0
                          M         bcf     STATUS, RP1
                          M       endif
                          M PREV_BANK = 0
                          M     endif
                          M 
                          M     if (((TRISA) & 180h) == 80h)
                          M       if (PREV_BANK == 0)
0109   1683               M         bsf     STATUS, RP0
                          M       endif
                          M       if (PREV_BANK == 2)
                          M         bsf     STATUS, RP0
                          M         bcf     STATUS, RP1
                          M       endif
                          M       if (PREV_BANK == 3)
                          M         bcf     STATUS, RP1
                          M       endif
  00000001                M PREV_BANK = 1
                          M     endif
                          M 
                          M     if (((TRISA) & 180h) == 100h)
                          M       if (PREV_BANK == 0)
                          M         bsf     STATUS, RP1
                          M       endif
                          M       if (PREV_BANK == 1)
                          M         bcf     STATUS, RP0
                          M         bsf     STATUS, RP1
                          M       endif
                          M       if (PREV_BANK == 3)
                          M         bcf     STATUS, RP0
                          M       endif
                          M PREV_BANK = 2
MPASM  5.49                      SDCCON~1.ASM   7-1-2005  0:07:41         PAGE 13


LOC  OBJECT CODE     LINE SOURCE TEXT
  VALUE

                          M     endif
                          M 
                          M     if (((TRISA) & 180h) == 180h)
                          M       if (PREV_BANK == 0)
                          M         bsf     STATUS, RP0
                          M         bsf     STATUS, RP1
                          M       endif
                          M       if (PREV_BANK == 1)
                          M         bsf     STATUS, RP1
                          M       endif
                          M       if (PREV_BANK == 2)
                          M         bsf     STATUS, RP0
                          M       endif
                          M PREV_BANK = 3
                          M     endif
                          M     if (low (001h) == 0)
                          M         clrf    TRISA
                          M     else
010A   3001               M         movlw   low (001h)
010B   0085               M         movwf   TRISA
                          M     endif
                      00082         MOVE?CB 00Eh, ADCON1
                          M         CHK?RP  ADCON1
                          M     if (((ADCON1) & 180h) == 0)
                          M       if (PREV_BANK == 1)
                          M         bcf     STATUS, RP0
                          M       endif
                          M       if (PREV_BANK == 2)
                          M         bcf     STATUS, RP1
                          M       endif
                          M       if (PREV_BANK == 3)
                          M         bcf     STATUS, RP0
                          M         bcf     STATUS, RP1
                          M       endif
                          M PREV_BANK = 0
                          M     endif
                          M 
                          M     if (((ADCON1) & 180h) == 80h)
                          M       if (PREV_BANK == 0)
                          M         bsf     STATUS, RP0
                          M       endif
                          M       if (PREV_BANK == 2)
                          M         bsf     STATUS, RP0
                          M         bcf     STATUS, RP1
                          M       endif
                          M       if (PREV_BANK == 3)
                          M         bcf     STATUS, RP1
                          M       endif
  00000001                M PREV_BANK = 1
                          M     endif
                          M 
                          M     if (((ADCON1) & 180h) == 100h)
                          M       if (PREV_BANK == 0)
MPASM  5.49                      SDCCON~1.ASM   7-1-2005  0:07:41         PAGE 14


LOC  OBJECT CODE     LINE SOURCE TEXT
  VALUE

                          M         bsf     STATUS, RP1
                          M       endif
                          M       if (PREV_BANK == 1)
                          M         bcf     STATUS, RP0
                          M         bsf     STATUS, RP1
                          M       endif
                          M       if (PREV_BANK == 3)
                          M         bcf     STATUS, RP0
                          M       endif
                          M PREV_BANK = 2
                          M     endif
                          M 
                          M     if (((ADCON1) & 180h) == 180h)
                          M       if (PREV_BANK == 0)
                          M         bsf     STATUS, RP0
                          M         bsf     STATUS, RP1
                          M       endif
                          M       if (PREV_BANK == 1)
                          M         bsf     STATUS, RP1
                          M       endif
                          M       if (PREV_BANK == 2)
                          M         bsf     STATUS, RP0
                          M       endif
                          M PREV_BANK = 3
                          M     endif
                          M     if (low (00Eh) == 0)
                          M         clrf    ADCON1
                          M     else
010C   300E               M         movlw   low (00Eh)
010D   009F               M         movwf   ADCON1
                          M     endif
                      00083         MOVE?CB 0E0h, TRISD
                          M         CHK?RP  TRISD
                          M     if (((TRISD) & 180h) == 0)
                          M       if (PREV_BANK == 1)
                          M         bcf     STATUS, RP0
                          M       endif
                          M       if (PREV_BANK == 2)
                          M         bcf     STATUS, RP1
                          M       endif
                          M       if (PREV_BANK == 3)
                          M         bcf     STATUS, RP0
                          M         bcf     STATUS, RP1
                          M       endif
                          M PREV_BANK = 0
                          M     endif
                          M 
                          M     if (((TRISD) & 180h) == 80h)
                          M       if (PREV_BANK == 0)
                          M         bsf     STATUS, RP0
                          M       endif
                          M       if (PREV_BANK == 2)
                          M         bsf     STATUS, RP0
MPASM  5.49                      SDCCON~1.ASM   7-1-2005  0:07:41         PAGE 15


LOC  OBJECT CODE     LINE SOURCE TEXT
  VALUE

                          M         bcf     STATUS, RP1
                          M       endif
                          M       if (PREV_BANK == 3)
                          M         bcf     STATUS, RP1
                          M       endif
  00000001                M PREV_BANK = 1
                          M     endif
                          M 
                          M     if (((TRISD) & 180h) == 100h)
                          M       if (PREV_BANK == 0)
                          M         bsf     STATUS, RP1
                          M       endif
                          M       if (PREV_BANK == 1)
                          M         bcf     STATUS, RP0
                          M         bsf     STATUS, RP1
                          M       endif
                          M       if (PREV_BANK == 3)
                          M         bcf     STATUS, RP0
                          M       endif
                          M PREV_BANK = 2
                          M     endif
                          M 
                          M     if (((TRISD) & 180h) == 180h)
                          M       if (PREV_BANK == 0)
                          M         bsf     STATUS, RP0
                          M         bsf     STATUS, RP1
                          M       endif
                          M       if (PREV_BANK == 1)
                          M         bsf     STATUS, RP1
                          M       endif
                          M       if (PREV_BANK == 2)
                          M         bsf     STATUS, RP0
                          M       endif
                          M PREV_BANK = 3
                          M     endif
                          M     if (low (0E0h) == 0)
                          M         clrf    TRISD
                          M     else
010E   30E0               M         movlw   low (0E0h)
010F   0088               M         movwf   TRISD
                          M     endif
                      00084 
                      00085         LABEL?L _inicio 
                          M         RST?RP
                          M     if ((PREV_BANK & 1) != 0)
0110   1283               M         bcf     STATUS, RP0
                          M     endif
                          M     if ((PREV_BANK & 2) != 0)
                          M         bcf     STATUS, RP1
                          M     endif
  00000000                M PREV_BANK = 0
                          M     ifdef PM_USED
                          M         LALL
MPASM  5.49                      SDCCON~1.ASM   7-1-2005  0:07:41         PAGE 16


LOC  OBJECT CODE     LINE SOURCE TEXT
  VALUE

                          M _inicio
                          M         XALL
                          M     else
0111                      M _inicio
                          M     endif
                      00086         READ?CB 000h, _tempMin
                          M         MOVE?CA 000h
0111   3000               M         movlw   low (000h)
                          M         L?CALL  READ
                          M         RST?RP
                          M     if ((PREV_BANK & 1) != 0)
                          M         bcf     STATUS, RP0
                          M     endif
                          M     if ((PREV_BANK & 2) != 0)
                          M         bcf     STATUS, RP1
                          M     endif
  00000000                M PREV_BANK = 0
                          M 
                          M     if ((READ)  < 1)
                          M       if (CODE_SIZE >= 4)
                          M         if (((READ)  & 800h) == 0)
                          M         bcf     PCLATH, 3
                          M         else
                          M         bsf     PCLATH, 3
                          M         endif
                          M       endif
                          M       if (CODE_SIZE == 8)
                          M         if (((READ)  & 1000h) == 0)
                          M         bcf     PCLATH, 4
                          M         else
                          M         bsf     PCLATH, 4
                          M         endif
                          M       endif
                          M     else
                          M       if ((READ)  > $)
                          M         if (CODE_SIZE >= 4)
                          M           if (((READ)  & 800h) == 0)
                          M         bcf     PCLATH, 3
                          M           else
                          M         bsf     PCLATH, 3
                          M           endif
                          M         endif
                          M         if (CODE_SIZE == 8)
                          M           if (((READ)  & 1000h) == 0)
                          M         bcf     PCLATH, 4
                          M           else
                          M         bsf     PCLATH, 4
                          M           endif
                          M         endif
                          M       else
                          M         if (CODE_SIZE >= 4)
                          M           if (((READ)  & 1800h) == 0)
0112   018A               M         clrf    PCLATH
MPASM  5.49                      SDCCON~1.ASM   7-1-2005  0:07:41         PAGE 17


LOC  OBJECT CODE     LINE SOURCE TEXT
  VALUE

                          M           else
                          M             if (((READ)  & 800h) == 0)
                          M         bcf     PCLATH, 3
                          M             else
                          M         bsf     PCLATH, 3
                          M             endif
                          M             if (CODE_SIZE == 8)
                          M               if (((READ)  & 1000h) == 0)
                          M         bcf     PCLATH, 4
                          M               else
                          M         bsf     PCLATH, 4
                          M               endif
                          M             endif
                          M           endif
                          M         endif
                          M       endif
                          M     endif
                          M 
0113   2093               M         call    READ
                          M         MOVE?AB _tempMin
                          M         CHK?RP  _tempMin
                          M     if (((_tempMin) & 180h) == 0)
                          M       if (PREV_BANK == 1)
                          M         bcf     STATUS, RP0
                          M       endif
                          M       if (PREV_BANK == 2)
                          M         bcf     STATUS, RP1
                          M       endif
                          M       if (PREV_BANK == 3)
                          M         bcf     STATUS, RP0
                          M         bcf     STATUS, RP1
                          M       endif
  00000000                M PREV_BANK = 0
                          M     endif
                          M 
                          M     if (((_tempMin) & 180h) == 80h)
                          M       if (PREV_BANK == 0)
                          M         bsf     STATUS, RP0
                          M       endif
                          M       if (PREV_BANK == 2)
                          M         bsf     STATUS, RP0
                          M         bcf     STATUS, RP1
                          M       endif
                          M       if (PREV_BANK == 3)
                          M         bcf     STATUS, RP1
                          M       endif
                          M PREV_BANK = 1
                          M     endif
                          M 
                          M     if (((_tempMin) & 180h) == 100h)
                          M       if (PREV_BANK == 0)
                          M         bsf     STATUS, RP1
                          M       endif
MPASM  5.49                      SDCCON~1.ASM   7-1-2005  0:07:41         PAGE 18


LOC  OBJECT CODE     LINE SOURCE TEXT
  VALUE

                          M       if (PREV_BANK == 1)
                          M         bcf     STATUS, RP0
                          M         bsf     STATUS, RP1
                          M       endif
                          M       if (PREV_BANK == 3)
                          M         bcf     STATUS, RP0
                          M       endif
                          M PREV_BANK = 2
                          M     endif
                          M 
                          M     if (((_tempMin) & 180h) == 180h)
                          M       if (PREV_BANK == 0)
                          M         bsf     STATUS, RP0
                          M         bsf     STATUS, RP1
                          M       endif
                          M       if (PREV_BANK == 1)
                          M         bsf     STATUS, RP1
                          M       endif
                          M       if (PREV_BANK == 2)
                          M         bsf     STATUS, RP0
                          M       endif
                          M PREV_BANK = 3
                          M     endif
0114   00BB               M         movwf   _tempMin
                      00087         READ?CB 001h, _tempMax
                          M         MOVE?CA 001h
0115   3001               M         movlw   low (001h)
                          M         L?CALL  READ
                          M         RST?RP
                          M     if ((PREV_BANK & 1) != 0)
                          M         bcf     STATUS, RP0
                          M     endif
                          M     if ((PREV_BANK & 2) != 0)
                          M         bcf     STATUS, RP1
                          M     endif
  00000000                M PREV_BANK = 0
                          M 
                          M     if ((READ)  < 1)
                          M       if (CODE_SIZE >= 4)
                          M         if (((READ)  & 800h) == 0)
                          M         bcf     PCLATH, 3
                          M         else
                          M         bsf     PCLATH, 3
                          M         endif
                          M       endif
                          M       if (CODE_SIZE == 8)
                          M         if (((READ)  & 1000h) == 0)
                          M         bcf     PCLATH, 4
                          M         else
                          M         bsf     PCLATH, 4
                          M         endif
                          M       endif
                          M     else
MPASM  5.49                      SDCCON~1.ASM   7-1-2005  0:07:41         PAGE 19


LOC  OBJECT CODE     LINE SOURCE TEXT
  VALUE

                          M       if ((READ)  > $)
                          M         if (CODE_SIZE >= 4)
                          M           if (((READ)  & 800h) == 0)
                          M         bcf     PCLATH, 3
                          M           else
                          M         bsf     PCLATH, 3
                          M           endif
                          M         endif
                          M         if (CODE_SIZE == 8)
                          M           if (((READ)  & 1000h) == 0)
                          M         bcf     PCLATH, 4
                          M           else
                          M         bsf     PCLATH, 4
                          M           endif
                          M         endif
                          M       else
                          M         if (CODE_SIZE >= 4)
                          M           if (((READ)  & 1800h) == 0)
0116   018A               M         clrf    PCLATH
                          M           else
                          M             if (((READ)  & 800h) == 0)
                          M         bcf     PCLATH, 3
                          M             else
                          M         bsf     PCLATH, 3
                          M             endif
                          M             if (CODE_SIZE == 8)
                          M               if (((READ)  & 1000h) == 0)
                          M         bcf     PCLATH, 4
                          M               else
                          M         bsf     PCLATH, 4
                          M               endif
                          M             endif
                          M           endif
                          M         endif
                          M       endif
                          M     endif
                          M 
0117   2093               M         call    READ
                          M         MOVE?AB _tempMax
                          M         CHK?RP  _tempMax
                          M     if (((_tempMax) & 180h) == 0)
                          M       if (PREV_BANK == 1)
                          M         bcf     STATUS, RP0
                          M       endif
                          M       if (PREV_BANK == 2)
                          M         bcf     STATUS, RP1
                          M       endif
                          M       if (PREV_BANK == 3)
                          M         bcf     STATUS, RP0
                          M         bcf     STATUS, RP1
                          M       endif
  00000000                M PREV_BANK = 0
                          M     endif
MPASM  5.49                      SDCCON~1.ASM   7-1-2005  0:07:41         PAGE 20


LOC  OBJECT CODE     LINE SOURCE TEXT
  VALUE

                          M 
                          M     if (((_tempMax) & 180h) == 80h)
                          M       if (PREV_BANK == 0)
                          M         bsf     STATUS, RP0
                          M       endif
                          M       if (PREV_BANK == 2)
                          M         bsf     STATUS, RP0
                          M         bcf     STATUS, RP1
                          M       endif
                          M       if (PREV_BANK == 3)
                          M         bcf     STATUS, RP1
                          M       endif
                          M PREV_BANK = 1
                          M     endif
                          M 
                          M     if (((_tempMax) & 180h) == 100h)
                          M       if (PREV_BANK == 0)
                          M         bsf     STATUS, RP1
                          M       endif
                          M       if (PREV_BANK == 1)
                          M         bcf     STATUS, RP0
                          M         bsf     STATUS, RP1
                          M       endif
                          M       if (PREV_BANK == 3)
                          M         bcf     STATUS, RP0
                          M       endif
                          M PREV_BANK = 2
                          M     endif
                          M 
                          M     if (((_tempMax) & 180h) == 180h)
                          M       if (PREV_BANK == 0)
                          M         bsf     STATUS, RP0
                          M         bsf     STATUS, RP1
                          M       endif
                          M       if (PREV_BANK == 1)
                          M         bsf     STATUS, RP1
                          M       endif
                          M       if (PREV_BANK == 2)
                          M         bsf     STATUS, RP0
                          M       endif
                          M PREV_BANK = 3
                          M     endif
0118   00BA               M         movwf   _tempMax
                      00088 
                      00089         LABEL?L _sensar 
                          M         RST?RP
                          M     if ((PREV_BANK & 1) != 0)
                          M         bcf     STATUS, RP0
                          M     endif
                          M     if ((PREV_BANK & 2) != 0)
                          M         bcf     STATUS, RP1
                          M     endif
  00000000                M PREV_BANK = 0
MPASM  5.49                      SDCCON~1.ASM   7-1-2005  0:07:41         PAGE 21


LOC  OBJECT CODE     LINE SOURCE TEXT
  VALUE

                          M     ifdef PM_USED
                          M         LALL
                          M _sensar
                          M         XALL
                          M     else
0119                      M _sensar
                          M     endif
                      00090         ADCIN?CW        000h, _dato
0119   3000               M         movlw   000h
                          M         L?CALL  ADCIN
                          M         RST?RP
                          M     if ((PREV_BANK & 1) != 0)
                          M         bcf     STATUS, RP0
                          M     endif
                          M     if ((PREV_BANK & 2) != 0)
                          M         bcf     STATUS, RP1
                          M     endif
  00000000                M PREV_BANK = 0
                          M 
                          M     if ((ADCIN) < 1)
                          M       if (CODE_SIZE >= 4)
                          M         if (((ADCIN) & 800h) == 0)
                          M         bcf     PCLATH, 3
                          M         else
                          M         bsf     PCLATH, 3
                          M         endif
                          M       endif
                          M       if (CODE_SIZE == 8)
                          M         if (((ADCIN) & 1000h) == 0)
                          M         bcf     PCLATH, 4
                          M         else
                          M         bsf     PCLATH, 4
                          M         endif
                          M       endif
                          M     else
                          M       if ((ADCIN) > $)
                          M         if (CODE_SIZE >= 4)
                          M           if (((ADCIN) & 800h) == 0)
                          M         bcf     PCLATH, 3
                          M           else
                          M         bsf     PCLATH, 3
                          M           endif
                          M         endif
                          M         if (CODE_SIZE == 8)
                          M           if (((ADCIN) & 1000h) == 0)
                          M         bcf     PCLATH, 4
                          M           else
                          M         bsf     PCLATH, 4
                          M           endif
                          M         endif
                          M       else
                          M         if (CODE_SIZE >= 4)
                          M           if (((ADCIN) & 1800h) == 0)
MPASM  5.49                      SDCCON~1.ASM   7-1-2005  0:07:41         PAGE 22


LOC  OBJECT CODE     LINE SOURCE TEXT
  VALUE

011A   018A               M         clrf    PCLATH
                          M           else
                          M             if (((ADCIN) & 800h) == 0)
                          M         bcf     PCLATH, 3
                          M             else
                          M         bsf     PCLATH, 3
                          M             endif
                          M             if (CODE_SIZE == 8)
                          M               if (((ADCIN) & 1000h) == 0)
                          M         bcf     PCLATH, 4
                          M               else
                          M         bsf     PCLATH, 4
                          M               endif
                          M             endif
                          M           endif
                          M         endif
                          M       endif
                          M     endif
                          M 
011B   2080               M         call    ADCIN
                          M         MOVE?AWW R0, _dato
                          M         MOVE?AB _dato
                          M         CHK?RP  _dato
                          M     if (((_dato) & 180h) == 0)
                          M       if (PREV_BANK == 1)
                          M         bcf     STATUS, RP0
                          M       endif
                          M       if (PREV_BANK == 2)
                          M         bcf     STATUS, RP1
                          M       endif
                          M       if (PREV_BANK == 3)
                          M         bcf     STATUS, RP0
                          M         bcf     STATUS, RP1
                          M       endif
  00000000                M PREV_BANK = 0
                          M     endif
                          M 
                          M     if (((_dato) & 180h) == 80h)
                          M       if (PREV_BANK == 0)
                          M         bsf     STATUS, RP0
                          M       endif
                          M       if (PREV_BANK == 2)
                          M         bsf     STATUS, RP0
                          M         bcf     STATUS, RP1
                          M       endif
                          M       if (PREV_BANK == 3)
                          M         bcf     STATUS, RP1
                          M       endif
                          M PREV_BANK = 1
                          M     endif
                          M 
                          M     if (((_dato) & 180h) == 100h)
                          M       if (PREV_BANK == 0)
MPASM  5.49                      SDCCON~1.ASM   7-1-2005  0:07:41         PAGE 23


LOC  OBJECT CODE     LINE SOURCE TEXT
  VALUE

                          M         bsf     STATUS, RP1
                          M       endif
                          M       if (PREV_BANK == 1)
                          M         bcf     STATUS, RP0
                          M         bsf     STATUS, RP1
                          M       endif
                          M       if (PREV_BANK == 3)
                          M         bcf     STATUS, RP0
                          M       endif
                          M PREV_BANK = 2
                          M     endif
                          M 
                          M     if (((_dato) & 180h) == 180h)
                          M       if (PREV_BANK == 0)
                          M         bsf     STATUS, RP0
                          M         bsf     STATUS, RP1
                          M       endif
                          M       if (PREV_BANK == 1)
                          M         bsf     STATUS, RP1
                          M       endif
                          M       if (PREV_BANK == 2)
                          M         bsf     STATUS, RP0
                          M       endif
                          M PREV_BANK = 3
                          M     endif
011C   00B8               M         movwf   _dato
                          M         MOVE?BB (R0)  + 1, (_dato) + 1
                          M         CHK?RP  (R0) + 1
                          M     if ((((R0) + 1) & 180h) == 0)
                          M       if (PREV_BANK == 1)
                          M         bcf     STATUS, RP0
                          M       endif
                          M       if (PREV_BANK == 2)
                          M         bcf     STATUS, RP1
                          M       endif
                          M       if (PREV_BANK == 3)
                          M         bcf     STATUS, RP0
                          M         bcf     STATUS, RP1
                          M       endif
  00000000                M PREV_BANK = 0
                          M     endif
                          M 
                          M     if ((((R0) + 1) & 180h) == 80h)
                          M       if (PREV_BANK == 0)
                          M         bsf     STATUS, RP0
                          M       endif
                          M       if (PREV_BANK == 2)
                          M         bsf     STATUS, RP0
                          M         bcf     STATUS, RP1
                          M       endif
                          M       if (PREV_BANK == 3)
                          M         bcf     STATUS, RP1
                          M       endif
MPASM  5.49                      SDCCON~1.ASM   7-1-2005  0:07:41         PAGE 24


LOC  OBJECT CODE     LINE SOURCE TEXT
  VALUE

                          M PREV_BANK = 1
                          M     endif
                          M 
                          M     if ((((R0) + 1) & 180h) == 100h)
                          M       if (PREV_BANK == 0)
                          M         bsf     STATUS, RP1
                          M       endif
                          M       if (PREV_BANK == 1)
                          M         bcf     STATUS, RP0
                          M         bsf     STATUS, RP1
                          M       endif
                          M       if (PREV_BANK == 3)
                          M         bcf     STATUS, RP0
                          M       endif
                          M PREV_BANK = 2
                          M     endif
                          M 
                          M     if ((((R0) + 1) & 180h) == 180h)
                          M       if (PREV_BANK == 0)
                          M         bsf     STATUS, RP0
                          M         bsf     STATUS, RP1
                          M       endif
                          M       if (PREV_BANK == 1)
                          M         bsf     STATUS, RP1
                          M       endif
                          M       if (PREV_BANK == 2)
                          M         bsf     STATUS, RP0
                          M       endif
                          M PREV_BANK = 3
                          M     endif
011D   0821               M         movf    (R0) + 1, W
                          M         CHK?RP  (_dato) + 1
                          M     if ((((_dato) + 1) & 180h) == 0)
                          M       if (PREV_BANK == 1)
                          M         bcf     STATUS, RP0
                          M       endif
                          M       if (PREV_BANK == 2)
                          M         bcf     STATUS, RP1
                          M       endif
                          M       if (PREV_BANK == 3)
                          M         bcf     STATUS, RP0
                          M         bcf     STATUS, RP1
                          M       endif
  00000000                M PREV_BANK = 0
                          M     endif
                          M 
                          M     if ((((_dato) + 1) & 180h) == 80h)
                          M       if (PREV_BANK == 0)
                          M         bsf     STATUS, RP0
                          M       endif
                          M       if (PREV_BANK == 2)
                          M         bsf     STATUS, RP0
                          M         bcf     STATUS, RP1
MPASM  5.49                      SDCCON~1.ASM   7-1-2005  0:07:41         PAGE 25


LOC  OBJECT CODE     LINE SOURCE TEXT
  VALUE

                          M       endif
                          M       if (PREV_BANK == 3)
                          M         bcf     STATUS, RP1
                          M       endif
                          M PREV_BANK = 1
                          M     endif
                          M 
                          M     if ((((_dato) + 1) & 180h) == 100h)
                          M       if (PREV_BANK == 0)
                          M         bsf     STATUS, RP1
                          M       endif
                          M       if (PREV_BANK == 1)
                          M         bcf     STATUS, RP0
                          M         bsf     STATUS, RP1
                          M       endif
                          M       if (PREV_BANK == 3)
                          M         bcf     STATUS, RP0
                          M       endif
                          M PREV_BANK = 2
                          M     endif
                          M 
                          M     if ((((_dato) + 1) & 180h) == 180h)
                          M       if (PREV_BANK == 0)
                          M         bsf     STATUS, RP0
                          M         bsf     STATUS, RP1
                          M       endif
                          M       if (PREV_BANK == 1)
                          M         bsf     STATUS, RP1
                          M       endif
                          M       if (PREV_BANK == 2)
                          M         bsf     STATUS, RP0
                          M       endif
                          M PREV_BANK = 3
                          M     endif
011E   00B9               M         movwf   (_dato) + 1
                      00091         LCDOUT?C        0FEh
011F   30FE               M         movlw   0FEh
                          M         L?CALL  LCDOUT
                          M         RST?RP
                          M     if ((PREV_BANK & 1) != 0)
                          M         bcf     STATUS, RP0
                          M     endif
                          M     if ((PREV_BANK & 2) != 0)
                          M         bcf     STATUS, RP1
                          M     endif
  00000000                M PREV_BANK = 0
                          M 
                          M     if ((LCDOUT) < 1)
                          M       if (CODE_SIZE >= 4)
                          M         if (((LCDOUT) & 800h) == 0)
                          M         bcf     PCLATH, 3
                          M         else
                          M         bsf     PCLATH, 3
MPASM  5.49                      SDCCON~1.ASM   7-1-2005  0:07:41         PAGE 26


LOC  OBJECT CODE     LINE SOURCE TEXT
  VALUE

                          M         endif
                          M       endif
                          M       if (CODE_SIZE == 8)
                          M         if (((LCDOUT) & 1000h) == 0)
                          M         bcf     PCLATH, 4
                          M         else
                          M         bsf     PCLATH, 4
                          M         endif
                          M       endif
                          M     else
                          M       if ((LCDOUT) > $)
                          M         if (CODE_SIZE >= 4)
                          M           if (((LCDOUT) & 800h) == 0)
                          M         bcf     PCLATH, 3
                          M           else
                          M         bsf     PCLATH, 3
                          M           endif
                          M         endif
                          M         if (CODE_SIZE == 8)
                          M           if (((LCDOUT) & 1000h) == 0)
                          M         bcf     PCLATH, 4
                          M           else
                          M         bsf     PCLATH, 4
                          M           endif
                          M         endif
                          M       else
                          M         if (CODE_SIZE >= 4)
                          M           if (((LCDOUT) & 1800h) == 0)
0120   018A               M         clrf    PCLATH
                          M           else
                          M             if (((LCDOUT) & 800h) == 0)
                          M         bcf     PCLATH, 3
                          M             else
                          M         bsf     PCLATH, 3
                          M             endif
                          M             if (CODE_SIZE == 8)
                          M               if (((LCDOUT) & 1000h) == 0)
                          M         bcf     PCLATH, 4
                          M               else
                          M         bsf     PCLATH, 4
                          M               endif
                          M             endif
                          M           endif
                          M         endif
                          M       endif
                          M     endif
                          M 
0121   2003               M         call    LCDOUT
                      00092         LCDOUT?C        001h
0122   3001               M         movlw   001h
                          M         L?CALL  LCDOUT
                          M         RST?RP
                          M     if ((PREV_BANK & 1) != 0)
MPASM  5.49                      SDCCON~1.ASM   7-1-2005  0:07:41         PAGE 27


LOC  OBJECT CODE     LINE SOURCE TEXT
  VALUE

                          M         bcf     STATUS, RP0
                          M     endif
                          M     if ((PREV_BANK & 2) != 0)
                          M         bcf     STATUS, RP1
                          M     endif
  00000000                M PREV_BANK = 0
                          M 
                          M     if ((LCDOUT) < 1)
                          M       if (CODE_SIZE >= 4)
                          M         if (((LCDOUT) & 800h) == 0)
                          M         bcf     PCLATH, 3
                          M         else
                          M         bsf     PCLATH, 3
                          M         endif
                          M       endif
                          M       if (CODE_SIZE == 8)
                          M         if (((LCDOUT) & 1000h) == 0)
                          M         bcf     PCLATH, 4
                          M         else
                          M         bsf     PCLATH, 4
                          M         endif
                          M       endif
                          M     else
                          M       if ((LCDOUT) > $)
                          M         if (CODE_SIZE >= 4)
                          M           if (((LCDOUT) & 800h) == 0)
                          M         bcf     PCLATH, 3
                          M           else
                          M         bsf     PCLATH, 3
                          M           endif
                          M         endif
                          M         if (CODE_SIZE == 8)
                          M           if (((LCDOUT) & 1000h) == 0)
                          M         bcf     PCLATH, 4
                          M           else
                          M         bsf     PCLATH, 4
                          M           endif
                          M         endif
                          M       else
                          M         if (CODE_SIZE >= 4)
                          M           if (((LCDOUT) & 1800h) == 0)
0123   018A               M         clrf    PCLATH
                          M           else
                          M             if (((LCDOUT) & 800h) == 0)
                          M         bcf     PCLATH, 3
                          M             else
                          M         bsf     PCLATH, 3
                          M             endif
                          M             if (CODE_SIZE == 8)
                          M               if (((LCDOUT) & 1000h) == 0)
                          M         bcf     PCLATH, 4
                          M               else
                          M         bsf     PCLATH, 4
MPASM  5.49                      SDCCON~1.ASM   7-1-2005  0:07:41         PAGE 28


LOC  OBJECT CODE     LINE SOURCE TEXT
  VALUE

                          M               endif
                          M             endif
                          M           endif
                          M         endif
                          M       endif
                          M     endif
                          M 
0124   2003               M         call    LCDOUT
                      00093         LCDOUT?C        0FEh
0125   30FE               M         movlw   0FEh
                          M         L?CALL  LCDOUT
                          M         RST?RP
                          M     if ((PREV_BANK & 1) != 0)
                          M         bcf     STATUS, RP0
                          M     endif
                          M     if ((PREV_BANK & 2) != 0)
                          M         bcf     STATUS, RP1
                          M     endif
  00000000                M PREV_BANK = 0
                          M 
                          M     if ((LCDOUT) < 1)
                          M       if (CODE_SIZE >= 4)
                          M         if (((LCDOUT) & 800h) == 0)
                          M         bcf     PCLATH, 3
                          M         else
                          M         bsf     PCLATH, 3
                          M         endif
                          M       endif
                          M       if (CODE_SIZE == 8)
                          M         if (((LCDOUT) & 1000h) == 0)
                          M         bcf     PCLATH, 4
                          M         else
                          M         bsf     PCLATH, 4
                          M         endif
                          M       endif
                          M     else
                          M       if ((LCDOUT) > $)
                          M         if (CODE_SIZE >= 4)
                          M           if (((LCDOUT) & 800h) == 0)
                          M         bcf     PCLATH, 3
                          M           else
                          M         bsf     PCLATH, 3
                          M           endif
                          M         endif
                          M         if (CODE_SIZE == 8)
                          M           if (((LCDOUT) & 1000h) == 0)
                          M         bcf     PCLATH, 4
                          M           else
                          M         bsf     PCLATH, 4
                          M           endif
                          M         endif
                          M       else
                          M         if (CODE_SIZE >= 4)
MPASM  5.49                      SDCCON~1.ASM   7-1-2005  0:07:41         PAGE 29


LOC  OBJECT CODE     LINE SOURCE TEXT
  VALUE

                          M           if (((LCDOUT) & 1800h) == 0)
0126   018A               M         clrf    PCLATH
                          M           else
                          M             if (((LCDOUT) & 800h) == 0)
                          M         bcf     PCLATH, 3
                          M             else
                          M         bsf     PCLATH, 3
                          M             endif
                          M             if (CODE_SIZE == 8)
                          M               if (((LCDOUT) & 1000h) == 0)
                          M         bcf     PCLATH, 4
                          M               else
                          M         bsf     PCLATH, 4
                          M               endif
                          M             endif
                          M           endif
                          M         endif
                          M       endif
                          M     endif
                          M 
0127   2003               M         call    LCDOUT
                      00094         LCDOUT?C        002h
0128   3002               M         movlw   002h
                          M         L?CALL  LCDOUT
                          M         RST?RP
                          M     if ((PREV_BANK & 1) != 0)
                          M         bcf     STATUS, RP0
                          M     endif
                          M     if ((PREV_BANK & 2) != 0)
                          M         bcf     STATUS, RP1
                          M     endif
  00000000                M PREV_BANK = 0
                          M 
                          M     if ((LCDOUT) < 1)
                          M       if (CODE_SIZE >= 4)
                          M         if (((LCDOUT) & 800h) == 0)
                          M         bcf     PCLATH, 3
                          M         else
                          M         bsf     PCLATH, 3
                          M         endif
                          M       endif
                          M       if (CODE_SIZE == 8)
                          M         if (((LCDOUT) & 1000h) == 0)
                          M         bcf     PCLATH, 4
                          M         else
                          M         bsf     PCLATH, 4
                          M         endif
                          M       endif
                          M     else
                          M       if ((LCDOUT) > $)
                          M         if (CODE_SIZE >= 4)
                          M           if (((LCDOUT) & 800h) == 0)
                          M         bcf     PCLATH, 3
MPASM  5.49                      SDCCON~1.ASM   7-1-2005  0:07:41         PAGE 30


LOC  OBJECT CODE     LINE SOURCE TEXT
  VALUE

                          M           else
                          M         bsf     PCLATH, 3
                          M           endif
                          M         endif
                          M         if (CODE_SIZE == 8)
                          M           if (((LCDOUT) & 1000h) == 0)
                          M         bcf     PCLATH, 4
                          M           else
                          M         bsf     PCLATH, 4
                          M           endif
                          M         endif
                          M       else
                          M         if (CODE_SIZE >= 4)
                          M           if (((LCDOUT) & 1800h) == 0)
0129   018A               M         clrf    PCLATH
                          M           else
                          M             if (((LCDOUT) & 800h) == 0)
                          M         bcf     PCLATH, 3
                          M             else
                          M         bsf     PCLATH, 3
                          M             endif
                          M             if (CODE_SIZE == 8)
                          M               if (((LCDOUT) & 1000h) == 0)
                          M         bcf     PCLATH, 4
                          M               else
                          M         bsf     PCLATH, 4
                          M               endif
                          M             endif
                          M           endif
                          M         endif
                          M       endif
                          M     endif
                          M 
012A   2003               M         call    LCDOUT
                      00095         LCDOUT?C        054h
012B   3054               M         movlw   054h
                          M         L?CALL  LCDOUT
                          M         RST?RP
                          M     if ((PREV_BANK & 1) != 0)
                          M         bcf     STATUS, RP0
                          M     endif
                          M     if ((PREV_BANK & 2) != 0)
                          M         bcf     STATUS, RP1
                          M     endif
  00000000                M PREV_BANK = 0
                          M 
                          M     if ((LCDOUT) < 1)
                          M       if (CODE_SIZE >= 4)
                          M         if (((LCDOUT) & 800h) == 0)
                          M         bcf     PCLATH, 3
                          M         else
                          M         bsf     PCLATH, 3
                          M         endif
MPASM  5.49                      SDCCON~1.ASM   7-1-2005  0:07:41         PAGE 31


LOC  OBJECT CODE     LINE SOURCE TEXT
  VALUE

                          M       endif
                          M       if (CODE_SIZE == 8)
                          M         if (((LCDOUT) & 1000h) == 0)
                          M         bcf     PCLATH, 4
                          M         else
                          M         bsf     PCLATH, 4
                          M         endif
                          M       endif
                          M     else
                          M       if ((LCDOUT) > $)
                          M         if (CODE_SIZE >= 4)
                          M           if (((LCDOUT) & 800h) == 0)
                          M         bcf     PCLATH, 3
                          M           else
                          M         bsf     PCLATH, 3
                          M           endif
                          M         endif
                          M         if (CODE_SIZE == 8)
                          M           if (((LCDOUT) & 1000h) == 0)
                          M         bcf     PCLATH, 4
                          M           else
                          M         bsf     PCLATH, 4
                          M           endif
                          M         endif
                          M       else
                          M         if (CODE_SIZE >= 4)
                          M           if (((LCDOUT) & 1800h) == 0)
012C   018A               M         clrf    PCLATH
                          M           else
                          M             if (((LCDOUT) & 800h) == 0)
                          M         bcf     PCLATH, 3
                          M             else
                          M         bsf     PCLATH, 3
                          M             endif
                          M             if (CODE_SIZE == 8)
                          M               if (((LCDOUT) & 1000h) == 0)
                          M         bcf     PCLATH, 4
                          M               else
                          M         bsf     PCLATH, 4
                          M               endif
                          M             endif
                          M           endif
                          M         endif
                          M       endif
                          M     endif
                          M 
012D   2003               M         call    LCDOUT
                      00096         LCDOUT?C        02Eh
012E   302E               M         movlw   02Eh
                          M         L?CALL  LCDOUT
                          M         RST?RP
                          M     if ((PREV_BANK & 1) != 0)
                          M         bcf     STATUS, RP0
MPASM  5.49                      SDCCON~1.ASM   7-1-2005  0:07:41         PAGE 32


LOC  OBJECT CODE     LINE SOURCE TEXT
  VALUE

                          M     endif
                          M     if ((PREV_BANK & 2) != 0)
                          M         bcf     STATUS, RP1
                          M     endif
  00000000                M PREV_BANK = 0
                          M 
                          M     if ((LCDOUT) < 1)
                          M       if (CODE_SIZE >= 4)
                          M         if (((LCDOUT) & 800h) == 0)
                          M         bcf     PCLATH, 3
                          M         else
                          M         bsf     PCLATH, 3
                          M         endif
                          M       endif
                          M       if (CODE_SIZE == 8)
                          M         if (((LCDOUT) & 1000h) == 0)
                          M         bcf     PCLATH, 4
                          M         else
                          M         bsf     PCLATH, 4
                          M         endif
                          M       endif
                          M     else
                          M       if ((LCDOUT) > $)
                          M         if (CODE_SIZE >= 4)
                          M           if (((LCDOUT) & 800h) == 0)
                          M         bcf     PCLATH, 3
                          M           else
                          M         bsf     PCLATH, 3
                          M           endif
                          M         endif
                          M         if (CODE_SIZE == 8)
                          M           if (((LCDOUT) & 1000h) == 0)
                          M         bcf     PCLATH, 4
                          M           else
                          M         bsf     PCLATH, 4
                          M           endif
                          M         endif
                          M       else
                          M         if (CODE_SIZE >= 4)
                          M           if (((LCDOUT) & 1800h) == 0)
012F   018A               M         clrf    PCLATH
                          M           else
                          M             if (((LCDOUT) & 800h) == 0)
                          M         bcf     PCLATH, 3
                          M             else
                          M         bsf     PCLATH, 3
                          M             endif
                          M             if (CODE_SIZE == 8)
                          M               if (((LCDOUT) & 1000h) == 0)
                          M         bcf     PCLATH, 4
                          M               else
                          M         bsf     PCLATH, 4
                          M               endif
MPASM  5.49                      SDCCON~1.ASM   7-1-2005  0:07:41         PAGE 33


LOC  OBJECT CODE     LINE SOURCE TEXT
  VALUE

                          M             endif
                          M           endif
                          M         endif
                          M       endif
                          M     endif
                          M 
0130   2003               M         call    LCDOUT
                      00097         LCDOUT?C        04Dh
0131   304D               M         movlw   04Dh
                          M         L?CALL  LCDOUT
                          M         RST?RP
                          M     if ((PREV_BANK & 1) != 0)
                          M         bcf     STATUS, RP0
                          M     endif
                          M     if ((PREV_BANK & 2) != 0)
                          M         bcf     STATUS, RP1
                          M     endif
  00000000                M PREV_BANK = 0
                          M 
                          M     if ((LCDOUT) < 1)
                          M       if (CODE_SIZE >= 4)
                          M         if (((LCDOUT) & 800h) == 0)
                          M         bcf     PCLATH, 3
                          M         else
                          M         bsf     PCLATH, 3
                          M         endif
                          M       endif
                          M       if (CODE_SIZE == 8)
                          M         if (((LCDOUT) & 1000h) == 0)
                          M         bcf     PCLATH, 4
                          M         else
                          M         bsf     PCLATH, 4
                          M         endif
                          M       endif
                          M     else
                          M       if ((LCDOUT) > $)
                          M         if (CODE_SIZE >= 4)
                          M           if (((LCDOUT) & 800h) == 0)
                          M         bcf     PCLATH, 3
                          M           else
                          M         bsf     PCLATH, 3
                          M           endif
                          M         endif
                          M         if (CODE_SIZE == 8)
                          M           if (((LCDOUT) & 1000h) == 0)
                          M         bcf     PCLATH, 4
                          M           else
                          M         bsf     PCLATH, 4
                          M           endif
                          M         endif
                          M       else
                          M         if (CODE_SIZE >= 4)
                          M           if (((LCDOUT) & 1800h) == 0)
MPASM  5.49                      SDCCON~1.ASM   7-1-2005  0:07:41         PAGE 34


LOC  OBJECT CODE     LINE SOURCE TEXT
  VALUE

0132   018A               M         clrf    PCLATH
                          M           else
                          M             if (((LCDOUT) & 800h) == 0)
                          M         bcf     PCLATH, 3
                          M             else
                          M         bsf     PCLATH, 3
                          M             endif
                          M             if (CODE_SIZE == 8)
                          M               if (((LCDOUT) & 1000h) == 0)
                          M         bcf     PCLATH, 4
                          M               else
                          M         bsf     PCLATH, 4
                          M               endif
                          M             endif
                          M           endif
                          M         endif
                          M       endif
                          M     endif
                          M 
0133   2003               M         call    LCDOUT
                      00098         LCDOUT?C        049h
0134   3049               M         movlw   049h
                          M         L?CALL  LCDOUT
                          M         RST?RP
                          M     if ((PREV_BANK & 1) != 0)
                          M         bcf     STATUS, RP0
                          M     endif
                          M     if ((PREV_BANK & 2) != 0)
                          M         bcf     STATUS, RP1
                          M     endif
  00000000                M PREV_BANK = 0
                          M 
                          M     if ((LCDOUT) < 1)
                          M       if (CODE_SIZE >= 4)
                          M         if (((LCDOUT) & 800h) == 0)
                          M         bcf     PCLATH, 3
                          M         else
                          M         bsf     PCLATH, 3
                          M         endif
                          M       endif
                          M       if (CODE_SIZE == 8)
                          M         if (((LCDOUT) & 1000h) == 0)
                          M         bcf     PCLATH, 4
                          M         else
                          M         bsf     PCLATH, 4
                          M         endif
                          M       endif
                          M     else
                          M       if ((LCDOUT) > $)
                          M         if (CODE_SIZE >= 4)
                          M           if (((LCDOUT) & 800h) == 0)
                          M         bcf     PCLATH, 3
                          M           else
MPASM  5.49                      SDCCON~1.ASM   7-1-2005  0:07:41         PAGE 35


LOC  OBJECT CODE     LINE SOURCE TEXT
  VALUE

                          M         bsf     PCLATH, 3
                          M           endif
                          M         endif
                          M         if (CODE_SIZE == 8)
                          M           if (((LCDOUT) & 1000h) == 0)
                          M         bcf     PCLATH, 4
                          M           else
                          M         bsf     PCLATH, 4
                          M           endif
                          M         endif
                          M       else
                          M         if (CODE_SIZE >= 4)
                          M           if (((LCDOUT) & 1800h) == 0)
0135   018A               M         clrf    PCLATH
                          M           else
                          M             if (((LCDOUT) & 800h) == 0)
                          M         bcf     PCLATH, 3
                          M             else
                          M         bsf     PCLATH, 3
                          M             endif
                          M             if (CODE_SIZE == 8)
                          M               if (((LCDOUT) & 1000h) == 0)
                          M         bcf     PCLATH, 4
                          M               else
                          M         bsf     PCLATH, 4
                          M               endif
                          M             endif
                          M           endif
                          M         endif
                          M       endif
                          M     endif
                          M 
0136   2003               M         call    LCDOUT
                      00099         LCDOUT?C        04Eh
0137   304E               M         movlw   04Eh
                          M         L?CALL  LCDOUT
                          M         RST?RP
                          M     if ((PREV_BANK & 1) != 0)
                          M         bcf     STATUS, RP0
                          M     endif
                          M     if ((PREV_BANK & 2) != 0)
                          M         bcf     STATUS, RP1
                          M     endif
  00000000                M PREV_BANK = 0
                          M 
                          M     if ((LCDOUT) < 1)
                          M       if (CODE_SIZE >= 4)
                          M         if (((LCDOUT) & 800h) == 0)
                          M         bcf     PCLATH, 3
                          M         else
                          M         bsf     PCLATH, 3
                          M         endif
                          M       endif
MPASM  5.49                      SDCCON~1.ASM   7-1-2005  0:07:41         PAGE 36


LOC  OBJECT CODE     LINE SOURCE TEXT
  VALUE

                          M       if (CODE_SIZE == 8)
                          M         if (((LCDOUT) & 1000h) == 0)
                          M         bcf     PCLATH, 4
                          M         else
                          M         bsf     PCLATH, 4
                          M         endif
                          M       endif
                          M     else
                          M       if ((LCDOUT) > $)
                          M         if (CODE_SIZE >= 4)
                          M           if (((LCDOUT) & 800h) == 0)
                          M         bcf     PCLATH, 3
                          M           else
                          M         bsf     PCLATH, 3
                          M           endif
                          M         endif
                          M         if (CODE_SIZE == 8)
                          M           if (((LCDOUT) & 1000h) == 0)
                          M         bcf     PCLATH, 4
                          M           else
                          M         bsf     PCLATH, 4
                          M           endif
                          M         endif
                          M       else
                          M         if (CODE_SIZE >= 4)
                          M           if (((LCDOUT) & 1800h) == 0)
0138   018A               M         clrf    PCLATH
                          M           else
                          M             if (((LCDOUT) & 800h) == 0)
                          M         bcf     PCLATH, 3
                          M             else
                          M         bsf     PCLATH, 3
                          M             endif
                          M             if (CODE_SIZE == 8)
                          M               if (((LCDOUT) & 1000h) == 0)
                          M         bcf     PCLATH, 4
                          M               else
                          M         bsf     PCLATH, 4
                          M               endif
                          M             endif
                          M           endif
                          M         endif
                          M       endif
                          M     endif
                          M 
0139   2003               M         call    LCDOUT
                      00100         LCDOUT?C        020h
013A   3020               M         movlw   020h
                          M         L?CALL  LCDOUT
                          M         RST?RP
                          M     if ((PREV_BANK & 1) != 0)
                          M         bcf     STATUS, RP0
                          M     endif
MPASM  5.49                      SDCCON~1.ASM   7-1-2005  0:07:41         PAGE 37


LOC  OBJECT CODE     LINE SOURCE TEXT
  VALUE

                          M     if ((PREV_BANK & 2) != 0)
                          M         bcf     STATUS, RP1
                          M     endif
  00000000                M PREV_BANK = 0
                          M 
                          M     if ((LCDOUT) < 1)
                          M       if (CODE_SIZE >= 4)
                          M         if (((LCDOUT) & 800h) == 0)
                          M         bcf     PCLATH, 3
                          M         else
                          M         bsf     PCLATH, 3
                          M         endif
                          M       endif
                          M       if (CODE_SIZE == 8)
                          M         if (((LCDOUT) & 1000h) == 0)
                          M         bcf     PCLATH, 4
                          M         else
                          M         bsf     PCLATH, 4
                          M         endif
                          M       endif
                          M     else
                          M       if ((LCDOUT) > $)
                          M         if (CODE_SIZE >= 4)
                          M           if (((LCDOUT) & 800h) == 0)
                          M         bcf     PCLATH, 3
                          M           else
                          M         bsf     PCLATH, 3
                          M           endif
                          M         endif
                          M         if (CODE_SIZE == 8)
                          M           if (((LCDOUT) & 1000h) == 0)
                          M         bcf     PCLATH, 4
                          M           else
                          M         bsf     PCLATH, 4
                          M           endif
                          M         endif
                          M       else
                          M         if (CODE_SIZE >= 4)
                          M           if (((LCDOUT) & 1800h) == 0)
013B   018A               M         clrf    PCLATH
                          M           else
                          M             if (((LCDOUT) & 800h) == 0)
                          M         bcf     PCLATH, 3
                          M             else
                          M         bsf     PCLATH, 3
                          M             endif
                          M             if (CODE_SIZE == 8)
                          M               if (((LCDOUT) & 1000h) == 0)
                          M         bcf     PCLATH, 4
                          M               else
                          M         bsf     PCLATH, 4
                          M               endif
                          M             endif
MPASM  5.49                      SDCCON~1.ASM   7-1-2005  0:07:41         PAGE 38


LOC  OBJECT CODE     LINE SOURCE TEXT
  VALUE

                          M           endif
                          M         endif
                          M       endif
                          M     endif
                          M 
013C   2003               M         call    LCDOUT
                      00101         LCDOUT?C        054h
013D   3054               M         movlw   054h
                          M         L?CALL  LCDOUT
                          M         RST?RP
                          M     if ((PREV_BANK & 1) != 0)
                          M         bcf     STATUS, RP0
                          M     endif
                          M     if ((PREV_BANK & 2) != 0)
                          M         bcf     STATUS, RP1
                          M     endif
  00000000                M PREV_BANK = 0
                          M 
                          M     if ((LCDOUT) < 1)
                          M       if (CODE_SIZE >= 4)
                          M         if (((LCDOUT) & 800h) == 0)
                          M         bcf     PCLATH, 3
                          M         else
                          M         bsf     PCLATH, 3
                          M         endif
                          M       endif
                          M       if (CODE_SIZE == 8)
                          M         if (((LCDOUT) & 1000h) == 0)
                          M         bcf     PCLATH, 4
                          M         else
                          M         bsf     PCLATH, 4
                          M         endif
                          M       endif
                          M     else
                          M       if ((LCDOUT) > $)
                          M         if (CODE_SIZE >= 4)
                          M           if (((LCDOUT) & 800h) == 0)
                          M         bcf     PCLATH, 3
                          M           else
                          M         bsf     PCLATH, 3
                          M           endif
                          M         endif
                          M         if (CODE_SIZE == 8)
                          M           if (((LCDOUT) & 1000h) == 0)
                          M         bcf     PCLATH, 4
                          M           else
                          M         bsf     PCLATH, 4
                          M           endif
                          M         endif
                          M       else
                          M         if (CODE_SIZE >= 4)
                          M           if (((LCDOUT) & 1800h) == 0)
013E   018A               M         clrf    PCLATH
MPASM  5.49                      SDCCON~1.ASM   7-1-2005  0:07:41         PAGE 39


LOC  OBJECT CODE     LINE SOURCE TEXT
  VALUE

                          M           else
                          M             if (((LCDOUT) & 800h) == 0)
                          M         bcf     PCLATH, 3
                          M             else
                          M         bsf     PCLATH, 3
                          M             endif
                          M             if (CODE_SIZE == 8)
                          M               if (((LCDOUT) & 1000h) == 0)
                          M         bcf     PCLATH, 4
                          M               else
                          M         bsf     PCLATH, 4
                          M               endif
                          M             endif
                          M           endif
                          M         endif
                          M       endif
                          M     endif
                          M 
013F   2003               M         call    LCDOUT
                      00102         LCDOUT?C        02Eh
0140   302E               M         movlw   02Eh
                          M         L?CALL  LCDOUT
                          M         RST?RP
                          M     if ((PREV_BANK & 1) != 0)
                          M         bcf     STATUS, RP0
                          M     endif
                          M     if ((PREV_BANK & 2) != 0)
                          M         bcf     STATUS, RP1
                          M     endif
  00000000                M PREV_BANK = 0
                          M 
                          M     if ((LCDOUT) < 1)
                          M       if (CODE_SIZE >= 4)
                          M         if (((LCDOUT) & 800h) == 0)
                          M         bcf     PCLATH, 3
                          M         else
                          M         bsf     PCLATH, 3
                          M         endif
                          M       endif
                          M       if (CODE_SIZE == 8)
                          M         if (((LCDOUT) & 1000h) == 0)
                          M         bcf     PCLATH, 4
                          M         else
                          M         bsf     PCLATH, 4
                          M         endif
                          M       endif
                          M     else
                          M       if ((LCDOUT) > $)
                          M         if (CODE_SIZE >= 4)
                          M           if (((LCDOUT) & 800h) == 0)
                          M         bcf     PCLATH, 3
                          M           else
                          M         bsf     PCLATH, 3
MPASM  5.49                      SDCCON~1.ASM   7-1-2005  0:07:41         PAGE 40


LOC  OBJECT CODE     LINE SOURCE TEXT
  VALUE

                          M           endif
                          M         endif
                          M         if (CODE_SIZE == 8)
                          M           if (((LCDOUT) & 1000h) == 0)
                          M         bcf     PCLATH, 4
                          M           else
                          M         bsf     PCLATH, 4
                          M           endif
                          M         endif
                          M       else
                          M         if (CODE_SIZE >= 4)
                          M           if (((LCDOUT) & 1800h) == 0)
0141   018A               M         clrf    PCLATH
                          M           else
                          M             if (((LCDOUT) & 800h) == 0)
                          M         bcf     PCLATH, 3
                          M             else
                          M         bsf     PCLATH, 3
                          M             endif
                          M             if (CODE_SIZE == 8)
                          M               if (((LCDOUT) & 1000h) == 0)
                          M         bcf     PCLATH, 4
                          M               else
                          M         bsf     PCLATH, 4
                          M               endif
                          M             endif
                          M           endif
                          M         endif
                          M       endif
                          M     endif
                          M 
0142   2003               M         call    LCDOUT
                      00103         LCDOUT?C        041h
0143   3041               M         movlw   041h
                          M         L?CALL  LCDOUT
                          M         RST?RP
                          M     if ((PREV_BANK & 1) != 0)
                          M         bcf     STATUS, RP0
                          M     endif
                          M     if ((PREV_BANK & 2) != 0)
                          M         bcf     STATUS, RP1
                          M     endif
  00000000                M PREV_BANK = 0
                          M 
                          M     if ((LCDOUT) < 1)
                          M       if (CODE_SIZE >= 4)
                          M         if (((LCDOUT) & 800h) == 0)
                          M         bcf     PCLATH, 3
                          M         else
                          M         bsf     PCLATH, 3
                          M         endif
                          M       endif
                          M       if (CODE_SIZE == 8)
MPASM  5.49                      SDCCON~1.ASM   7-1-2005  0:07:41         PAGE 41


LOC  OBJECT CODE     LINE SOURCE TEXT
  VALUE

                          M         if (((LCDOUT) & 1000h) == 0)
                          M         bcf     PCLATH, 4
                          M         else
                          M         bsf     PCLATH, 4
                          M         endif
                          M       endif
                          M     else
                          M       if ((LCDOUT) > $)
                          M         if (CODE_SIZE >= 4)
                          M           if (((LCDOUT) & 800h) == 0)
                          M         bcf     PCLATH, 3
                          M           else
                          M         bsf     PCLATH, 3
                          M           endif
                          M         endif
                          M         if (CODE_SIZE == 8)
                          M           if (((LCDOUT) & 1000h) == 0)
                          M         bcf     PCLATH, 4
                          M           else
                          M         bsf     PCLATH, 4
                          M           endif
                          M         endif
                          M       else
                          M         if (CODE_SIZE >= 4)
                          M           if (((LCDOUT) & 1800h) == 0)
0144   018A               M         clrf    PCLATH
                          M           else
                          M             if (((LCDOUT) & 800h) == 0)
                          M         bcf     PCLATH, 3
                          M             else
                          M         bsf     PCLATH, 3
                          M             endif
                          M             if (CODE_SIZE == 8)
                          M               if (((LCDOUT) & 1000h) == 0)
                          M         bcf     PCLATH, 4
                          M               else
                          M         bsf     PCLATH, 4
                          M               endif
                          M             endif
                          M           endif
                          M         endif
                          M       endif
                          M     endif
                          M 
0145   2003               M         call    LCDOUT
                      00104         LCDOUT?C        043h
0146   3043               M         movlw   043h
                          M         L?CALL  LCDOUT
                          M         RST?RP
                          M     if ((PREV_BANK & 1) != 0)
                          M         bcf     STATUS, RP0
                          M     endif
                          M     if ((PREV_BANK & 2) != 0)
MPASM  5.49                      SDCCON~1.ASM   7-1-2005  0:07:41         PAGE 42


LOC  OBJECT CODE     LINE SOURCE TEXT
  VALUE

                          M         bcf     STATUS, RP1
                          M     endif
  00000000                M PREV_BANK = 0
                          M 
                          M     if ((LCDOUT) < 1)
                          M       if (CODE_SIZE >= 4)
                          M         if (((LCDOUT) & 800h) == 0)
                          M         bcf     PCLATH, 3
                          M         else
                          M         bsf     PCLATH, 3
                          M         endif
                          M       endif
                          M       if (CODE_SIZE == 8)
                          M         if (((LCDOUT) & 1000h) == 0)
                          M         bcf     PCLATH, 4
                          M         else
                          M         bsf     PCLATH, 4
                          M         endif
                          M       endif
                          M     else
                          M       if ((LCDOUT) > $)
                          M         if (CODE_SIZE >= 4)
                          M           if (((LCDOUT) & 800h) == 0)
                          M         bcf     PCLATH, 3
                          M           else
                          M         bsf     PCLATH, 3
                          M           endif
                          M         endif
                          M         if (CODE_SIZE == 8)
                          M           if (((LCDOUT) & 1000h) == 0)
                          M         bcf     PCLATH, 4
                          M           else
                          M         bsf     PCLATH, 4
                          M           endif
                          M         endif
                          M       else
                          M         if (CODE_SIZE >= 4)
                          M           if (((LCDOUT) & 1800h) == 0)
0147   018A               M         clrf    PCLATH
                          M           else
                          M             if (((LCDOUT) & 800h) == 0)
                          M         bcf     PCLATH, 3
                          M             else
                          M         bsf     PCLATH, 3
                          M             endif
                          M             if (CODE_SIZE == 8)
                          M               if (((LCDOUT) & 1000h) == 0)
                          M         bcf     PCLATH, 4
                          M               else
                          M         bsf     PCLATH, 4
                          M               endif
                          M             endif
                          M           endif
MPASM  5.49                      SDCCON~1.ASM   7-1-2005  0:07:41         PAGE 43


LOC  OBJECT CODE     LINE SOURCE TEXT
  VALUE

                          M         endif
                          M       endif
                          M     endif
                          M 
0148   2003               M         call    LCDOUT
                      00105         LCDOUT?C        054h
0149   3054               M         movlw   054h
                          M         L?CALL  LCDOUT
                          M         RST?RP
                          M     if ((PREV_BANK & 1) != 0)
                          M         bcf     STATUS, RP0
                          M     endif
                          M     if ((PREV_BANK & 2) != 0)
                          M         bcf     STATUS, RP1
                          M     endif
  00000000                M PREV_BANK = 0
                          M 
                          M     if ((LCDOUT) < 1)
                          M       if (CODE_SIZE >= 4)
                          M         if (((LCDOUT) & 800h) == 0)
                          M         bcf     PCLATH, 3
                          M         else
                          M         bsf     PCLATH, 3
                          M         endif
                          M       endif
                          M       if (CODE_SIZE == 8)
                          M         if (((LCDOUT) & 1000h) == 0)
                          M         bcf     PCLATH, 4
                          M         else
                          M         bsf     PCLATH, 4
                          M         endif
                          M       endif
                          M     else
                          M       if ((LCDOUT) > $)
                          M         if (CODE_SIZE >= 4)
                          M           if (((LCDOUT) & 800h) == 0)
                          M         bcf     PCLATH, 3
                          M           else
                          M         bsf     PCLATH, 3
                          M           endif
                          M         endif
                          M         if (CODE_SIZE == 8)
                          M           if (((LCDOUT) & 1000h) == 0)
                          M         bcf     PCLATH, 4
                          M           else
                          M         bsf     PCLATH, 4
                          M           endif
                          M         endif
                          M       else
                          M         if (CODE_SIZE >= 4)
                          M           if (((LCDOUT) & 1800h) == 0)
014A   018A               M         clrf    PCLATH
                          M           else
MPASM  5.49                      SDCCON~1.ASM   7-1-2005  0:07:41         PAGE 44


LOC  OBJECT CODE     LINE SOURCE TEXT
  VALUE

                          M             if (((LCDOUT) & 800h) == 0)
                          M         bcf     PCLATH, 3
                          M             else
                          M         bsf     PCLATH, 3
                          M             endif
                          M             if (CODE_SIZE == 8)
                          M               if (((LCDOUT) & 1000h) == 0)
                          M         bcf     PCLATH, 4
                          M               else
                          M         bsf     PCLATH, 4
                          M               endif
                          M             endif
                          M           endif
                          M         endif
                          M       endif
                          M     endif
                          M 
014B   2003               M         call    LCDOUT
                      00106         LCDOUT?C        020h
014C   3020               M         movlw   020h
                          M         L?CALL  LCDOUT
                          M         RST?RP
                          M     if ((PREV_BANK & 1) != 0)
                          M         bcf     STATUS, RP0
                          M     endif
                          M     if ((PREV_BANK & 2) != 0)
                          M         bcf     STATUS, RP1
                          M     endif
  00000000                M PREV_BANK = 0
                          M 
                          M     if ((LCDOUT) < 1)
                          M       if (CODE_SIZE >= 4)
                          M         if (((LCDOUT) & 800h) == 0)
                          M         bcf     PCLATH, 3
                          M         else
                          M         bsf     PCLATH, 3
                          M         endif
                          M       endif
                          M       if (CODE_SIZE == 8)
                          M         if (((LCDOUT) & 1000h) == 0)
                          M         bcf     PCLATH, 4
                          M         else
                          M         bsf     PCLATH, 4
                          M         endif
                          M       endif
                          M     else
                          M       if ((LCDOUT) > $)
                          M         if (CODE_SIZE >= 4)
                          M           if (((LCDOUT) & 800h) == 0)
                          M         bcf     PCLATH, 3
                          M           else
                          M         bsf     PCLATH, 3
                          M           endif
MPASM  5.49                      SDCCON~1.ASM   7-1-2005  0:07:41         PAGE 45


LOC  OBJECT CODE     LINE SOURCE TEXT
  VALUE

                          M         endif
                          M         if (CODE_SIZE == 8)
                          M           if (((LCDOUT) & 1000h) == 0)
                          M         bcf     PCLATH, 4
                          M           else
                          M         bsf     PCLATH, 4
                          M           endif
                          M         endif
                          M       else
                          M         if (CODE_SIZE >= 4)
                          M           if (((LCDOUT) & 1800h) == 0)
014D   018A               M         clrf    PCLATH
                          M           else
                          M             if (((LCDOUT) & 800h) == 0)
                          M         bcf     PCLATH, 3
                          M             else
                          M         bsf     PCLATH, 3
                          M             endif
                          M             if (CODE_SIZE == 8)
                          M               if (((LCDOUT) & 1000h) == 0)
                          M         bcf     PCLATH, 4
                          M               else
                          M         bsf     PCLATH, 4
                          M               endif
                          M             endif
                          M           endif
                          M         endif
                          M       endif
                          M     endif
                          M 
014E   2003               M         call    LCDOUT
                      00107         LCDOUT?C        054h
014F   3054               M         movlw   054h
                          M         L?CALL  LCDOUT
                          M         RST?RP
                          M     if ((PREV_BANK & 1) != 0)
                          M         bcf     STATUS, RP0
                          M     endif
                          M     if ((PREV_BANK & 2) != 0)
                          M         bcf     STATUS, RP1
                          M     endif
  00000000                M PREV_BANK = 0
                          M 
                          M     if ((LCDOUT) < 1)
                          M       if (CODE_SIZE >= 4)
                          M         if (((LCDOUT) & 800h) == 0)
                          M         bcf     PCLATH, 3
                          M         else
                          M         bsf     PCLATH, 3
                          M         endif
                          M       endif
                          M       if (CODE_SIZE == 8)
                          M         if (((LCDOUT) & 1000h) == 0)
MPASM  5.49                      SDCCON~1.ASM   7-1-2005  0:07:41         PAGE 46


LOC  OBJECT CODE     LINE SOURCE TEXT
  VALUE

                          M         bcf     PCLATH, 4
                          M         else
                          M         bsf     PCLATH, 4
                          M         endif
                          M       endif
                          M     else
                          M       if ((LCDOUT) > $)
                          M         if (CODE_SIZE >= 4)
                          M           if (((LCDOUT) & 800h) == 0)
                          M         bcf     PCLATH, 3
                          M           else
                          M         bsf     PCLATH, 3
                          M           endif
                          M         endif
                          M         if (CODE_SIZE == 8)
                          M           if (((LCDOUT) & 1000h) == 0)
                          M         bcf     PCLATH, 4
                          M           else
                          M         bsf     PCLATH, 4
                          M           endif
                          M         endif
                          M       else
                          M         if (CODE_SIZE >= 4)
                          M           if (((LCDOUT) & 1800h) == 0)
0150   018A               M         clrf    PCLATH
                          M           else
                          M             if (((LCDOUT) & 800h) == 0)
                          M         bcf     PCLATH, 3
                          M             else
                          M         bsf     PCLATH, 3
                          M             endif
                          M             if (CODE_SIZE == 8)
                          M               if (((LCDOUT) & 1000h) == 0)
                          M         bcf     PCLATH, 4
                          M               else
                          M         bsf     PCLATH, 4
                          M               endif
                          M             endif
                          M           endif
                          M         endif
                          M       endif
                          M     endif
                          M 
0151   2003               M         call    LCDOUT
                      00108         LCDOUT?C        02Eh
0152   302E               M         movlw   02Eh
                          M         L?CALL  LCDOUT
                          M         RST?RP
                          M     if ((PREV_BANK & 1) != 0)
                          M         bcf     STATUS, RP0
                          M     endif
                          M     if ((PREV_BANK & 2) != 0)
                          M         bcf     STATUS, RP1
MPASM  5.49                      SDCCON~1.ASM   7-1-2005  0:07:41         PAGE 47


LOC  OBJECT CODE     LINE SOURCE TEXT
  VALUE

                          M     endif
  00000000                M PREV_BANK = 0
                          M 
                          M     if ((LCDOUT) < 1)
                          M       if (CODE_SIZE >= 4)
                          M         if (((LCDOUT) & 800h) == 0)
                          M         bcf     PCLATH, 3
                          M         else
                          M         bsf     PCLATH, 3
                          M         endif
                          M       endif
                          M       if (CODE_SIZE == 8)
                          M         if (((LCDOUT) & 1000h) == 0)
                          M         bcf     PCLATH, 4
                          M         else
                          M         bsf     PCLATH, 4
                          M         endif
                          M       endif
                          M     else
                          M       if ((LCDOUT) > $)
                          M         if (CODE_SIZE >= 4)
                          M           if (((LCDOUT) & 800h) == 0)
                          M         bcf     PCLATH, 3
                          M           else
                          M         bsf     PCLATH, 3
                          M           endif
                          M         endif
                          M         if (CODE_SIZE == 8)
                          M           if (((LCDOUT) & 1000h) == 0)
                          M         bcf     PCLATH, 4
                          M           else
                          M         bsf     PCLATH, 4
                          M           endif
                          M         endif
                          M       else
                          M         if (CODE_SIZE >= 4)
                          M           if (((LCDOUT) & 1800h) == 0)
0153   018A               M         clrf    PCLATH
                          M           else
                          M             if (((LCDOUT) & 800h) == 0)
                          M         bcf     PCLATH, 3
                          M             else
                          M         bsf     PCLATH, 3
                          M             endif
                          M             if (CODE_SIZE == 8)
                          M               if (((LCDOUT) & 1000h) == 0)
                          M         bcf     PCLATH, 4
                          M               else
                          M         bsf     PCLATH, 4
                          M               endif
                          M             endif
                          M           endif
                          M         endif
MPASM  5.49                      SDCCON~1.ASM   7-1-2005  0:07:41         PAGE 48


LOC  OBJECT CODE     LINE SOURCE TEXT
  VALUE

                          M       endif
                          M     endif
                          M 
0154   2003               M         call    LCDOUT
                      00109         LCDOUT?C        04Dh
0155   304D               M         movlw   04Dh
                          M         L?CALL  LCDOUT
                          M         RST?RP
                          M     if ((PREV_BANK & 1) != 0)
                          M         bcf     STATUS, RP0
                          M     endif
                          M     if ((PREV_BANK & 2) != 0)
                          M         bcf     STATUS, RP1
                          M     endif
  00000000                M PREV_BANK = 0
                          M 
                          M     if ((LCDOUT) < 1)
                          M       if (CODE_SIZE >= 4)
                          M         if (((LCDOUT) & 800h) == 0)
                          M         bcf     PCLATH, 3
                          M         else
                          M         bsf     PCLATH, 3
                          M         endif
                          M       endif
                          M       if (CODE_SIZE == 8)
                          M         if (((LCDOUT) & 1000h) == 0)
                          M         bcf     PCLATH, 4
                          M         else
                          M         bsf     PCLATH, 4
                          M         endif
                          M       endif
                          M     else
                          M       if ((LCDOUT) > $)
                          M         if (CODE_SIZE >= 4)
                          M           if (((LCDOUT) & 800h) == 0)
                          M         bcf     PCLATH, 3
                          M           else
                          M         bsf     PCLATH, 3
                          M           endif
                          M         endif
                          M         if (CODE_SIZE == 8)
                          M           if (((LCDOUT) & 1000h) == 0)
                          M         bcf     PCLATH, 4
                          M           else
                          M         bsf     PCLATH, 4
                          M           endif
                          M         endif
                          M       else
                          M         if (CODE_SIZE >= 4)
                          M           if (((LCDOUT) & 1800h) == 0)
0156   018A               M         clrf    PCLATH
                          M           else
                          M             if (((LCDOUT) & 800h) == 0)
MPASM  5.49                      SDCCON~1.ASM   7-1-2005  0:07:41         PAGE 49


LOC  OBJECT CODE     LINE SOURCE TEXT
  VALUE

                          M         bcf     PCLATH, 3
                          M             else
                          M         bsf     PCLATH, 3
                          M             endif
                          M             if (CODE_SIZE == 8)
                          M               if (((LCDOUT) & 1000h) == 0)
                          M         bcf     PCLATH, 4
                          M               else
                          M         bsf     PCLATH, 4
                          M               endif
                          M             endif
                          M           endif
                          M         endif
                          M       endif
                          M     endif
                          M 
0157   2003               M         call    LCDOUT
                      00110         LCDOUT?C        041h
0158   3041               M         movlw   041h
                          M         L?CALL  LCDOUT
                          M         RST?RP
                          M     if ((PREV_BANK & 1) != 0)
                          M         bcf     STATUS, RP0
                          M     endif
                          M     if ((PREV_BANK & 2) != 0)
                          M         bcf     STATUS, RP1
                          M     endif
  00000000                M PREV_BANK = 0
                          M 
                          M     if ((LCDOUT) < 1)
                          M       if (CODE_SIZE >= 4)
                          M         if (((LCDOUT) & 800h) == 0)
                          M         bcf     PCLATH, 3
                          M         else
                          M         bsf     PCLATH, 3
                          M         endif
                          M       endif
                          M       if (CODE_SIZE == 8)
                          M         if (((LCDOUT) & 1000h) == 0)
                          M         bcf     PCLATH, 4
                          M         else
                          M         bsf     PCLATH, 4
                          M         endif
                          M       endif
                          M     else
                          M       if ((LCDOUT) > $)
                          M         if (CODE_SIZE >= 4)
                          M           if (((LCDOUT) & 800h) == 0)
                          M         bcf     PCLATH, 3
                          M           else
                          M         bsf     PCLATH, 3
                          M           endif
                          M         endif
MPASM  5.49                      SDCCON~1.ASM   7-1-2005  0:07:41         PAGE 50


LOC  OBJECT CODE     LINE SOURCE TEXT
  VALUE

                          M         if (CODE_SIZE == 8)
                          M           if (((LCDOUT) & 1000h) == 0)
                          M         bcf     PCLATH, 4
                          M           else
                          M         bsf     PCLATH, 4
                          M           endif
                          M         endif
                          M       else
                          M         if (CODE_SIZE >= 4)
                          M           if (((LCDOUT) & 1800h) == 0)
0159   018A               M         clrf    PCLATH
                          M           else
                          M             if (((LCDOUT) & 800h) == 0)
                          M         bcf     PCLATH, 3
                          M             else
                          M         bsf     PCLATH, 3
                          M             endif
                          M             if (CODE_SIZE == 8)
                          M               if (((LCDOUT) & 1000h) == 0)
                          M         bcf     PCLATH, 4
                          M               else
                          M         bsf     PCLATH, 4
                          M               endif
                          M             endif
                          M           endif
                          M         endif
                          M       endif
                          M     endif
                          M 
015A   2003               M         call    LCDOUT
                      00111         LCDOUT?C        058h
015B   3058               M         movlw   058h
                          M         L?CALL  LCDOUT
                          M         RST?RP
                          M     if ((PREV_BANK & 1) != 0)
                          M         bcf     STATUS, RP0
                          M     endif
                          M     if ((PREV_BANK & 2) != 0)
                          M         bcf     STATUS, RP1
                          M     endif
  00000000                M PREV_BANK = 0
                          M 
                          M     if ((LCDOUT) < 1)
                          M       if (CODE_SIZE >= 4)
                          M         if (((LCDOUT) & 800h) == 0)
                          M         bcf     PCLATH, 3
                          M         else
                          M         bsf     PCLATH, 3
                          M         endif
                          M       endif
                          M       if (CODE_SIZE == 8)
                          M         if (((LCDOUT) & 1000h) == 0)
                          M         bcf     PCLATH, 4
MPASM  5.49                      SDCCON~1.ASM   7-1-2005  0:07:41         PAGE 51


LOC  OBJECT CODE     LINE SOURCE TEXT
  VALUE

                          M         else
                          M         bsf     PCLATH, 4
                          M         endif
                          M       endif
                          M     else
                          M       if ((LCDOUT) > $)
                          M         if (CODE_SIZE >= 4)
                          M           if (((LCDOUT) & 800h) == 0)
                          M         bcf     PCLATH, 3
                          M           else
                          M         bsf     PCLATH, 3
                          M           endif
                          M         endif
                          M         if (CODE_SIZE == 8)
                          M           if (((LCDOUT) & 1000h) == 0)
                          M         bcf     PCLATH, 4
                          M           else
                          M         bsf     PCLATH, 4
                          M           endif
                          M         endif
                          M       else
                          M         if (CODE_SIZE >= 4)
                          M           if (((LCDOUT) & 1800h) == 0)
015C   018A               M         clrf    PCLATH
                          M           else
                          M             if (((LCDOUT) & 800h) == 0)
                          M         bcf     PCLATH, 3
                          M             else
                          M         bsf     PCLATH, 3
                          M             endif
                          M             if (CODE_SIZE == 8)
                          M               if (((LCDOUT) & 1000h) == 0)
                          M         bcf     PCLATH, 4
                          M               else
                          M         bsf     PCLATH, 4
                          M               endif
                          M             endif
                          M           endif
                          M         endif
                          M       endif
                          M     endif
                          M 
015D   2003               M         call    LCDOUT
                      00112         DIV?WCW _dato, 080h, _dato
                          M     if ((080h) == 2)
                          M         bcf     STATUS, C
                          M       if ((_dato) == (_dato))
                          M         CHK?RP  _dato
                          M         rrf     (_dato) + 1, F
                          M         rrf     _dato, F
                          M       else
                          M         CHK?RP  _dato
                          M         rrf     (_dato) + 1, W
MPASM  5.49                      SDCCON~1.ASM   7-1-2005  0:07:41         PAGE 52


LOC  OBJECT CODE     LINE SOURCE TEXT
  VALUE

                          M         MOVE?AB (_dato) + 1
                          M         CHK?RP  _dato
                          M         rrf     _dato, W
                          M         MOVE?AB _dato
                          M       endif
                          M     else
                          M         MOVE?WW _dato, R0
                          M         MOVE?BB _dato, R0
                          M         CHK?RP  _dato
                          M     if (((_dato) & 180h) == 0)
                          M       if (PREV_BANK == 1)
                          M         bcf     STATUS, RP0
                          M       endif
                          M       if (PREV_BANK == 2)
                          M         bcf     STATUS, RP1
                          M       endif
                          M       if (PREV_BANK == 3)
                          M         bcf     STATUS, RP0
                          M         bcf     STATUS, RP1
                          M       endif
  00000000                M PREV_BANK = 0
                          M     endif
                          M 
                          M     if (((_dato) & 180h) == 80h)
                          M       if (PREV_BANK == 0)
                          M         bsf     STATUS, RP0
                          M       endif
                          M       if (PREV_BANK == 2)
                          M         bsf     STATUS, RP0
                          M         bcf     STATUS, RP1
                          M       endif
                          M       if (PREV_BANK == 3)
                          M         bcf     STATUS, RP1
                          M       endif
                          M PREV_BANK = 1
                          M     endif
                          M 
                          M     if (((_dato) & 180h) == 100h)
                          M       if (PREV_BANK == 0)
                          M         bsf     STATUS, RP1
                          M       endif
                          M       if (PREV_BANK == 1)
                          M         bcf     STATUS, RP0
                          M         bsf     STATUS, RP1
                          M       endif
                          M       if (PREV_BANK == 3)
                          M         bcf     STATUS, RP0
                          M       endif
                          M PREV_BANK = 2
                          M     endif
                          M 
                          M     if (((_dato) & 180h) == 180h)
                          M       if (PREV_BANK == 0)
MPASM  5.49                      SDCCON~1.ASM   7-1-2005  0:07:41         PAGE 53


LOC  OBJECT CODE     LINE SOURCE TEXT
  VALUE

                          M         bsf     STATUS, RP0
                          M         bsf     STATUS, RP1
                          M       endif
                          M       if (PREV_BANK == 1)
                          M         bsf     STATUS, RP1
                          M       endif
                          M       if (PREV_BANK == 2)
                          M         bsf     STATUS, RP0
                          M       endif
                          M PREV_BANK = 3
                          M     endif
015E   0838               M         movf    _dato, W
                          M         CHK?RP  R0
                          M     if (((R0)    & 180h) == 0)
                          M       if (PREV_BANK == 1)
                          M         bcf     STATUS, RP0
                          M       endif
                          M       if (PREV_BANK == 2)
                          M         bcf     STATUS, RP1
                          M       endif
                          M       if (PREV_BANK == 3)
                          M         bcf     STATUS, RP0
                          M         bcf     STATUS, RP1
                          M       endif
  00000000                M PREV_BANK = 0
                          M     endif
                          M 
                          M     if (((R0)    & 180h) == 80h)
                          M       if (PREV_BANK == 0)
                          M         bsf     STATUS, RP0
                          M       endif
                          M       if (PREV_BANK == 2)
                          M         bsf     STATUS, RP0
                          M         bcf     STATUS, RP1
                          M       endif
                          M       if (PREV_BANK == 3)
                          M         bcf     STATUS, RP1
                          M       endif
                          M PREV_BANK = 1
                          M     endif
                          M 
                          M     if (((R0)    & 180h) == 100h)
                          M       if (PREV_BANK == 0)
                          M         bsf     STATUS, RP1
                          M       endif
                          M       if (PREV_BANK == 1)
                          M         bcf     STATUS, RP0
                          M         bsf     STATUS, RP1
                          M       endif
                          M       if (PREV_BANK == 3)
                          M         bcf     STATUS, RP0
                          M       endif
                          M PREV_BANK = 2
MPASM  5.49                      SDCCON~1.ASM   7-1-2005  0:07:41         PAGE 54


LOC  OBJECT CODE     LINE SOURCE TEXT
  VALUE

                          M     endif
                          M 
                          M     if (((R0)    & 180h) == 180h)
                          M       if (PREV_BANK == 0)
                          M         bsf     STATUS, RP0
                          M         bsf     STATUS, RP1
                          M       endif
                          M       if (PREV_BANK == 1)
                          M         bsf     STATUS, RP1
                          M       endif
                          M       if (PREV_BANK == 2)
                          M         bsf     STATUS, RP0
                          M       endif
                          M PREV_BANK = 3
                          M     endif
015F   00A0               M         movwf   R0
                          M         MOVE?BB (_dato) + 1, (R0) + 1
                          M         CHK?RP  (_dato) + 1
                          M     if ((((_dato) + 1) & 180h) == 0)
                          M       if (PREV_BANK == 1)
                          M         bcf     STATUS, RP0
                          M       endif
                          M       if (PREV_BANK == 2)
                          M         bcf     STATUS, RP1
                          M       endif
                          M       if (PREV_BANK == 3)
                          M         bcf     STATUS, RP0
                          M         bcf     STATUS, RP1
                          M       endif
  00000000                M PREV_BANK = 0
                          M     endif
                          M 
                          M     if ((((_dato) + 1) & 180h) == 80h)
                          M       if (PREV_BANK == 0)
                          M         bsf     STATUS, RP0
                          M       endif
                          M       if (PREV_BANK == 2)
                          M         bsf     STATUS, RP0
                          M         bcf     STATUS, RP1
                          M       endif
                          M       if (PREV_BANK == 3)
                          M         bcf     STATUS, RP1
                          M       endif
                          M PREV_BANK = 1
                          M     endif
                          M 
                          M     if ((((_dato) + 1) & 180h) == 100h)
                          M       if (PREV_BANK == 0)
                          M         bsf     STATUS, RP1
                          M       endif
                          M       if (PREV_BANK == 1)
                          M         bcf     STATUS, RP0
                          M         bsf     STATUS, RP1
MPASM  5.49                      SDCCON~1.ASM   7-1-2005  0:07:41         PAGE 55


LOC  OBJECT CODE     LINE SOURCE TEXT
  VALUE

                          M       endif
                          M       if (PREV_BANK == 3)
                          M         bcf     STATUS, RP0
                          M       endif
                          M PREV_BANK = 2
                          M     endif
                          M 
                          M     if ((((_dato) + 1) & 180h) == 180h)
                          M       if (PREV_BANK == 0)
                          M         bsf     STATUS, RP0
                          M         bsf     STATUS, RP1
                          M       endif
                          M       if (PREV_BANK == 1)
                          M         bsf     STATUS, RP1
                          M       endif
                          M       if (PREV_BANK == 2)
                          M         bsf     STATUS, RP0
                          M       endif
                          M PREV_BANK = 3
                          M     endif
0160   0839               M         movf    (_dato) + 1, W
                          M         CHK?RP  (R0) + 1
                          M     if ((((R0) + 1) & 180h) == 0)
                          M       if (PREV_BANK == 1)
                          M         bcf     STATUS, RP0
                          M       endif
                          M       if (PREV_BANK == 2)
                          M         bcf     STATUS, RP1
                          M       endif
                          M       if (PREV_BANK == 3)
                          M         bcf     STATUS, RP0
                          M         bcf     STATUS, RP1
                          M       endif
  00000000                M PREV_BANK = 0
                          M     endif
                          M 
                          M     if ((((R0) + 1) & 180h) == 80h)
                          M       if (PREV_BANK == 0)
                          M         bsf     STATUS, RP0
                          M       endif
                          M       if (PREV_BANK == 2)
                          M         bsf     STATUS, RP0
                          M         bcf     STATUS, RP1
                          M       endif
                          M       if (PREV_BANK == 3)
                          M         bcf     STATUS, RP1
                          M       endif
                          M PREV_BANK = 1
                          M     endif
                          M 
                          M     if ((((R0) + 1) & 180h) == 100h)
                          M       if (PREV_BANK == 0)
                          M         bsf     STATUS, RP1
MPASM  5.49                      SDCCON~1.ASM   7-1-2005  0:07:41         PAGE 56


LOC  OBJECT CODE     LINE SOURCE TEXT
  VALUE

                          M       endif
                          M       if (PREV_BANK == 1)
                          M         bcf     STATUS, RP0
                          M         bsf     STATUS, RP1
                          M       endif
                          M       if (PREV_BANK == 3)
                          M         bcf     STATUS, RP0
                          M       endif
                          M PREV_BANK = 2
                          M     endif
                          M 
                          M     if ((((R0) + 1) & 180h) == 180h)
                          M       if (PREV_BANK == 0)
                          M         bsf     STATUS, RP0
                          M         bsf     STATUS, RP1
                          M       endif
                          M       if (PREV_BANK == 1)
                          M         bsf     STATUS, RP1
                          M       endif
                          M       if (PREV_BANK == 2)
                          M         bsf     STATUS, RP0
                          M       endif
                          M PREV_BANK = 3
                          M     endif
0161   00A1               M         movwf   (R0) + 1
                          M         MOVE?CW 080h, R1
                          M         MOVE?CB low (080h), R1
                          M         CHK?RP  R1
                          M     if (((R1)    & 180h) == 0)
                          M       if (PREV_BANK == 1)
                          M         bcf     STATUS, RP0
                          M       endif
                          M       if (PREV_BANK == 2)
                          M         bcf     STATUS, RP1
                          M       endif
                          M       if (PREV_BANK == 3)
                          M         bcf     STATUS, RP0
                          M         bcf     STATUS, RP1
                          M       endif
  00000000                M PREV_BANK = 0
                          M     endif
                          M 
                          M     if (((R1)    & 180h) == 80h)
                          M       if (PREV_BANK == 0)
                          M         bsf     STATUS, RP0
                          M       endif
                          M       if (PREV_BANK == 2)
                          M         bsf     STATUS, RP0
                          M         bcf     STATUS, RP1
                          M       endif
                          M       if (PREV_BANK == 3)
                          M         bcf     STATUS, RP1
                          M       endif
MPASM  5.49                      SDCCON~1.ASM   7-1-2005  0:07:41         PAGE 57


LOC  OBJECT CODE     LINE SOURCE TEXT
  VALUE

                          M PREV_BANK = 1
                          M     endif
                          M 
                          M     if (((R1)    & 180h) == 100h)
                          M       if (PREV_BANK == 0)
                          M         bsf     STATUS, RP1
                          M       endif
                          M       if (PREV_BANK == 1)
                          M         bcf     STATUS, RP0
                          M         bsf     STATUS, RP1
                          M       endif
                          M       if (PREV_BANK == 3)
                          M         bcf     STATUS, RP0
                          M       endif
                          M PREV_BANK = 2
                          M     endif
                          M 
                          M     if (((R1)    & 180h) == 180h)
                          M       if (PREV_BANK == 0)
                          M         bsf     STATUS, RP0
                          M         bsf     STATUS, RP1
                          M       endif
                          M       if (PREV_BANK == 1)
                          M         bsf     STATUS, RP1
                          M       endif
                          M       if (PREV_BANK == 2)
                          M         bsf     STATUS, RP0
                          M       endif
                          M PREV_BANK = 3
                          M     endif
                          M     if (low (low (080h)) == 0)
                          M         clrf    R1
                          M     else
0162   3080               M         movlw   low (low (080h))
0163   00A2               M         movwf   R1
                          M     endif
                          M         MOVE?CB high (080h), (R1)  + 1
                          M         CHK?RP  (R1) + 1
                          M     if ((((R1) + 1) & 180h) == 0)
                          M       if (PREV_BANK == 1)
                          M         bcf     STATUS, RP0
                          M       endif
                          M       if (PREV_BANK == 2)
                          M         bcf     STATUS, RP1
                          M       endif
                          M       if (PREV_BANK == 3)
                          M         bcf     STATUS, RP0
                          M         bcf     STATUS, RP1
                          M       endif
  00000000                M PREV_BANK = 0
                          M     endif
                          M 
                          M     if ((((R1) + 1) & 180h) == 80h)
MPASM  5.49                      SDCCON~1.ASM   7-1-2005  0:07:41         PAGE 58


LOC  OBJECT CODE     LINE SOURCE TEXT
  VALUE

                          M       if (PREV_BANK == 0)
                          M         bsf     STATUS, RP0
                          M       endif
                          M       if (PREV_BANK == 2)
                          M         bsf     STATUS, RP0
                          M         bcf     STATUS, RP1
                          M       endif
                          M       if (PREV_BANK == 3)
                          M         bcf     STATUS, RP1
                          M       endif
                          M PREV_BANK = 1
                          M     endif
                          M 
                          M     if ((((R1) + 1) & 180h) == 100h)
                          M       if (PREV_BANK == 0)
                          M         bsf     STATUS, RP1
                          M       endif
                          M       if (PREV_BANK == 1)
                          M         bcf     STATUS, RP0
                          M         bsf     STATUS, RP1
                          M       endif
                          M       if (PREV_BANK == 3)
                          M         bcf     STATUS, RP0
                          M       endif
                          M PREV_BANK = 2
                          M     endif
                          M 
                          M     if ((((R1) + 1) & 180h) == 180h)
                          M       if (PREV_BANK == 0)
                          M         bsf     STATUS, RP0
                          M         bsf     STATUS, RP1
                          M       endif
                          M       if (PREV_BANK == 1)
                          M         bsf     STATUS, RP1
                          M       endif
                          M       if (PREV_BANK == 2)
                          M         bsf     STATUS, RP0
                          M       endif
                          M PREV_BANK = 3
                          M     endif
                          M     if (low (high (080h)) == 0)
0164   01A3               M         clrf    (R1) + 1
                          M     else
                          M         movlw   low (high (080h))
                          M         movwf   (R1) + 1
                          M     endif
                          M         L?CALL  DIV
                          M         RST?RP
                          M     if ((PREV_BANK & 1) != 0)
                          M         bcf     STATUS, RP0
                          M     endif
                          M     if ((PREV_BANK & 2) != 0)
                          M         bcf     STATUS, RP1
MPASM  5.49                      SDCCON~1.ASM   7-1-2005  0:07:41         PAGE 59


LOC  OBJECT CODE     LINE SOURCE TEXT
  VALUE

                          M     endif
  00000000                M PREV_BANK = 0
                          M 
                          M     if ((DIV)   < 1)
                          M       if (CODE_SIZE >= 4)
                          M         if (((DIV)   & 800h) == 0)
                          M         bcf     PCLATH, 3
                          M         else
                          M         bsf     PCLATH, 3
                          M         endif
                          M       endif
                          M       if (CODE_SIZE == 8)
                          M         if (((DIV)   & 1000h) == 0)
                          M         bcf     PCLATH, 4
                          M         else
                          M         bsf     PCLATH, 4
                          M         endif
                          M       endif
                          M     else
                          M       if ((DIV)   > $)
                          M         if (CODE_SIZE >= 4)
                          M           if (((DIV)   & 800h) == 0)
                          M         bcf     PCLATH, 3
                          M           else
                          M         bsf     PCLATH, 3
                          M           endif
                          M         endif
                          M         if (CODE_SIZE == 8)
                          M           if (((DIV)   & 1000h) == 0)
                          M         bcf     PCLATH, 4
                          M           else
                          M         bsf     PCLATH, 4
                          M           endif
                          M         endif
                          M       else
                          M         if (CODE_SIZE >= 4)
                          M           if (((DIV)   & 1800h) == 0)
0165   018A               M         clrf    PCLATH
                          M           else
                          M             if (((DIV)   & 800h) == 0)
                          M         bcf     PCLATH, 3
                          M             else
                          M         bsf     PCLATH, 3
                          M             endif
                          M             if (CODE_SIZE == 8)
                          M               if (((DIV)   & 1000h) == 0)
                          M         bcf     PCLATH, 4
                          M               else
                          M         bsf     PCLATH, 4
                          M               endif
                          M             endif
                          M           endif
                          M         endif
MPASM  5.49                      SDCCON~1.ASM   7-1-2005  0:07:41         PAGE 60


LOC  OBJECT CODE     LINE SOURCE TEXT
  VALUE

                          M       endif
                          M     endif
                          M 
0166   20E3               M         call    DIV
                          M         MOVE?AWW R0, _dato
                          M         MOVE?AB _dato
                          M         CHK?RP  _dato
                          M     if (((_dato) & 180h) == 0)
                          M       if (PREV_BANK == 1)
                          M         bcf     STATUS, RP0
                          M       endif
                          M       if (PREV_BANK == 2)
                          M         bcf     STATUS, RP1
                          M       endif
                          M       if (PREV_BANK == 3)
                          M         bcf     STATUS, RP0
                          M         bcf     STATUS, RP1
                          M       endif
  00000000                M PREV_BANK = 0
                          M     endif
                          M 
                          M     if (((_dato) & 180h) == 80h)
                          M       if (PREV_BANK == 0)
                          M         bsf     STATUS, RP0
                          M       endif
                          M       if (PREV_BANK == 2)
                          M         bsf     STATUS, RP0
                          M         bcf     STATUS, RP1
                          M       endif
                          M       if (PREV_BANK == 3)
                          M         bcf     STATUS, RP1
                          M       endif
                          M PREV_BANK = 1
                          M     endif
                          M 
                          M     if (((_dato) & 180h) == 100h)
                          M       if (PREV_BANK == 0)
                          M         bsf     STATUS, RP1
                          M       endif
                          M       if (PREV_BANK == 1)
                          M         bcf     STATUS, RP0
                          M         bsf     STATUS, RP1
                          M       endif
                          M       if (PREV_BANK == 3)
                          M         bcf     STATUS, RP0
                          M       endif
                          M PREV_BANK = 2
                          M     endif
                          M 
                          M     if (((_dato) & 180h) == 180h)
                          M       if (PREV_BANK == 0)
                          M         bsf     STATUS, RP0
                          M         bsf     STATUS, RP1
MPASM  5.49                      SDCCON~1.ASM   7-1-2005  0:07:41         PAGE 61


LOC  OBJECT CODE     LINE SOURCE TEXT
  VALUE

                          M       endif
                          M       if (PREV_BANK == 1)
                          M         bsf     STATUS, RP1
                          M       endif
                          M       if (PREV_BANK == 2)
                          M         bsf     STATUS, RP0
                          M       endif
                          M PREV_BANK = 3
                          M     endif
0167   00B8               M         movwf   _dato
                          M         MOVE?BB (R0)  + 1, (_dato) + 1
                          M         CHK?RP  (R0) + 1
                          M     if ((((R0) + 1) & 180h) == 0)
                          M       if (PREV_BANK == 1)
                          M         bcf     STATUS, RP0
                          M       endif
                          M       if (PREV_BANK == 2)
                          M         bcf     STATUS, RP1
                          M       endif
                          M       if (PREV_BANK == 3)
                          M         bcf     STATUS, RP0
                          M         bcf     STATUS, RP1
                          M       endif
  00000000                M PREV_BANK = 0
                          M     endif
                          M 
                          M     if ((((R0) + 1) & 180h) == 80h)
                          M       if (PREV_BANK == 0)
                          M         bsf     STATUS, RP0
                          M       endif
                          M       if (PREV_BANK == 2)
                          M         bsf     STATUS, RP0
                          M         bcf     STATUS, RP1
                          M       endif
                          M       if (PREV_BANK == 3)
                          M         bcf     STATUS, RP1
                          M       endif
                          M PREV_BANK = 1
                          M     endif
                          M 
                          M     if ((((R0) + 1) & 180h) == 100h)
                          M       if (PREV_BANK == 0)
                          M         bsf     STATUS, RP1
                          M       endif
                          M       if (PREV_BANK == 1)
                          M         bcf     STATUS, RP0
                          M         bsf     STATUS, RP1
                          M       endif
                          M       if (PREV_BANK == 3)
                          M         bcf     STATUS, RP0
                          M       endif
                          M PREV_BANK = 2
                          M     endif
MPASM  5.49                      SDCCON~1.ASM   7-1-2005  0:07:41         PAGE 62


LOC  OBJECT CODE     LINE SOURCE TEXT
  VALUE

                          M 
                          M     if ((((R0) + 1) & 180h) == 180h)
                          M       if (PREV_BANK == 0)
                          M         bsf     STATUS, RP0
                          M         bsf     STATUS, RP1
                          M       endif
                          M       if (PREV_BANK == 1)
                          M         bsf     STATUS, RP1
                          M       endif
                          M       if (PREV_BANK == 2)
                          M         bsf     STATUS, RP0
                          M       endif
                          M PREV_BANK = 3
                          M     endif
0168   0821               M         movf    (R0) + 1, W
                          M         CHK?RP  (_dato) + 1
                          M     if ((((_dato) + 1) & 180h) == 0)
                          M       if (PREV_BANK == 1)
                          M         bcf     STATUS, RP0
                          M       endif
                          M       if (PREV_BANK == 2)
                          M         bcf     STATUS, RP1
                          M       endif
                          M       if (PREV_BANK == 3)
                          M         bcf     STATUS, RP0
                          M         bcf     STATUS, RP1
                          M       endif
  00000000                M PREV_BANK = 0
                          M     endif
                          M 
                          M     if ((((_dato) + 1) & 180h) == 80h)
                          M       if (PREV_BANK == 0)
                          M         bsf     STATUS, RP0
                          M       endif
                          M       if (PREV_BANK == 2)
                          M         bsf     STATUS, RP0
                          M         bcf     STATUS, RP1
                          M       endif
                          M       if (PREV_BANK == 3)
                          M         bcf     STATUS, RP1
                          M       endif
                          M PREV_BANK = 1
                          M     endif
                          M 
                          M     if ((((_dato) + 1) & 180h) == 100h)
                          M       if (PREV_BANK == 0)
                          M         bsf     STATUS, RP1
                          M       endif
                          M       if (PREV_BANK == 1)
                          M         bcf     STATUS, RP0
                          M         bsf     STATUS, RP1
                          M       endif
                          M       if (PREV_BANK == 3)
MPASM  5.49                      SDCCON~1.ASM   7-1-2005  0:07:41         PAGE 63


LOC  OBJECT CODE     LINE SOURCE TEXT
  VALUE

                          M         bcf     STATUS, RP0
                          M       endif
                          M PREV_BANK = 2
                          M     endif
                          M 
                          M     if ((((_dato) + 1) & 180h) == 180h)
                          M       if (PREV_BANK == 0)
                          M         bsf     STATUS, RP0
                          M         bsf     STATUS, RP1
                          M       endif
                          M       if (PREV_BANK == 1)
                          M         bsf     STATUS, RP1
                          M       endif
                          M       if (PREV_BANK == 2)
                          M         bsf     STATUS, RP0
                          M       endif
                          M PREV_BANK = 3
                          M     endif
0169   00B9               M         movwf   (_dato) + 1
                          M     endif
                      00113         LCDOUT?C        0FEh
016A   30FE               M         movlw   0FEh
                          M         L?CALL  LCDOUT
                          M         RST?RP
                          M     if ((PREV_BANK & 1) != 0)
                          M         bcf     STATUS, RP0
                          M     endif
                          M     if ((PREV_BANK & 2) != 0)
                          M         bcf     STATUS, RP1
                          M     endif
  00000000                M PREV_BANK = 0
                          M 
                          M     if ((LCDOUT) < 1)
                          M       if (CODE_SIZE >= 4)
                          M         if (((LCDOUT) & 800h) == 0)
                          M         bcf     PCLATH, 3
                          M         else
                          M         bsf     PCLATH, 3
                          M         endif
                          M       endif
                          M       if (CODE_SIZE == 8)
                          M         if (((LCDOUT) & 1000h) == 0)
                          M         bcf     PCLATH, 4
                          M         else
                          M         bsf     PCLATH, 4
                          M         endif
                          M       endif
                          M     else
                          M       if ((LCDOUT) > $)
                          M         if (CODE_SIZE >= 4)
                          M           if (((LCDOUT) & 800h) == 0)
                          M         bcf     PCLATH, 3
                          M           else
MPASM  5.49                      SDCCON~1.ASM   7-1-2005  0:07:41         PAGE 64


LOC  OBJECT CODE     LINE SOURCE TEXT
  VALUE

                          M         bsf     PCLATH, 3
                          M           endif
                          M         endif
                          M         if (CODE_SIZE == 8)
                          M           if (((LCDOUT) & 1000h) == 0)
                          M         bcf     PCLATH, 4
                          M           else
                          M         bsf     PCLATH, 4
                          M           endif
                          M         endif
                          M       else
                          M         if (CODE_SIZE >= 4)
                          M           if (((LCDOUT) & 1800h) == 0)
016B   018A               M         clrf    PCLATH
                          M           else
                          M             if (((LCDOUT) & 800h) == 0)
                          M         bcf     PCLATH, 3
                          M             else
                          M         bsf     PCLATH, 3
                          M             endif
                          M             if (CODE_SIZE == 8)
                          M               if (((LCDOUT) & 1000h) == 0)
                          M         bcf     PCLATH, 4
                          M               else
                          M         bsf     PCLATH, 4
                          M               endif
                          M             endif
                          M           endif
                          M         endif
                          M       endif
                          M     endif
                          M 
016C   2003               M         call    LCDOUT
                      00114         LCDOUT?C        0C6h
016D   30C6               M         movlw   0C6h
                          M         L?CALL  LCDOUT
                          M         RST?RP
                          M     if ((PREV_BANK & 1) != 0)
                          M         bcf     STATUS, RP0
                          M     endif
                          M     if ((PREV_BANK & 2) != 0)
                          M         bcf     STATUS, RP1
                          M     endif
  00000000                M PREV_BANK = 0
                          M 
                          M     if ((LCDOUT) < 1)
                          M       if (CODE_SIZE >= 4)
                          M         if (((LCDOUT) & 800h) == 0)
                          M         bcf     PCLATH, 3
                          M         else
                          M         bsf     PCLATH, 3
                          M         endif
                          M       endif
MPASM  5.49                      SDCCON~1.ASM   7-1-2005  0:07:41         PAGE 65


LOC  OBJECT CODE     LINE SOURCE TEXT
  VALUE

                          M       if (CODE_SIZE == 8)
                          M         if (((LCDOUT) & 1000h) == 0)
                          M         bcf     PCLATH, 4
                          M         else
                          M         bsf     PCLATH, 4
                          M         endif
                          M       endif
                          M     else
                          M       if ((LCDOUT) > $)
                          M         if (CODE_SIZE >= 4)
                          M           if (((LCDOUT) & 800h) == 0)
                          M         bcf     PCLATH, 3
                          M           else
                          M         bsf     PCLATH, 3
                          M           endif
                          M         endif
                          M         if (CODE_SIZE == 8)
                          M           if (((LCDOUT) & 1000h) == 0)
                          M         bcf     PCLATH, 4
                          M           else
                          M         bsf     PCLATH, 4
                          M           endif
                          M         endif
                          M       else
                          M         if (CODE_SIZE >= 4)
                          M           if (((LCDOUT) & 1800h) == 0)
016E   018A               M         clrf    PCLATH
                          M           else
                          M             if (((LCDOUT) & 800h) == 0)
                          M         bcf     PCLATH, 3
                          M             else
                          M         bsf     PCLATH, 3
                          M             endif
                          M             if (CODE_SIZE == 8)
                          M               if (((LCDOUT) & 1000h) == 0)
                          M         bcf     PCLATH, 4
                          M               else
                          M         bsf     PCLATH, 4
                          M               endif
                          M             endif
                          M           endif
                          M         endif
                          M       endif
                          M     endif
                          M 
016F   2003               M         call    LCDOUT
                      00115         LCDOUTCOUNT?C   000h
                          M         MOVE?CB 000h, R4 + 1
                          M         CHK?RP  R4 + 1
                          M     if (((R4 + 1) & 180h) == 0)
                          M       if (PREV_BANK == 1)
                          M         bcf     STATUS, RP0
                          M       endif
MPASM  5.49                      SDCCON~1.ASM   7-1-2005  0:07:41         PAGE 66


LOC  OBJECT CODE     LINE SOURCE TEXT
  VALUE

                          M       if (PREV_BANK == 2)
                          M         bcf     STATUS, RP1
                          M       endif
                          M       if (PREV_BANK == 3)
                          M         bcf     STATUS, RP0
                          M         bcf     STATUS, RP1
                          M       endif
  00000000                M PREV_BANK = 0
                          M     endif
                          M 
                          M     if (((R4 + 1) & 180h) == 80h)
                          M       if (PREV_BANK == 0)
                          M         bsf     STATUS, RP0
                          M       endif
                          M       if (PREV_BANK == 2)
                          M         bsf     STATUS, RP0
                          M         bcf     STATUS, RP1
                          M       endif
                          M       if (PREV_BANK == 3)
                          M         bcf     STATUS, RP1
                          M       endif
                          M PREV_BANK = 1
                          M     endif
                          M 
                          M     if (((R4 + 1) & 180h) == 100h)
                          M       if (PREV_BANK == 0)
                          M         bsf     STATUS, RP1
                          M       endif
                          M       if (PREV_BANK == 1)
                          M         bcf     STATUS, RP0
                          M         bsf     STATUS, RP1
                          M       endif
                          M       if (PREV_BANK == 3)
                          M         bcf     STATUS, RP0
                          M       endif
                          M PREV_BANK = 2
                          M     endif
                          M 
                          M     if (((R4 + 1) & 180h) == 180h)
                          M       if (PREV_BANK == 0)
                          M         bsf     STATUS, RP0
                          M         bsf     STATUS, RP1
                          M       endif
                          M       if (PREV_BANK == 1)
                          M         bsf     STATUS, RP1
                          M       endif
                          M       if (PREV_BANK == 2)
                          M         bsf     STATUS, RP0
                          M       endif
                          M PREV_BANK = 3
                          M     endif
                          M     if (low (000h) == 0)
0170   01A9               M         clrf    R4 + 1
MPASM  5.49                      SDCCON~1.ASM   7-1-2005  0:07:41         PAGE 67


LOC  OBJECT CODE     LINE SOURCE TEXT
  VALUE

                          M     else
                          M         movlw   low (000h)
                          M         movwf   R4 + 1
                          M     endif
                      00116         LCDOUTNUM?W     _dato
                          M         MOVE?WW _dato, R2
                          M         MOVE?BB _dato, R2
                          M         CHK?RP  _dato
                          M     if (((_dato) & 180h) == 0)
                          M       if (PREV_BANK == 1)
                          M         bcf     STATUS, RP0
                          M       endif
                          M       if (PREV_BANK == 2)
                          M         bcf     STATUS, RP1
                          M       endif
                          M       if (PREV_BANK == 3)
                          M         bcf     STATUS, RP0
                          M         bcf     STATUS, RP1
                          M       endif
  00000000                M PREV_BANK = 0
                          M     endif
                          M 
                          M     if (((_dato) & 180h) == 80h)
                          M       if (PREV_BANK == 0)
                          M         bsf     STATUS, RP0
                          M       endif
                          M       if (PREV_BANK == 2)
                          M         bsf     STATUS, RP0
                          M         bcf     STATUS, RP1
                          M       endif
                          M       if (PREV_BANK == 3)
                          M         bcf     STATUS, RP1
                          M       endif
                          M PREV_BANK = 1
                          M     endif
                          M 
                          M     if (((_dato) & 180h) == 100h)
                          M       if (PREV_BANK == 0)
                          M         bsf     STATUS, RP1
                          M       endif
                          M       if (PREV_BANK == 1)
                          M         bcf     STATUS, RP0
                          M         bsf     STATUS, RP1
                          M       endif
                          M       if (PREV_BANK == 3)
                          M         bcf     STATUS, RP0
                          M       endif
                          M PREV_BANK = 2
                          M     endif
                          M 
                          M     if (((_dato) & 180h) == 180h)
                          M       if (PREV_BANK == 0)
                          M         bsf     STATUS, RP0
MPASM  5.49                      SDCCON~1.ASM   7-1-2005  0:07:41         PAGE 68


LOC  OBJECT CODE     LINE SOURCE TEXT
  VALUE

                          M         bsf     STATUS, RP1
                          M       endif
                          M       if (PREV_BANK == 1)
                          M         bsf     STATUS, RP1
                          M       endif
                          M       if (PREV_BANK == 2)
                          M         bsf     STATUS, RP0
                          M       endif
                          M PREV_BANK = 3
                          M     endif
0171   0838               M         movf    _dato, W
                          M         CHK?RP  R2
                          M     if (((R2)    & 180h) == 0)
                          M       if (PREV_BANK == 1)
                          M         bcf     STATUS, RP0
                          M       endif
                          M       if (PREV_BANK == 2)
                          M         bcf     STATUS, RP1
                          M       endif
                          M       if (PREV_BANK == 3)
                          M         bcf     STATUS, RP0
                          M         bcf     STATUS, RP1
                          M       endif
  00000000                M PREV_BANK = 0
                          M     endif
                          M 
                          M     if (((R2)    & 180h) == 80h)
                          M       if (PREV_BANK == 0)
                          M         bsf     STATUS, RP0
                          M       endif
                          M       if (PREV_BANK == 2)
                          M         bsf     STATUS, RP0
                          M         bcf     STATUS, RP1
                          M       endif
                          M       if (PREV_BANK == 3)
                          M         bcf     STATUS, RP1
                          M       endif
                          M PREV_BANK = 1
                          M     endif
                          M 
                          M     if (((R2)    & 180h) == 100h)
                          M       if (PREV_BANK == 0)
                          M         bsf     STATUS, RP1
                          M       endif
                          M       if (PREV_BANK == 1)
                          M         bcf     STATUS, RP0
                          M         bsf     STATUS, RP1
                          M       endif
                          M       if (PREV_BANK == 3)
                          M         bcf     STATUS, RP0
                          M       endif
                          M PREV_BANK = 2
                          M     endif
MPASM  5.49                      SDCCON~1.ASM   7-1-2005  0:07:41         PAGE 69


LOC  OBJECT CODE     LINE SOURCE TEXT
  VALUE

                          M 
                          M     if (((R2)    & 180h) == 180h)
                          M       if (PREV_BANK == 0)
                          M         bsf     STATUS, RP0
                          M         bsf     STATUS, RP1
                          M       endif
                          M       if (PREV_BANK == 1)
                          M         bsf     STATUS, RP1
                          M       endif
                          M       if (PREV_BANK == 2)
                          M         bsf     STATUS, RP0
                          M       endif
                          M PREV_BANK = 3
                          M     endif
0172   00A4               M         movwf   R2
                          M         MOVE?BB (_dato) + 1, (R2) + 1
                          M         CHK?RP  (_dato) + 1
                          M     if ((((_dato) + 1) & 180h) == 0)
                          M       if (PREV_BANK == 1)
                          M         bcf     STATUS, RP0
                          M       endif
                          M       if (PREV_BANK == 2)
                          M         bcf     STATUS, RP1
                          M       endif
                          M       if (PREV_BANK == 3)
                          M         bcf     STATUS, RP0
                          M         bcf     STATUS, RP1
                          M       endif
  00000000                M PREV_BANK = 0
                          M     endif
                          M 
                          M     if ((((_dato) + 1) & 180h) == 80h)
                          M       if (PREV_BANK == 0)
                          M         bsf     STATUS, RP0
                          M       endif
                          M       if (PREV_BANK == 2)
                          M         bsf     STATUS, RP0
                          M         bcf     STATUS, RP1
                          M       endif
                          M       if (PREV_BANK == 3)
                          M         bcf     STATUS, RP1
                          M       endif
                          M PREV_BANK = 1
                          M     endif
                          M 
                          M     if ((((_dato) + 1) & 180h) == 100h)
                          M       if (PREV_BANK == 0)
                          M         bsf     STATUS, RP1
                          M       endif
                          M       if (PREV_BANK == 1)
                          M         bcf     STATUS, RP0
                          M         bsf     STATUS, RP1
                          M       endif
MPASM  5.49                      SDCCON~1.ASM   7-1-2005  0:07:41         PAGE 70


LOC  OBJECT CODE     LINE SOURCE TEXT
  VALUE

                          M       if (PREV_BANK == 3)
                          M         bcf     STATUS, RP0
                          M       endif
                          M PREV_BANK = 2
                          M     endif
                          M 
                          M     if ((((_dato) + 1) & 180h) == 180h)
                          M       if (PREV_BANK == 0)
                          M         bsf     STATUS, RP0
                          M         bsf     STATUS, RP1
                          M       endif
                          M       if (PREV_BANK == 1)
                          M         bsf     STATUS, RP1
                          M       endif
                          M       if (PREV_BANK == 2)
                          M         bsf     STATUS, RP0
                          M       endif
                          M PREV_BANK = 3
                          M     endif
0173   0839               M         movf    (_dato) + 1, W
                          M         CHK?RP  (R2) + 1
                          M     if ((((R2) + 1) & 180h) == 0)
                          M       if (PREV_BANK == 1)
                          M         bcf     STATUS, RP0
                          M       endif
                          M       if (PREV_BANK == 2)
                          M         bcf     STATUS, RP1
                          M       endif
                          M       if (PREV_BANK == 3)
                          M         bcf     STATUS, RP0
                          M         bcf     STATUS, RP1
                          M       endif
  00000000                M PREV_BANK = 0
                          M     endif
                          M 
                          M     if ((((R2) + 1) & 180h) == 80h)
                          M       if (PREV_BANK == 0)
                          M         bsf     STATUS, RP0
                          M       endif
                          M       if (PREV_BANK == 2)
                          M         bsf     STATUS, RP0
                          M         bcf     STATUS, RP1
                          M       endif
                          M       if (PREV_BANK == 3)
                          M         bcf     STATUS, RP1
                          M       endif
                          M PREV_BANK = 1
                          M     endif
                          M 
                          M     if ((((R2) + 1) & 180h) == 100h)
                          M       if (PREV_BANK == 0)
                          M         bsf     STATUS, RP1
                          M       endif
MPASM  5.49                      SDCCON~1.ASM   7-1-2005  0:07:41         PAGE 71


LOC  OBJECT CODE     LINE SOURCE TEXT
  VALUE

                          M       if (PREV_BANK == 1)
                          M         bcf     STATUS, RP0
                          M         bsf     STATUS, RP1
                          M       endif
                          M       if (PREV_BANK == 3)
                          M         bcf     STATUS, RP0
                          M       endif
                          M PREV_BANK = 2
                          M     endif
                          M 
                          M     if ((((R2) + 1) & 180h) == 180h)
                          M       if (PREV_BANK == 0)
                          M         bsf     STATUS, RP0
                          M         bsf     STATUS, RP1
                          M       endif
                          M       if (PREV_BANK == 1)
                          M         bsf     STATUS, RP1
                          M       endif
                          M       if (PREV_BANK == 2)
                          M         bsf     STATUS, RP0
                          M       endif
                          M PREV_BANK = 3
                          M     endif
0174   00A5               M         movwf   (R2) + 1
                      00117         LCDOUTDEC?      
                          M         MOVE?CW LCDOUTJ, R8
                          M         MOVE?CB low (LCDOUTJ), R8
                          M         CHK?RP  R8
                          M     if (((R8)    & 180h) == 0)
                          M       if (PREV_BANK == 1)
                          M         bcf     STATUS, RP0
                          M       endif
                          M       if (PREV_BANK == 2)
                          M         bcf     STATUS, RP1
                          M       endif
                          M       if (PREV_BANK == 3)
                          M         bcf     STATUS, RP0
                          M         bcf     STATUS, RP1
                          M       endif
  00000000                M PREV_BANK = 0
                          M     endif
                          M 
                          M     if (((R8)    & 180h) == 80h)
                          M       if (PREV_BANK == 0)
                          M         bsf     STATUS, RP0
                          M       endif
                          M       if (PREV_BANK == 2)
                          M         bsf     STATUS, RP0
                          M         bcf     STATUS, RP1
                          M       endif
                          M       if (PREV_BANK == 3)
                          M         bcf     STATUS, RP1
                          M       endif
MPASM  5.49                      SDCCON~1.ASM   7-1-2005  0:07:41         PAGE 72


LOC  OBJECT CODE     LINE SOURCE TEXT
  VALUE

                          M PREV_BANK = 1
                          M     endif
                          M 
                          M     if (((R8)    & 180h) == 100h)
                          M       if (PREV_BANK == 0)
                          M         bsf     STATUS, RP1
                          M       endif
                          M       if (PREV_BANK == 1)
                          M         bcf     STATUS, RP0
                          M         bsf     STATUS, RP1
                          M       endif
                          M       if (PREV_BANK == 3)
                          M         bcf     STATUS, RP0
                          M       endif
                          M PREV_BANK = 2
                          M     endif
                          M 
                          M     if (((R8)    & 180h) == 180h)
                          M       if (PREV_BANK == 0)
                          M         bsf     STATUS, RP0
                          M         bsf     STATUS, RP1
                          M       endif
                          M       if (PREV_BANK == 1)
                          M         bsf     STATUS, RP1
                          M       endif
                          M       if (PREV_BANK == 2)
                          M         bsf     STATUS, RP0
                          M       endif
                          M PREV_BANK = 3
                          M     endif
                          M     if (low (low (LCDOUTJ)) == 0)
                          M         clrf    R8
                          M     else
0175   3002               M         movlw   low (low (LCDOUTJ))
0176   00B0               M         movwf   R8
                          M     endif
                          M         MOVE?CB high (LCDOUTJ), (R8) + 1
                          M         CHK?RP  (R8) + 1
                          M     if ((((R8) + 1) & 180h) == 0)
                          M       if (PREV_BANK == 1)
                          M         bcf     STATUS, RP0
                          M       endif
                          M       if (PREV_BANK == 2)
                          M         bcf     STATUS, RP1
                          M       endif
                          M       if (PREV_BANK == 3)
                          M         bcf     STATUS, RP0
                          M         bcf     STATUS, RP1
                          M       endif
  00000000                M PREV_BANK = 0
                          M     endif
                          M 
                          M     if ((((R8) + 1) & 180h) == 80h)
MPASM  5.49                      SDCCON~1.ASM   7-1-2005  0:07:41         PAGE 73


LOC  OBJECT CODE     LINE SOURCE TEXT
  VALUE

                          M       if (PREV_BANK == 0)
                          M         bsf     STATUS, RP0
                          M       endif
                          M       if (PREV_BANK == 2)
                          M         bsf     STATUS, RP0
                          M         bcf     STATUS, RP1
                          M       endif
                          M       if (PREV_BANK == 3)
                          M         bcf     STATUS, RP1
                          M       endif
                          M PREV_BANK = 1
                          M     endif
                          M 
                          M     if ((((R8) + 1) & 180h) == 100h)
                          M       if (PREV_BANK == 0)
                          M         bsf     STATUS, RP1
                          M       endif
                          M       if (PREV_BANK == 1)
                          M         bcf     STATUS, RP0
                          M         bsf     STATUS, RP1
                          M       endif
                          M       if (PREV_BANK == 3)
                          M         bcf     STATUS, RP0
                          M       endif
                          M PREV_BANK = 2
                          M     endif
                          M 
                          M     if ((((R8) + 1) & 180h) == 180h)
                          M       if (PREV_BANK == 0)
                          M         bsf     STATUS, RP0
                          M         bsf     STATUS, RP1
                          M       endif
                          M       if (PREV_BANK == 1)
                          M         bsf     STATUS, RP1
                          M       endif
                          M       if (PREV_BANK == 2)
                          M         bsf     STATUS, RP0
                          M       endif
                          M PREV_BANK = 3
                          M     endif
                          M     if (low (high (LCDOUTJ)) == 0)
0177   01B1               M         clrf    (R8) + 1
                          M     else
                          M         movlw   low (high (LCDOUTJ))
                          M         movwf   (R8) + 1
                          M     endif
                          M         L?CALL  SEROUT2DEC
                          M         RST?RP
                          M     if ((PREV_BANK & 1) != 0)
                          M         bcf     STATUS, RP0
                          M     endif
                          M     if ((PREV_BANK & 2) != 0)
                          M         bcf     STATUS, RP1
MPASM  5.49                      SDCCON~1.ASM   7-1-2005  0:07:41         PAGE 74


LOC  OBJECT CODE     LINE SOURCE TEXT
  VALUE

                          M     endif
  00000000                M PREV_BANK = 0
                          M 
                          M     if ((SEROUT2DEC) < 1)
                          M       if (CODE_SIZE >= 4)
                          M         if (((SEROUT2DEC) & 800h) == 0)
                          M         bcf     PCLATH, 3
                          M         else
                          M         bsf     PCLATH, 3
                          M         endif
                          M       endif
                          M       if (CODE_SIZE == 8)
                          M         if (((SEROUT2DEC) & 1000h) == 0)
                          M         bcf     PCLATH, 4
                          M         else
                          M         bsf     PCLATH, 4
                          M         endif
                          M       endif
                          M     else
                          M       if ((SEROUT2DEC) > $)
                          M         if (CODE_SIZE >= 4)
                          M           if (((SEROUT2DEC) & 800h) == 0)
                          M         bcf     PCLATH, 3
                          M           else
                          M         bsf     PCLATH, 3
                          M           endif
                          M         endif
                          M         if (CODE_SIZE == 8)
                          M           if (((SEROUT2DEC) & 1000h) == 0)
                          M         bcf     PCLATH, 4
                          M           else
                          M         bsf     PCLATH, 4
                          M           endif
                          M         endif
                          M       else
                          M         if (CODE_SIZE >= 4)
                          M           if (((SEROUT2DEC) & 1800h) == 0)
0178   018A               M         clrf    PCLATH
                          M           else
                          M             if (((SEROUT2DEC) & 800h) == 0)
                          M         bcf     PCLATH, 3
                          M             else
                          M         bsf     PCLATH, 3
                          M             endif
                          M             if (CODE_SIZE == 8)
                          M               if (((SEROUT2DEC) & 1000h) == 0)
                          M         bcf     PCLATH, 4
                          M               else
                          M         bsf     PCLATH, 4
                          M               endif
                          M             endif
                          M           endif
                          M         endif
MPASM  5.49                      SDCCON~1.ASM   7-1-2005  0:07:41         PAGE 75


LOC  OBJECT CODE     LINE SOURCE TEXT
  VALUE

                          M       endif
                          M     endif
                          M 
0179   2052               M         call    SEROUT2DEC
                      00118         LCDOUT?C        _g
017A   30DF               M         movlw   _g
                          M         L?CALL  LCDOUT
                          M         RST?RP
                          M     if ((PREV_BANK & 1) != 0)
                          M         bcf     STATUS, RP0
                          M     endif
                          M     if ((PREV_BANK & 2) != 0)
                          M         bcf     STATUS, RP1
                          M     endif
  00000000                M PREV_BANK = 0
                          M 
                          M     if ((LCDOUT) < 1)
                          M       if (CODE_SIZE >= 4)
                          M         if (((LCDOUT) & 800h) == 0)
                          M         bcf     PCLATH, 3
                          M         else
                          M         bsf     PCLATH, 3
                          M         endif
                          M       endif
                          M       if (CODE_SIZE == 8)
                          M         if (((LCDOUT) & 1000h) == 0)
                          M         bcf     PCLATH, 4
                          M         else
                          M         bsf     PCLATH, 4
                          M         endif
                          M       endif
                          M     else
                          M       if ((LCDOUT) > $)
                          M         if (CODE_SIZE >= 4)
                          M           if (((LCDOUT) & 800h) == 0)
                          M         bcf     PCLATH, 3
                          M           else
                          M         bsf     PCLATH, 3
                          M           endif
                          M         endif
                          M         if (CODE_SIZE == 8)
                          M           if (((LCDOUT) & 1000h) == 0)
                          M         bcf     PCLATH, 4
                          M           else
                          M         bsf     PCLATH, 4
                          M           endif
                          M         endif
                          M       else
                          M         if (CODE_SIZE >= 4)
                          M           if (((LCDOUT) & 1800h) == 0)
017B   018A               M         clrf    PCLATH
                          M           else
                          M             if (((LCDOUT) & 800h) == 0)
MPASM  5.49                      SDCCON~1.ASM   7-1-2005  0:07:41         PAGE 76


LOC  OBJECT CODE     LINE SOURCE TEXT
  VALUE

                          M         bcf     PCLATH, 3
                          M             else
                          M         bsf     PCLATH, 3
                          M             endif
                          M             if (CODE_SIZE == 8)
                          M               if (((LCDOUT) & 1000h) == 0)
                          M         bcf     PCLATH, 4
                          M               else
                          M         bsf     PCLATH, 4
                          M               endif
                          M             endif
                          M           endif
                          M         endif
                          M       endif
                          M     endif
                          M 
017C   2003               M         call    LCDOUT
                      00119         LCDOUT?C        043h
017D   3043               M         movlw   043h
                          M         L?CALL  LCDOUT
                          M         RST?RP
                          M     if ((PREV_BANK & 1) != 0)
                          M         bcf     STATUS, RP0
                          M     endif
                          M     if ((PREV_BANK & 2) != 0)
                          M         bcf     STATUS, RP1
                          M     endif
  00000000                M PREV_BANK = 0
                          M 
                          M     if ((LCDOUT) < 1)
                          M       if (CODE_SIZE >= 4)
                          M         if (((LCDOUT) & 800h) == 0)
                          M         bcf     PCLATH, 3
                          M         else
                          M         bsf     PCLATH, 3
                          M         endif
                          M       endif
                          M       if (CODE_SIZE == 8)
                          M         if (((LCDOUT) & 1000h) == 0)
                          M         bcf     PCLATH, 4
                          M         else
                          M         bsf     PCLATH, 4
                          M         endif
                          M       endif
                          M     else
                          M       if ((LCDOUT) > $)
                          M         if (CODE_SIZE >= 4)
                          M           if (((LCDOUT) & 800h) == 0)
                          M         bcf     PCLATH, 3
                          M           else
                          M         bsf     PCLATH, 3
                          M           endif
                          M         endif
MPASM  5.49                      SDCCON~1.ASM   7-1-2005  0:07:41         PAGE 77


LOC  OBJECT CODE     LINE SOURCE TEXT
  VALUE

                          M         if (CODE_SIZE == 8)
                          M           if (((LCDOUT) & 1000h) == 0)
                          M         bcf     PCLATH, 4
                          M           else
                          M         bsf     PCLATH, 4
                          M           endif
                          M         endif
                          M       else
                          M         if (CODE_SIZE >= 4)
                          M           if (((LCDOUT) & 1800h) == 0)
017E   018A               M         clrf    PCLATH
                          M           else
                          M             if (((LCDOUT) & 800h) == 0)
                          M         bcf     PCLATH, 3
                          M             else
                          M         bsf     PCLATH, 3
                          M             endif
                          M             if (CODE_SIZE == 8)
                          M               if (((LCDOUT) & 1000h) == 0)
                          M         bcf     PCLATH, 4
                          M               else
                          M         bsf     PCLATH, 4
                          M               endif
                          M             endif
                          M           endif
                          M         endif
                          M       endif
                          M     endif
                          M 
017F   2003               M         call    LCDOUT
                      00120         LCDOUT?C        0FEh
0180   30FE               M         movlw   0FEh
                          M         L?CALL  LCDOUT
                          M         RST?RP
                          M     if ((PREV_BANK & 1) != 0)
                          M         bcf     STATUS, RP0
                          M     endif
                          M     if ((PREV_BANK & 2) != 0)
                          M         bcf     STATUS, RP1
                          M     endif
  00000000                M PREV_BANK = 0
                          M 
                          M     if ((LCDOUT) < 1)
                          M       if (CODE_SIZE >= 4)
                          M         if (((LCDOUT) & 800h) == 0)
                          M         bcf     PCLATH, 3
                          M         else
                          M         bsf     PCLATH, 3
                          M         endif
                          M       endif
                          M       if (CODE_SIZE == 8)
                          M         if (((LCDOUT) & 1000h) == 0)
                          M         bcf     PCLATH, 4
MPASM  5.49                      SDCCON~1.ASM   7-1-2005  0:07:41         PAGE 78


LOC  OBJECT CODE     LINE SOURCE TEXT
  VALUE

                          M         else
                          M         bsf     PCLATH, 4
                          M         endif
                          M       endif
                          M     else
                          M       if ((LCDOUT) > $)
                          M         if (CODE_SIZE >= 4)
                          M           if (((LCDOUT) & 800h) == 0)
                          M         bcf     PCLATH, 3
                          M           else
                          M         bsf     PCLATH, 3
                          M           endif
                          M         endif
                          M         if (CODE_SIZE == 8)
                          M           if (((LCDOUT) & 1000h) == 0)
                          M         bcf     PCLATH, 4
                          M           else
                          M         bsf     PCLATH, 4
                          M           endif
                          M         endif
                          M       else
                          M         if (CODE_SIZE >= 4)
                          M           if (((LCDOUT) & 1800h) == 0)
0181   018A               M         clrf    PCLATH
                          M           else
                          M             if (((LCDOUT) & 800h) == 0)
                          M         bcf     PCLATH, 3
                          M             else
                          M         bsf     PCLATH, 3
                          M             endif
                          M             if (CODE_SIZE == 8)
                          M               if (((LCDOUT) & 1000h) == 0)
                          M         bcf     PCLATH, 4
                          M               else
                          M         bsf     PCLATH, 4
                          M               endif
                          M             endif
                          M           endif
                          M         endif
                          M       endif
                          M     endif
                          M 
0182   2003               M         call    LCDOUT
                      00121         LCDOUT?C        0C0h
0183   30C0               M         movlw   0C0h
                          M         L?CALL  LCDOUT
                          M         RST?RP
                          M     if ((PREV_BANK & 1) != 0)
                          M         bcf     STATUS, RP0
                          M     endif
                          M     if ((PREV_BANK & 2) != 0)
                          M         bcf     STATUS, RP1
                          M     endif
MPASM  5.49                      SDCCON~1.ASM   7-1-2005  0:07:41         PAGE 79


LOC  OBJECT CODE     LINE SOURCE TEXT
  VALUE

  00000000                M PREV_BANK = 0
                          M 
                          M     if ((LCDOUT) < 1)
                          M       if (CODE_SIZE >= 4)
                          M         if (((LCDOUT) & 800h) == 0)
                          M         bcf     PCLATH, 3
                          M         else
                          M         bsf     PCLATH, 3
                          M         endif
                          M       endif
                          M       if (CODE_SIZE == 8)
                          M         if (((LCDOUT) & 1000h) == 0)
                          M         bcf     PCLATH, 4
                          M         else
                          M         bsf     PCLATH, 4
                          M         endif
                          M       endif
                          M     else
                          M       if ((LCDOUT) > $)
                          M         if (CODE_SIZE >= 4)
                          M           if (((LCDOUT) & 800h) == 0)
                          M         bcf     PCLATH, 3
                          M           else
                          M         bsf     PCLATH, 3
                          M           endif
                          M         endif
                          M         if (CODE_SIZE == 8)
                          M           if (((LCDOUT) & 1000h) == 0)
                          M         bcf     PCLATH, 4
                          M           else
                          M         bsf     PCLATH, 4
                          M           endif
                          M         endif
                          M       else
                          M         if (CODE_SIZE >= 4)
                          M           if (((LCDOUT) & 1800h) == 0)
0184   018A               M         clrf    PCLATH
                          M           else
                          M             if (((LCDOUT) & 800h) == 0)
                          M         bcf     PCLATH, 3
                          M             else
                          M         bsf     PCLATH, 3
                          M             endif
                          M             if (CODE_SIZE == 8)
                          M               if (((LCDOUT) & 1000h) == 0)
                          M         bcf     PCLATH, 4
                          M               else
                          M         bsf     PCLATH, 4
                          M               endif
                          M             endif
                          M           endif
                          M         endif
                          M       endif
MPASM  5.49                      SDCCON~1.ASM   7-1-2005  0:07:41         PAGE 80


LOC  OBJECT CODE     LINE SOURCE TEXT
  VALUE

                          M     endif
                          M 
0185   2003               M         call    LCDOUT
                      00122         LCDOUTCOUNT?C   000h
                          M         MOVE?CB 000h, R4 + 1
                          M         CHK?RP  R4 + 1
                          M     if (((R4 + 1) & 180h) == 0)
                          M       if (PREV_BANK == 1)
                          M         bcf     STATUS, RP0
                          M       endif
                          M       if (PREV_BANK == 2)
                          M         bcf     STATUS, RP1
                          M       endif
                          M       if (PREV_BANK == 3)
                          M         bcf     STATUS, RP0
                          M         bcf     STATUS, RP1
                          M       endif
  00000000                M PREV_BANK = 0
                          M     endif
                          M 
                          M     if (((R4 + 1) & 180h) == 80h)
                          M       if (PREV_BANK == 0)
                          M         bsf     STATUS, RP0
                          M       endif
                          M       if (PREV_BANK == 2)
                          M         bsf     STATUS, RP0
                          M         bcf     STATUS, RP1
                          M       endif
                          M       if (PREV_BANK == 3)
                          M         bcf     STATUS, RP1
                          M       endif
                          M PREV_BANK = 1
                          M     endif
                          M 
                          M     if (((R4 + 1) & 180h) == 100h)
                          M       if (PREV_BANK == 0)
                          M         bsf     STATUS, RP1
                          M       endif
                          M       if (PREV_BANK == 1)
                          M         bcf     STATUS, RP0
                          M         bsf     STATUS, RP1
                          M       endif
                          M       if (PREV_BANK == 3)
                          M         bcf     STATUS, RP0
                          M       endif
                          M PREV_BANK = 2
                          M     endif
                          M 
                          M     if (((R4 + 1) & 180h) == 180h)
                          M       if (PREV_BANK == 0)
                          M         bsf     STATUS, RP0
                          M         bsf     STATUS, RP1
                          M       endif
MPASM  5.49                      SDCCON~1.ASM   7-1-2005  0:07:41         PAGE 81


LOC  OBJECT CODE     LINE SOURCE TEXT
  VALUE

                          M       if (PREV_BANK == 1)
                          M         bsf     STATUS, RP1
                          M       endif
                          M       if (PREV_BANK == 2)
                          M         bsf     STATUS, RP0
                          M       endif
                          M PREV_BANK = 3
                          M     endif
                          M     if (low (000h) == 0)
0186   01A9               M         clrf    R4 + 1
                          M     else
                          M         movlw   low (000h)
                          M         movwf   R4 + 1
                          M     endif
                      00123         LCDOUTNUM?B     _tempMin
                          M         MOVE?BW _tempMin, R2
                          M         CHK?RP  _tempMin
                          M     if (((_tempMin) & 180h) == 0)
                          M       if (PREV_BANK == 1)
                          M         bcf     STATUS, RP0
                          M       endif
                          M       if (PREV_BANK == 2)
                          M         bcf     STATUS, RP1
                          M       endif
                          M       if (PREV_BANK == 3)
                          M         bcf     STATUS, RP0
                          M         bcf     STATUS, RP1
                          M       endif
  00000000                M PREV_BANK = 0
                          M     endif
                          M 
                          M     if (((_tempMin) & 180h) == 80h)
                          M       if (PREV_BANK == 0)
                          M         bsf     STATUS, RP0
                          M       endif
                          M       if (PREV_BANK == 2)
                          M         bsf     STATUS, RP0
                          M         bcf     STATUS, RP1
                          M       endif
                          M       if (PREV_BANK == 3)
                          M         bcf     STATUS, RP1
                          M       endif
                          M PREV_BANK = 1
                          M     endif
                          M 
                          M     if (((_tempMin) & 180h) == 100h)
                          M       if (PREV_BANK == 0)
                          M         bsf     STATUS, RP1
                          M       endif
                          M       if (PREV_BANK == 1)
                          M         bcf     STATUS, RP0
                          M         bsf     STATUS, RP1
                          M       endif
MPASM  5.49                      SDCCON~1.ASM   7-1-2005  0:07:41         PAGE 82


LOC  OBJECT CODE     LINE SOURCE TEXT
  VALUE

                          M       if (PREV_BANK == 3)
                          M         bcf     STATUS, RP0
                          M       endif
                          M PREV_BANK = 2
                          M     endif
                          M 
                          M     if (((_tempMin) & 180h) == 180h)
                          M       if (PREV_BANK == 0)
                          M         bsf     STATUS, RP0
                          M         bsf     STATUS, RP1
                          M       endif
                          M       if (PREV_BANK == 1)
                          M         bsf     STATUS, RP1
                          M       endif
                          M       if (PREV_BANK == 2)
                          M         bsf     STATUS, RP0
                          M       endif
                          M PREV_BANK = 3
                          M     endif
0187   083B               M         movf    _tempMin, W
                          M         CHK?RP  R2
                          M     if (((R2)    & 180h) == 0)
                          M       if (PREV_BANK == 1)
                          M         bcf     STATUS, RP0
                          M       endif
                          M       if (PREV_BANK == 2)
                          M         bcf     STATUS, RP1
                          M       endif
                          M       if (PREV_BANK == 3)
                          M         bcf     STATUS, RP0
                          M         bcf     STATUS, RP1
                          M       endif
  00000000                M PREV_BANK = 0
                          M     endif
                          M 
                          M     if (((R2)    & 180h) == 80h)
                          M       if (PREV_BANK == 0)
                          M         bsf     STATUS, RP0
                          M       endif
                          M       if (PREV_BANK == 2)
                          M         bsf     STATUS, RP0
                          M         bcf     STATUS, RP1
                          M       endif
                          M       if (PREV_BANK == 3)
                          M         bcf     STATUS, RP1
                          M       endif
                          M PREV_BANK = 1
                          M     endif
                          M 
                          M     if (((R2)    & 180h) == 100h)
                          M       if (PREV_BANK == 0)
                          M         bsf     STATUS, RP1
                          M       endif
MPASM  5.49                      SDCCON~1.ASM   7-1-2005  0:07:41         PAGE 83


LOC  OBJECT CODE     LINE SOURCE TEXT
  VALUE

                          M       if (PREV_BANK == 1)
                          M         bcf     STATUS, RP0
                          M         bsf     STATUS, RP1
                          M       endif
                          M       if (PREV_BANK == 3)
                          M         bcf     STATUS, RP0
                          M       endif
                          M PREV_BANK = 2
                          M     endif
                          M 
                          M     if (((R2)    & 180h) == 180h)
                          M       if (PREV_BANK == 0)
                          M         bsf     STATUS, RP0
                          M         bsf     STATUS, RP1
                          M       endif
                          M       if (PREV_BANK == 1)
                          M         bsf     STATUS, RP1
                          M       endif
                          M       if (PREV_BANK == 2)
                          M         bsf     STATUS, RP0
                          M       endif
                          M PREV_BANK = 3
                          M     endif
0188   00A4               M         movwf   R2
0189   01A5               M         clrf    (R2)   + 1
                      00124         LCDOUTDEC?      
                          M         MOVE?CW LCDOUTJ, R8
                          M         MOVE?CB low (LCDOUTJ), R8
                          M         CHK?RP  R8
                          M     if (((R8)    & 180h) == 0)
                          M       if (PREV_BANK == 1)
                          M         bcf     STATUS, RP0
                          M       endif
                          M       if (PREV_BANK == 2)
                          M         bcf     STATUS, RP1
                          M       endif
                          M       if (PREV_BANK == 3)
                          M         bcf     STATUS, RP0
                          M         bcf     STATUS, RP1
                          M       endif
  00000000                M PREV_BANK = 0
                          M     endif
                          M 
                          M     if (((R8)    & 180h) == 80h)
                          M       if (PREV_BANK == 0)
                          M         bsf     STATUS, RP0
                          M       endif
                          M       if (PREV_BANK == 2)
                          M         bsf     STATUS, RP0
                          M         bcf     STATUS, RP1
                          M       endif
                          M       if (PREV_BANK == 3)
                          M         bcf     STATUS, RP1
MPASM  5.49                      SDCCON~1.ASM   7-1-2005  0:07:41         PAGE 84


LOC  OBJECT CODE     LINE SOURCE TEXT
  VALUE

                          M       endif
                          M PREV_BANK = 1
                          M     endif
                          M 
                          M     if (((R8)    & 180h) == 100h)
                          M       if (PREV_BANK == 0)
                          M         bsf     STATUS, RP1
                          M       endif
                          M       if (PREV_BANK == 1)
                          M         bcf     STATUS, RP0
                          M         bsf     STATUS, RP1
                          M       endif
                          M       if (PREV_BANK == 3)
                          M         bcf     STATUS, RP0
                          M       endif
                          M PREV_BANK = 2
                          M     endif
                          M 
                          M     if (((R8)    & 180h) == 180h)
                          M       if (PREV_BANK == 0)
                          M         bsf     STATUS, RP0
                          M         bsf     STATUS, RP1
                          M       endif
                          M       if (PREV_BANK == 1)
                          M         bsf     STATUS, RP1
                          M       endif
                          M       if (PREV_BANK == 2)
                          M         bsf     STATUS, RP0
                          M       endif
                          M PREV_BANK = 3
                          M     endif
                          M     if (low (low (LCDOUTJ)) == 0)
                          M         clrf    R8
                          M     else
018A   3002               M         movlw   low (low (LCDOUTJ))
018B   00B0               M         movwf   R8
                          M     endif
                          M         MOVE?CB high (LCDOUTJ), (R8) + 1
                          M         CHK?RP  (R8) + 1
                          M     if ((((R8) + 1) & 180h) == 0)
                          M       if (PREV_BANK == 1)
                          M         bcf     STATUS, RP0
                          M       endif
                          M       if (PREV_BANK == 2)
                          M         bcf     STATUS, RP1
                          M       endif
                          M       if (PREV_BANK == 3)
                          M         bcf     STATUS, RP0
                          M         bcf     STATUS, RP1
                          M       endif
  00000000                M PREV_BANK = 0
                          M     endif
                          M 
MPASM  5.49                      SDCCON~1.ASM   7-1-2005  0:07:41         PAGE 85


LOC  OBJECT CODE     LINE SOURCE TEXT
  VALUE

                          M     if ((((R8) + 1) & 180h) == 80h)
                          M       if (PREV_BANK == 0)
                          M         bsf     STATUS, RP0
                          M       endif
                          M       if (PREV_BANK == 2)
                          M         bsf     STATUS, RP0
                          M         bcf     STATUS, RP1
                          M       endif
                          M       if (PREV_BANK == 3)
                          M         bcf     STATUS, RP1
                          M       endif
                          M PREV_BANK = 1
                          M     endif
                          M 
                          M     if ((((R8) + 1) & 180h) == 100h)
                          M       if (PREV_BANK == 0)
                          M         bsf     STATUS, RP1
                          M       endif
                          M       if (PREV_BANK == 1)
                          M         bcf     STATUS, RP0
                          M         bsf     STATUS, RP1
                          M       endif
                          M       if (PREV_BANK == 3)
                          M         bcf     STATUS, RP0
                          M       endif
                          M PREV_BANK = 2
                          M     endif
                          M 
                          M     if ((((R8) + 1) & 180h) == 180h)
                          M       if (PREV_BANK == 0)
                          M         bsf     STATUS, RP0
                          M         bsf     STATUS, RP1
                          M       endif
                          M       if (PREV_BANK == 1)
                          M         bsf     STATUS, RP1
                          M       endif
                          M       if (PREV_BANK == 2)
                          M         bsf     STATUS, RP0
                          M       endif
                          M PREV_BANK = 3
                          M     endif
                          M     if (low (high (LCDOUTJ)) == 0)
018C   01B1               M         clrf    (R8) + 1
                          M     else
                          M         movlw   low (high (LCDOUTJ))
                          M         movwf   (R8) + 1
                          M     endif
                          M         L?CALL  SEROUT2DEC
                          M         RST?RP
                          M     if ((PREV_BANK & 1) != 0)
                          M         bcf     STATUS, RP0
                          M     endif
                          M     if ((PREV_BANK & 2) != 0)
MPASM  5.49                      SDCCON~1.ASM   7-1-2005  0:07:41         PAGE 86


LOC  OBJECT CODE     LINE SOURCE TEXT
  VALUE

                          M         bcf     STATUS, RP1
                          M     endif
  00000000                M PREV_BANK = 0
                          M 
                          M     if ((SEROUT2DEC) < 1)
                          M       if (CODE_SIZE >= 4)
                          M         if (((SEROUT2DEC) & 800h) == 0)
                          M         bcf     PCLATH, 3
                          M         else
                          M         bsf     PCLATH, 3
                          M         endif
                          M       endif
                          M       if (CODE_SIZE == 8)
                          M         if (((SEROUT2DEC) & 1000h) == 0)
                          M         bcf     PCLATH, 4
                          M         else
                          M         bsf     PCLATH, 4
                          M         endif
                          M       endif
                          M     else
                          M       if ((SEROUT2DEC) > $)
                          M         if (CODE_SIZE >= 4)
                          M           if (((SEROUT2DEC) & 800h) == 0)
                          M         bcf     PCLATH, 3
                          M           else
                          M         bsf     PCLATH, 3
                          M           endif
                          M         endif
                          M         if (CODE_SIZE == 8)
                          M           if (((SEROUT2DEC) & 1000h) == 0)
                          M         bcf     PCLATH, 4
                          M           else
                          M         bsf     PCLATH, 4
                          M           endif
                          M         endif
                          M       else
                          M         if (CODE_SIZE >= 4)
                          M           if (((SEROUT2DEC) & 1800h) == 0)
018D   018A               M         clrf    PCLATH
                          M           else
                          M             if (((SEROUT2DEC) & 800h) == 0)
                          M         bcf     PCLATH, 3
                          M             else
                          M         bsf     PCLATH, 3
                          M             endif
                          M             if (CODE_SIZE == 8)
                          M               if (((SEROUT2DEC) & 1000h) == 0)
                          M         bcf     PCLATH, 4
                          M               else
                          M         bsf     PCLATH, 4
                          M               endif
                          M             endif
                          M           endif
MPASM  5.49                      SDCCON~1.ASM   7-1-2005  0:07:41         PAGE 87


LOC  OBJECT CODE     LINE SOURCE TEXT
  VALUE

                          M         endif
                          M       endif
                          M     endif
                          M 
018E   2052               M         call    SEROUT2DEC
                      00125         LCDOUT?C        _g
018F   30DF               M         movlw   _g
                          M         L?CALL  LCDOUT
                          M         RST?RP
                          M     if ((PREV_BANK & 1) != 0)
                          M         bcf     STATUS, RP0
                          M     endif
                          M     if ((PREV_BANK & 2) != 0)
                          M         bcf     STATUS, RP1
                          M     endif
  00000000                M PREV_BANK = 0
                          M 
                          M     if ((LCDOUT) < 1)
                          M       if (CODE_SIZE >= 4)
                          M         if (((LCDOUT) & 800h) == 0)
                          M         bcf     PCLATH, 3
                          M         else
                          M         bsf     PCLATH, 3
                          M         endif
                          M       endif
                          M       if (CODE_SIZE == 8)
                          M         if (((LCDOUT) & 1000h) == 0)
                          M         bcf     PCLATH, 4
                          M         else
                          M         bsf     PCLATH, 4
                          M         endif
                          M       endif
                          M     else
                          M       if ((LCDOUT) > $)
                          M         if (CODE_SIZE >= 4)
                          M           if (((LCDOUT) & 800h) == 0)
                          M         bcf     PCLATH, 3
                          M           else
                          M         bsf     PCLATH, 3
                          M           endif
                          M         endif
                          M         if (CODE_SIZE == 8)
                          M           if (((LCDOUT) & 1000h) == 0)
                          M         bcf     PCLATH, 4
                          M           else
                          M         bsf     PCLATH, 4
                          M           endif
                          M         endif
                          M       else
                          M         if (CODE_SIZE >= 4)
                          M           if (((LCDOUT) & 1800h) == 0)
0190   018A               M         clrf    PCLATH
                          M           else
MPASM  5.49                      SDCCON~1.ASM   7-1-2005  0:07:41         PAGE 88


LOC  OBJECT CODE     LINE SOURCE TEXT
  VALUE

                          M             if (((LCDOUT) & 800h) == 0)
                          M         bcf     PCLATH, 3
                          M             else
                          M         bsf     PCLATH, 3
                          M             endif
                          M             if (CODE_SIZE == 8)
                          M               if (((LCDOUT) & 1000h) == 0)
                          M         bcf     PCLATH, 4
                          M               else
                          M         bsf     PCLATH, 4
                          M               endif
                          M             endif
                          M           endif
                          M         endif
                          M       endif
                          M     endif
                          M 
0191   2003               M         call    LCDOUT
                      00126         LCDOUT?C        043h
0192   3043               M         movlw   043h
                          M         L?CALL  LCDOUT
                          M         RST?RP
                          M     if ((PREV_BANK & 1) != 0)
                          M         bcf     STATUS, RP0
                          M     endif
                          M     if ((PREV_BANK & 2) != 0)
                          M         bcf     STATUS, RP1
                          M     endif
  00000000                M PREV_BANK = 0
                          M 
                          M     if ((LCDOUT) < 1)
                          M       if (CODE_SIZE >= 4)
                          M         if (((LCDOUT) & 800h) == 0)
                          M         bcf     PCLATH, 3
                          M         else
                          M         bsf     PCLATH, 3
                          M         endif
                          M       endif
                          M       if (CODE_SIZE == 8)
                          M         if (((LCDOUT) & 1000h) == 0)
                          M         bcf     PCLATH, 4
                          M         else
                          M         bsf     PCLATH, 4
                          M         endif
                          M       endif
                          M     else
                          M       if ((LCDOUT) > $)
                          M         if (CODE_SIZE >= 4)
                          M           if (((LCDOUT) & 800h) == 0)
                          M         bcf     PCLATH, 3
                          M           else
                          M         bsf     PCLATH, 3
                          M           endif
MPASM  5.49                      SDCCON~1.ASM   7-1-2005  0:07:41         PAGE 89


LOC  OBJECT CODE     LINE SOURCE TEXT
  VALUE

                          M         endif
                          M         if (CODE_SIZE == 8)
                          M           if (((LCDOUT) & 1000h) == 0)
                          M         bcf     PCLATH, 4
                          M           else
                          M         bsf     PCLATH, 4
                          M           endif
                          M         endif
                          M       else
                          M         if (CODE_SIZE >= 4)
                          M           if (((LCDOUT) & 1800h) == 0)
0193   018A               M         clrf    PCLATH
                          M           else
                          M             if (((LCDOUT) & 800h) == 0)
                          M         bcf     PCLATH, 3
                          M             else
                          M         bsf     PCLATH, 3
                          M             endif
                          M             if (CODE_SIZE == 8)
                          M               if (((LCDOUT) & 1000h) == 0)
                          M         bcf     PCLATH, 4
                          M               else
                          M         bsf     PCLATH, 4
                          M               endif
                          M             endif
                          M           endif
                          M         endif
                          M       endif
                          M     endif
                          M 
0194   2003               M         call    LCDOUT
                      00127         LCDOUT?C        0FEh
0195   30FE               M         movlw   0FEh
                          M         L?CALL  LCDOUT
                          M         RST?RP
                          M     if ((PREV_BANK & 1) != 0)
                          M         bcf     STATUS, RP0
                          M     endif
                          M     if ((PREV_BANK & 2) != 0)
                          M         bcf     STATUS, RP1
                          M     endif
  00000000                M PREV_BANK = 0
                          M 
                          M     if ((LCDOUT) < 1)
                          M       if (CODE_SIZE >= 4)
                          M         if (((LCDOUT) & 800h) == 0)
                          M         bcf     PCLATH, 3
                          M         else
                          M         bsf     PCLATH, 3
                          M         endif
                          M       endif
                          M       if (CODE_SIZE == 8)
                          M         if (((LCDOUT) & 1000h) == 0)
MPASM  5.49                      SDCCON~1.ASM   7-1-2005  0:07:41         PAGE 90


LOC  OBJECT CODE     LINE SOURCE TEXT
  VALUE

                          M         bcf     PCLATH, 4
                          M         else
                          M         bsf     PCLATH, 4
                          M         endif
                          M       endif
                          M     else
                          M       if ((LCDOUT) > $)
                          M         if (CODE_SIZE >= 4)
                          M           if (((LCDOUT) & 800h) == 0)
                          M         bcf     PCLATH, 3
                          M           else
                          M         bsf     PCLATH, 3
                          M           endif
                          M         endif
                          M         if (CODE_SIZE == 8)
                          M           if (((LCDOUT) & 1000h) == 0)
                          M         bcf     PCLATH, 4
                          M           else
                          M         bsf     PCLATH, 4
                          M           endif
                          M         endif
                          M       else
                          M         if (CODE_SIZE >= 4)
                          M           if (((LCDOUT) & 1800h) == 0)
0196   018A               M         clrf    PCLATH
                          M           else
                          M             if (((LCDOUT) & 800h) == 0)
                          M         bcf     PCLATH, 3
                          M             else
                          M         bsf     PCLATH, 3
                          M             endif
                          M             if (CODE_SIZE == 8)
                          M               if (((LCDOUT) & 1000h) == 0)
                          M         bcf     PCLATH, 4
                          M               else
                          M         bsf     PCLATH, 4
                          M               endif
                          M             endif
                          M           endif
                          M         endif
                          M       endif
                          M     endif
                          M 
0197   2003               M         call    LCDOUT
                      00128         LCDOUT?C        0CCh
0198   30CC               M         movlw   0CCh
                          M         L?CALL  LCDOUT
                          M         RST?RP
                          M     if ((PREV_BANK & 1) != 0)
                          M         bcf     STATUS, RP0
                          M     endif
                          M     if ((PREV_BANK & 2) != 0)
                          M         bcf     STATUS, RP1
MPASM  5.49                      SDCCON~1.ASM   7-1-2005  0:07:41         PAGE 91


LOC  OBJECT CODE     LINE SOURCE TEXT
  VALUE

                          M     endif
  00000000                M PREV_BANK = 0
                          M 
                          M     if ((LCDOUT) < 1)
                          M       if (CODE_SIZE >= 4)
                          M         if (((LCDOUT) & 800h) == 0)
                          M         bcf     PCLATH, 3
                          M         else
                          M         bsf     PCLATH, 3
                          M         endif
                          M       endif
                          M       if (CODE_SIZE == 8)
                          M         if (((LCDOUT) & 1000h) == 0)
                          M         bcf     PCLATH, 4
                          M         else
                          M         bsf     PCLATH, 4
                          M         endif
                          M       endif
                          M     else
                          M       if ((LCDOUT) > $)
                          M         if (CODE_SIZE >= 4)
                          M           if (((LCDOUT) & 800h) == 0)
                          M         bcf     PCLATH, 3
                          M           else
                          M         bsf     PCLATH, 3
                          M           endif
                          M         endif
                          M         if (CODE_SIZE == 8)
                          M           if (((LCDOUT) & 1000h) == 0)
                          M         bcf     PCLATH, 4
                          M           else
                          M         bsf     PCLATH, 4
                          M           endif
                          M         endif
                          M       else
                          M         if (CODE_SIZE >= 4)
                          M           if (((LCDOUT) & 1800h) == 0)
0199   018A               M         clrf    PCLATH
                          M           else
                          M             if (((LCDOUT) & 800h) == 0)
                          M         bcf     PCLATH, 3
                          M             else
                          M         bsf     PCLATH, 3
                          M             endif
                          M             if (CODE_SIZE == 8)
                          M               if (((LCDOUT) & 1000h) == 0)
                          M         bcf     PCLATH, 4
                          M               else
                          M         bsf     PCLATH, 4
                          M               endif
                          M             endif
                          M           endif
                          M         endif
MPASM  5.49                      SDCCON~1.ASM   7-1-2005  0:07:41         PAGE 92


LOC  OBJECT CODE     LINE SOURCE TEXT
  VALUE

                          M       endif
                          M     endif
                          M 
019A   2003               M         call    LCDOUT
                      00129         LCDOUTCOUNT?C   000h
                          M         MOVE?CB 000h, R4 + 1
                          M         CHK?RP  R4 + 1
                          M     if (((R4 + 1) & 180h) == 0)
                          M       if (PREV_BANK == 1)
                          M         bcf     STATUS, RP0
                          M       endif
                          M       if (PREV_BANK == 2)
                          M         bcf     STATUS, RP1
                          M       endif
                          M       if (PREV_BANK == 3)
                          M         bcf     STATUS, RP0
                          M         bcf     STATUS, RP1
                          M       endif
  00000000                M PREV_BANK = 0
                          M     endif
                          M 
                          M     if (((R4 + 1) & 180h) == 80h)
                          M       if (PREV_BANK == 0)
                          M         bsf     STATUS, RP0
                          M       endif
                          M       if (PREV_BANK == 2)
                          M         bsf     STATUS, RP0
                          M         bcf     STATUS, RP1
                          M       endif
                          M       if (PREV_BANK == 3)
                          M         bcf     STATUS, RP1
                          M       endif
                          M PREV_BANK = 1
                          M     endif
                          M 
                          M     if (((R4 + 1) & 180h) == 100h)
                          M       if (PREV_BANK == 0)
                          M         bsf     STATUS, RP1
                          M       endif
                          M       if (PREV_BANK == 1)
                          M         bcf     STATUS, RP0
                          M         bsf     STATUS, RP1
                          M       endif
                          M       if (PREV_BANK == 3)
                          M         bcf     STATUS, RP0
                          M       endif
                          M PREV_BANK = 2
                          M     endif
                          M 
                          M     if (((R4 + 1) & 180h) == 180h)
                          M       if (PREV_BANK == 0)
                          M         bsf     STATUS, RP0
                          M         bsf     STATUS, RP1
MPASM  5.49                      SDCCON~1.ASM   7-1-2005  0:07:41         PAGE 93


LOC  OBJECT CODE     LINE SOURCE TEXT
  VALUE

                          M       endif
                          M       if (PREV_BANK == 1)
                          M         bsf     STATUS, RP1
                          M       endif
                          M       if (PREV_BANK == 2)
                          M         bsf     STATUS, RP0
                          M       endif
                          M PREV_BANK = 3
                          M     endif
                          M     if (low (000h) == 0)
019B   01A9               M         clrf    R4 + 1
                          M     else
                          M         movlw   low (000h)
                          M         movwf   R4 + 1
                          M     endif
                      00130         LCDOUTNUM?B     _tempMax
                          M         MOVE?BW _tempMax, R2
                          M         CHK?RP  _tempMax
                          M     if (((_tempMax) & 180h) == 0)
                          M       if (PREV_BANK == 1)
                          M         bcf     STATUS, RP0
                          M       endif
                          M       if (PREV_BANK == 2)
                          M         bcf     STATUS, RP1
                          M       endif
                          M       if (PREV_BANK == 3)
                          M         bcf     STATUS, RP0
                          M         bcf     STATUS, RP1
                          M       endif
  00000000                M PREV_BANK = 0
                          M     endif
                          M 
                          M     if (((_tempMax) & 180h) == 80h)
                          M       if (PREV_BANK == 0)
                          M         bsf     STATUS, RP0
                          M       endif
                          M       if (PREV_BANK == 2)
                          M         bsf     STATUS, RP0
                          M         bcf     STATUS, RP1
                          M       endif
                          M       if (PREV_BANK == 3)
                          M         bcf     STATUS, RP1
                          M       endif
                          M PREV_BANK = 1
                          M     endif
                          M 
                          M     if (((_tempMax) & 180h) == 100h)
                          M       if (PREV_BANK == 0)
                          M         bsf     STATUS, RP1
                          M       endif
                          M       if (PREV_BANK == 1)
                          M         bcf     STATUS, RP0
                          M         bsf     STATUS, RP1
MPASM  5.49                      SDCCON~1.ASM   7-1-2005  0:07:41         PAGE 94


LOC  OBJECT CODE     LINE SOURCE TEXT
  VALUE

                          M       endif
                          M       if (PREV_BANK == 3)
                          M         bcf     STATUS, RP0
                          M       endif
                          M PREV_BANK = 2
                          M     endif
                          M 
                          M     if (((_tempMax) & 180h) == 180h)
                          M       if (PREV_BANK == 0)
                          M         bsf     STATUS, RP0
                          M         bsf     STATUS, RP1
                          M       endif
                          M       if (PREV_BANK == 1)
                          M         bsf     STATUS, RP1
                          M       endif
                          M       if (PREV_BANK == 2)
                          M         bsf     STATUS, RP0
                          M       endif
                          M PREV_BANK = 3
                          M     endif
019C   083A               M         movf    _tempMax, W
                          M         CHK?RP  R2
                          M     if (((R2)    & 180h) == 0)
                          M       if (PREV_BANK == 1)
                          M         bcf     STATUS, RP0
                          M       endif
                          M       if (PREV_BANK == 2)
                          M         bcf     STATUS, RP1
                          M       endif
                          M       if (PREV_BANK == 3)
                          M         bcf     STATUS, RP0
                          M         bcf     STATUS, RP1
                          M       endif
  00000000                M PREV_BANK = 0
                          M     endif
                          M 
                          M     if (((R2)    & 180h) == 80h)
                          M       if (PREV_BANK == 0)
                          M         bsf     STATUS, RP0
                          M       endif
                          M       if (PREV_BANK == 2)
                          M         bsf     STATUS, RP0
                          M         bcf     STATUS, RP1
                          M       endif
                          M       if (PREV_BANK == 3)
                          M         bcf     STATUS, RP1
                          M       endif
                          M PREV_BANK = 1
                          M     endif
                          M 
                          M     if (((R2)    & 180h) == 100h)
                          M       if (PREV_BANK == 0)
                          M         bsf     STATUS, RP1
MPASM  5.49                      SDCCON~1.ASM   7-1-2005  0:07:41         PAGE 95


LOC  OBJECT CODE     LINE SOURCE TEXT
  VALUE

                          M       endif
                          M       if (PREV_BANK == 1)
                          M         bcf     STATUS, RP0
                          M         bsf     STATUS, RP1
                          M       endif
                          M       if (PREV_BANK == 3)
                          M         bcf     STATUS, RP0
                          M       endif
                          M PREV_BANK = 2
                          M     endif
                          M 
                          M     if (((R2)    & 180h) == 180h)
                          M       if (PREV_BANK == 0)
                          M         bsf     STATUS, RP0
                          M         bsf     STATUS, RP1
                          M       endif
                          M       if (PREV_BANK == 1)
                          M         bsf     STATUS, RP1
                          M       endif
                          M       if (PREV_BANK == 2)
                          M         bsf     STATUS, RP0
                          M       endif
                          M PREV_BANK = 3
                          M     endif
019D   00A4               M         movwf   R2
019E   01A5               M         clrf    (R2)   + 1
                      00131         LCDOUTDEC?      
                          M         MOVE?CW LCDOUTJ, R8
                          M         MOVE?CB low (LCDOUTJ), R8
                          M         CHK?RP  R8
                          M     if (((R8)    & 180h) == 0)
                          M       if (PREV_BANK == 1)
                          M         bcf     STATUS, RP0
                          M       endif
                          M       if (PREV_BANK == 2)
                          M         bcf     STATUS, RP1
                          M       endif
                          M       if (PREV_BANK == 3)
                          M         bcf     STATUS, RP0
                          M         bcf     STATUS, RP1
                          M       endif
  00000000                M PREV_BANK = 0
                          M     endif
                          M 
                          M     if (((R8)    & 180h) == 80h)
                          M       if (PREV_BANK == 0)
                          M         bsf     STATUS, RP0
                          M       endif
                          M       if (PREV_BANK == 2)
                          M         bsf     STATUS, RP0
                          M         bcf     STATUS, RP1
                          M       endif
                          M       if (PREV_BANK == 3)
MPASM  5.49                      SDCCON~1.ASM   7-1-2005  0:07:41         PAGE 96


LOC  OBJECT CODE     LINE SOURCE TEXT
  VALUE

                          M         bcf     STATUS, RP1
                          M       endif
                          M PREV_BANK = 1
                          M     endif
                          M 
                          M     if (((R8)    & 180h) == 100h)
                          M       if (PREV_BANK == 0)
                          M         bsf     STATUS, RP1
                          M       endif
                          M       if (PREV_BANK == 1)
                          M         bcf     STATUS, RP0
                          M         bsf     STATUS, RP1
                          M       endif
                          M       if (PREV_BANK == 3)
                          M         bcf     STATUS, RP0
                          M       endif
                          M PREV_BANK = 2
                          M     endif
                          M 
                          M     if (((R8)    & 180h) == 180h)
                          M       if (PREV_BANK == 0)
                          M         bsf     STATUS, RP0
                          M         bsf     STATUS, RP1
                          M       endif
                          M       if (PREV_BANK == 1)
                          M         bsf     STATUS, RP1
                          M       endif
                          M       if (PREV_BANK == 2)
                          M         bsf     STATUS, RP0
                          M       endif
                          M PREV_BANK = 3
                          M     endif
                          M     if (low (low (LCDOUTJ)) == 0)
                          M         clrf    R8
                          M     else
019F   3002               M         movlw   low (low (LCDOUTJ))
01A0   00B0               M         movwf   R8
                          M     endif
                          M         MOVE?CB high (LCDOUTJ), (R8) + 1
                          M         CHK?RP  (R8) + 1
                          M     if ((((R8) + 1) & 180h) == 0)
                          M       if (PREV_BANK == 1)
                          M         bcf     STATUS, RP0
                          M       endif
                          M       if (PREV_BANK == 2)
                          M         bcf     STATUS, RP1
                          M       endif
                          M       if (PREV_BANK == 3)
                          M         bcf     STATUS, RP0
                          M         bcf     STATUS, RP1
                          M       endif
  00000000                M PREV_BANK = 0
                          M     endif
MPASM  5.49                      SDCCON~1.ASM   7-1-2005  0:07:41         PAGE 97


LOC  OBJECT CODE     LINE SOURCE TEXT
  VALUE

                          M 
                          M     if ((((R8) + 1) & 180h) == 80h)
                          M       if (PREV_BANK == 0)
                          M         bsf     STATUS, RP0
                          M       endif
                          M       if (PREV_BANK == 2)
                          M         bsf     STATUS, RP0
                          M         bcf     STATUS, RP1
                          M       endif
                          M       if (PREV_BANK == 3)
                          M         bcf     STATUS, RP1
                          M       endif
                          M PREV_BANK = 1
                          M     endif
                          M 
                          M     if ((((R8) + 1) & 180h) == 100h)
                          M       if (PREV_BANK == 0)
                          M         bsf     STATUS, RP1
                          M       endif
                          M       if (PREV_BANK == 1)
                          M         bcf     STATUS, RP0
                          M         bsf     STATUS, RP1
                          M       endif
                          M       if (PREV_BANK == 3)
                          M         bcf     STATUS, RP0
                          M       endif
                          M PREV_BANK = 2
                          M     endif
                          M 
                          M     if ((((R8) + 1) & 180h) == 180h)
                          M       if (PREV_BANK == 0)
                          M         bsf     STATUS, RP0
                          M         bsf     STATUS, RP1
                          M       endif
                          M       if (PREV_BANK == 1)
                          M         bsf     STATUS, RP1
                          M       endif
                          M       if (PREV_BANK == 2)
                          M         bsf     STATUS, RP0
                          M       endif
                          M PREV_BANK = 3
                          M     endif
                          M     if (low (high (LCDOUTJ)) == 0)
01A1   01B1               M         clrf    (R8) + 1
                          M     else
                          M         movlw   low (high (LCDOUTJ))
                          M         movwf   (R8) + 1
                          M     endif
                          M         L?CALL  SEROUT2DEC
                          M         RST?RP
                          M     if ((PREV_BANK & 1) != 0)
                          M         bcf     STATUS, RP0
                          M     endif
MPASM  5.49                      SDCCON~1.ASM   7-1-2005  0:07:41         PAGE 98


LOC  OBJECT CODE     LINE SOURCE TEXT
  VALUE

                          M     if ((PREV_BANK & 2) != 0)
                          M         bcf     STATUS, RP1
                          M     endif
  00000000                M PREV_BANK = 0
                          M 
                          M     if ((SEROUT2DEC) < 1)
                          M       if (CODE_SIZE >= 4)
                          M         if (((SEROUT2DEC) & 800h) == 0)
                          M         bcf     PCLATH, 3
                          M         else
                          M         bsf     PCLATH, 3
                          M         endif
                          M       endif
                          M       if (CODE_SIZE == 8)
                          M         if (((SEROUT2DEC) & 1000h) == 0)
                          M         bcf     PCLATH, 4
                          M         else
                          M         bsf     PCLATH, 4
                          M         endif
                          M       endif
                          M     else
                          M       if ((SEROUT2DEC) > $)
                          M         if (CODE_SIZE >= 4)
                          M           if (((SEROUT2DEC) & 800h) == 0)
                          M         bcf     PCLATH, 3
                          M           else
                          M         bsf     PCLATH, 3
                          M           endif
                          M         endif
                          M         if (CODE_SIZE == 8)
                          M           if (((SEROUT2DEC) & 1000h) == 0)
                          M         bcf     PCLATH, 4
                          M           else
                          M         bsf     PCLATH, 4
                          M           endif
                          M         endif
                          M       else
                          M         if (CODE_SIZE >= 4)
                          M           if (((SEROUT2DEC) & 1800h) == 0)
01A2   018A               M         clrf    PCLATH
                          M           else
                          M             if (((SEROUT2DEC) & 800h) == 0)
                          M         bcf     PCLATH, 3
                          M             else
                          M         bsf     PCLATH, 3
                          M             endif
                          M             if (CODE_SIZE == 8)
                          M               if (((SEROUT2DEC) & 1000h) == 0)
                          M         bcf     PCLATH, 4
                          M               else
                          M         bsf     PCLATH, 4
                          M               endif
                          M             endif
MPASM  5.49                      SDCCON~1.ASM   7-1-2005  0:07:41         PAGE 99


LOC  OBJECT CODE     LINE SOURCE TEXT
  VALUE

                          M           endif
                          M         endif
                          M       endif
                          M     endif
                          M 
01A3   2052               M         call    SEROUT2DEC
                      00132         LCDOUT?C        _g
01A4   30DF               M         movlw   _g
                          M         L?CALL  LCDOUT
                          M         RST?RP
                          M     if ((PREV_BANK & 1) != 0)
                          M         bcf     STATUS, RP0
                          M     endif
                          M     if ((PREV_BANK & 2) != 0)
                          M         bcf     STATUS, RP1
                          M     endif
  00000000                M PREV_BANK = 0
                          M 
                          M     if ((LCDOUT) < 1)
                          M       if (CODE_SIZE >= 4)
                          M         if (((LCDOUT) & 800h) == 0)
                          M         bcf     PCLATH, 3
                          M         else
                          M         bsf     PCLATH, 3
                          M         endif
                          M       endif
                          M       if (CODE_SIZE == 8)
                          M         if (((LCDOUT) & 1000h) == 0)
                          M         bcf     PCLATH, 4
                          M         else
                          M         bsf     PCLATH, 4
                          M         endif
                          M       endif
                          M     else
                          M       if ((LCDOUT) > $)
                          M         if (CODE_SIZE >= 4)
                          M           if (((LCDOUT) & 800h) == 0)
                          M         bcf     PCLATH, 3
                          M           else
                          M         bsf     PCLATH, 3
                          M           endif
                          M         endif
                          M         if (CODE_SIZE == 8)
                          M           if (((LCDOUT) & 1000h) == 0)
                          M         bcf     PCLATH, 4
                          M           else
                          M         bsf     PCLATH, 4
                          M           endif
                          M         endif
                          M       else
                          M         if (CODE_SIZE >= 4)
                          M           if (((LCDOUT) & 1800h) == 0)
01A5   018A               M         clrf    PCLATH
MPASM  5.49                      SDCCON~1.ASM   7-1-2005  0:07:41         PAGE 100


LOC  OBJECT CODE     LINE SOURCE TEXT
  VALUE

                          M           else
                          M             if (((LCDOUT) & 800h) == 0)
                          M         bcf     PCLATH, 3
                          M             else
                          M         bsf     PCLATH, 3
                          M             endif
                          M             if (CODE_SIZE == 8)
                          M               if (((LCDOUT) & 1000h) == 0)
                          M         bcf     PCLATH, 4
                          M               else
                          M         bsf     PCLATH, 4
                          M               endif
                          M             endif
                          M           endif
                          M         endif
                          M       endif
                          M     endif
                          M 
01A6   2003               M         call    LCDOUT
                      00133         LCDOUT?C        043h
01A7   3043               M         movlw   043h
                          M         L?CALL  LCDOUT
                          M         RST?RP
                          M     if ((PREV_BANK & 1) != 0)
                          M         bcf     STATUS, RP0
                          M     endif
                          M     if ((PREV_BANK & 2) != 0)
                          M         bcf     STATUS, RP1
                          M     endif
  00000000                M PREV_BANK = 0
                          M 
                          M     if ((LCDOUT) < 1)
                          M       if (CODE_SIZE >= 4)
                          M         if (((LCDOUT) & 800h) == 0)
                          M         bcf     PCLATH, 3
                          M         else
                          M         bsf     PCLATH, 3
                          M         endif
                          M       endif
                          M       if (CODE_SIZE == 8)
                          M         if (((LCDOUT) & 1000h) == 0)
                          M         bcf     PCLATH, 4
                          M         else
                          M         bsf     PCLATH, 4
                          M         endif
                          M       endif
                          M     else
                          M       if ((LCDOUT) > $)
                          M         if (CODE_SIZE >= 4)
                          M           if (((LCDOUT) & 800h) == 0)
                          M         bcf     PCLATH, 3
                          M           else
                          M         bsf     PCLATH, 3
MPASM  5.49                      SDCCON~1.ASM   7-1-2005  0:07:41         PAGE 101


LOC  OBJECT CODE     LINE SOURCE TEXT
  VALUE

                          M           endif
                          M         endif
                          M         if (CODE_SIZE == 8)
                          M           if (((LCDOUT) & 1000h) == 0)
                          M         bcf     PCLATH, 4
                          M           else
                          M         bsf     PCLATH, 4
                          M           endif
                          M         endif
                          M       else
                          M         if (CODE_SIZE >= 4)
                          M           if (((LCDOUT) & 1800h) == 0)
01A8   018A               M         clrf    PCLATH
                          M           else
                          M             if (((LCDOUT) & 800h) == 0)
                          M         bcf     PCLATH, 3
                          M             else
                          M         bsf     PCLATH, 3
                          M             endif
                          M             if (CODE_SIZE == 8)
                          M               if (((LCDOUT) & 1000h) == 0)
                          M         bcf     PCLATH, 4
                          M               else
                          M         bsf     PCLATH, 4
                          M               endif
                          M             endif
                          M           endif
                          M         endif
                          M       endif
                          M     endif
                          M 
01A9   2003               M         call    LCDOUT
                      00134         MOVE?CB 000h, _x
                          M         CHK?RP  _x
                          M     if (((_x)    & 180h) == 0)
                          M       if (PREV_BANK == 1)
                          M         bcf     STATUS, RP0
                          M       endif
                          M       if (PREV_BANK == 2)
                          M         bcf     STATUS, RP1
                          M       endif
                          M       if (PREV_BANK == 3)
                          M         bcf     STATUS, RP0
                          M         bcf     STATUS, RP1
                          M       endif
  00000000                M PREV_BANK = 0
                          M     endif
                          M 
                          M     if (((_x)    & 180h) == 80h)
                          M       if (PREV_BANK == 0)
                          M         bsf     STATUS, RP0
                          M       endif
                          M       if (PREV_BANK == 2)
MPASM  5.49                      SDCCON~1.ASM   7-1-2005  0:07:41         PAGE 102


LOC  OBJECT CODE     LINE SOURCE TEXT
  VALUE

                          M         bsf     STATUS, RP0
                          M         bcf     STATUS, RP1
                          M       endif
                          M       if (PREV_BANK == 3)
                          M         bcf     STATUS, RP1
                          M       endif
                          M PREV_BANK = 1
                          M     endif
                          M 
                          M     if (((_x)    & 180h) == 100h)
                          M       if (PREV_BANK == 0)
                          M         bsf     STATUS, RP1
                          M       endif
                          M       if (PREV_BANK == 1)
                          M         bcf     STATUS, RP0
                          M         bsf     STATUS, RP1
                          M       endif
                          M       if (PREV_BANK == 3)
                          M         bcf     STATUS, RP0
                          M       endif
                          M PREV_BANK = 2
                          M     endif
                          M 
                          M     if (((_x)    & 180h) == 180h)
                          M       if (PREV_BANK == 0)
                          M         bsf     STATUS, RP0
                          M         bsf     STATUS, RP1
                          M       endif
                          M       if (PREV_BANK == 1)
                          M         bsf     STATUS, RP1
                          M       endif
                          M       if (PREV_BANK == 2)
                          M         bsf     STATUS, RP0
                          M       endif
                          M PREV_BANK = 3
                          M     endif
                          M     if (low (000h) == 0)
01AA   01BC               M         clrf    _x
                          M     else
                          M         movlw   low (000h)
                          M         movwf   _x
                          M     endif
                      00135         LABEL?L L00001  
                          M         RST?RP
                          M     if ((PREV_BANK & 1) != 0)
                          M         bcf     STATUS, RP0
                          M     endif
                          M     if ((PREV_BANK & 2) != 0)
                          M         bcf     STATUS, RP1
                          M     endif
  00000000                M PREV_BANK = 0
                          M     ifdef PM_USED
                          M         LALL
MPASM  5.49                      SDCCON~1.ASM   7-1-2005  0:07:41         PAGE 103


LOC  OBJECT CODE     LINE SOURCE TEXT
  VALUE

                          M L00001
                          M         XALL
                          M     else
01AB                      M L00001
                          M     endif
                      00136         CMPGT?BCL       _x, 064h, L00002
                          M     if ((064h) < 0)
                          M         L?GOTO  L00002
                          M     else
                          M       if ((064h) < 0ffh)
                          M         CLRWDT?
                          M     ifndef NO_CLRWDT
01AB   0064               M         clrwdt
                          M     endif
                          M         MOVE?CA (064h) + 1
01AC   3065               M         movlw   low ((064h) + 1)
                          M         CHK?RP  _x
                          M     if (((_x)    & 180h) == 0)
                          M       if (PREV_BANK == 1)
                          M         bcf     STATUS, RP0
                          M       endif
                          M       if (PREV_BANK == 2)
                          M         bcf     STATUS, RP1
                          M       endif
                          M       if (PREV_BANK == 3)
                          M         bcf     STATUS, RP0
                          M         bcf     STATUS, RP1
                          M       endif
  00000000                M PREV_BANK = 0
                          M     endif
                          M 
                          M     if (((_x)    & 180h) == 80h)
                          M       if (PREV_BANK == 0)
                          M         bsf     STATUS, RP0
                          M       endif
                          M       if (PREV_BANK == 2)
                          M         bsf     STATUS, RP0
                          M         bcf     STATUS, RP1
                          M       endif
                          M       if (PREV_BANK == 3)
                          M         bcf     STATUS, RP1
                          M       endif
                          M PREV_BANK = 1
                          M     endif
                          M 
                          M     if (((_x)    & 180h) == 100h)
                          M       if (PREV_BANK == 0)
                          M         bsf     STATUS, RP1
                          M       endif
                          M       if (PREV_BANK == 1)
                          M         bcf     STATUS, RP0
                          M         bsf     STATUS, RP1
                          M       endif
MPASM  5.49                      SDCCON~1.ASM   7-1-2005  0:07:41         PAGE 104


LOC  OBJECT CODE     LINE SOURCE TEXT
  VALUE

                          M       if (PREV_BANK == 3)
                          M         bcf     STATUS, RP0
                          M       endif
                          M PREV_BANK = 2
                          M     endif
                          M 
                          M     if (((_x)    & 180h) == 180h)
                          M       if (PREV_BANK == 0)
                          M         bsf     STATUS, RP0
                          M         bsf     STATUS, RP1
                          M       endif
                          M       if (PREV_BANK == 1)
                          M         bsf     STATUS, RP1
                          M       endif
                          M       if (PREV_BANK == 2)
                          M         bsf     STATUS, RP0
                          M       endif
                          M PREV_BANK = 3
                          M     endif
01AD   023C               M         subwf   _x,  W
                          M         BIT?GOTO 1, STATUS, C, L00002
                          M     if ($ == (L00002))
                          M         CLRWDT?
                          M     endif
                          M 
                          M     if (CODE_SIZE >= 4)
                          M       if (((L00002) & 800h) == 0)
01AE   118A               M         bcf     PCLATH, 3
                          M       else
                          M         bsf     PCLATH, 3
                          M       endif
                          M     endif
                          M     if (CODE_SIZE == 8)
                          M       if (((L00002) & 1000h) == 0)
01AF   120A               M         bcf     PCLATH, 4
                          M       else
                          M         bsf     PCLATH, 4
                          M       endif
                          M     endif
                          M 
                          M     if (((STATUS) & 0ff80h) != 0)
                          M         CHK?RP  STATUS
                          M         bcf     STATUS, DC
                          M       if ((1)      == 0)
                          M         btfss   STATUS, C
                          M       else
                          M         btfsc   STATUS, C
                          M       endif
                          M         bsf     STATUS, DC
                          M         RST?RP
                          M         btfsc   STATUS, DC
                          M     else
                          M         RST?RP
MPASM  5.49                      SDCCON~1.ASM   7-1-2005  0:07:41         PAGE 105


LOC  OBJECT CODE     LINE SOURCE TEXT
  VALUE

                          M     if ((PREV_BANK & 1) != 0)
                          M         bcf     STATUS, RP0
                          M     endif
                          M     if ((PREV_BANK & 2) != 0)
                          M         bcf     STATUS, RP1
                          M     endif
  00000000                M PREV_BANK = 0
                          M       if ((1)      == 0)
                          M         btfss   STATUS, C
                          M       else
01B0   1803               M         btfsc   STATUS, C
                          M       endif
                          M     endif
                          M 
01B1   29BF               M         goto    L00002
                          M       endif
                          M     endif
                      00137         CMPEQ?TCL       _enter, 001h, _grabar1a
                          M     if (((001h) == 0) | ((001h) == 1))
                          M         CLRWDT?
                          M     ifndef NO_CLRWDT
01B2   0064               M         clrwdt
                          M     endif
                          M         BIT?GOTO 001h, PORTD, 005h, _grabar1a
                          M     if ($ == (_grabar1a))
                          M         CLRWDT?
                          M     endif
                          M 
                          M     if (CODE_SIZE >= 4)
                          M       if (((_grabar1a) & 800h) == 0)
01B3   118A               M         bcf     PCLATH, 3
                          M       else
                          M         bsf     PCLATH, 3
                          M       endif
                          M     endif
                          M     if (CODE_SIZE == 8)
                          M       if (((_grabar1a) & 1000h) == 0)
01B4   120A               M         bcf     PCLATH, 4
                          M       else
                          M         bsf     PCLATH, 4
                          M       endif
                          M     endif
                          M 
                          M     if (((PORTD) & 0ff80h) != 0)
                          M         CHK?RP  PORTD
                          M         bcf     STATUS, DC
                          M       if ((001h)   == 0)
                          M         btfss   PORTD, 005h
                          M       else
                          M         btfsc   PORTD, 005h
                          M       endif
                          M         bsf     STATUS, DC
                          M         RST?RP
MPASM  5.49                      SDCCON~1.ASM   7-1-2005  0:07:41         PAGE 106


LOC  OBJECT CODE     LINE SOURCE TEXT
  VALUE

                          M         btfsc   STATUS, DC
                          M     else
                          M         RST?RP
                          M     if ((PREV_BANK & 1) != 0)
                          M         bcf     STATUS, RP0
                          M     endif
                          M     if ((PREV_BANK & 2) != 0)
                          M         bcf     STATUS, RP1
                          M     endif
  00000000                M PREV_BANK = 0
                          M       if ((001h)   == 0)
                          M         btfss   PORTD, 005h
                          M       else
01B5   1A88               M         btfsc   PORTD, 005h
                          M       endif
                          M     endif
                          M 
01B6   29F3               M         goto    _grabar1a
                          M     endif
                      00138         PAUSE?C 00Fh
                          M     if (((00Fh) >> 8) == 0)
                          M         MOVE?CA 00Fh
01B7   300F               M         movlw   low (00Fh)
                          M         L?CALL  PAUSE
                          M         RST?RP
                          M     if ((PREV_BANK & 1) != 0)
                          M         bcf     STATUS, RP0
                          M     endif
                          M     if ((PREV_BANK & 2) != 0)
                          M         bcf     STATUS, RP1
                          M     endif
  00000000                M PREV_BANK = 0
                          M 
                          M     if ((PAUSE) < 1)
                          M       if (CODE_SIZE >= 4)
                          M         if (((PAUSE) & 800h) == 0)
                          M         bcf     PCLATH, 3
                          M         else
                          M         bsf     PCLATH, 3
                          M         endif
                          M       endif
                          M       if (CODE_SIZE == 8)
                          M         if (((PAUSE) & 1000h) == 0)
                          M         bcf     PCLATH, 4
                          M         else
                          M         bsf     PCLATH, 4
                          M         endif
                          M       endif
                          M     else
                          M       if ((PAUSE) > $)
                          M         if (CODE_SIZE >= 4)
                          M           if (((PAUSE) & 800h) == 0)
                          M         bcf     PCLATH, 3
MPASM  5.49                      SDCCON~1.ASM   7-1-2005  0:07:41         PAGE 107


LOC  OBJECT CODE     LINE SOURCE TEXT
  VALUE

                          M           else
                          M         bsf     PCLATH, 3
                          M           endif
                          M         endif
                          M         if (CODE_SIZE == 8)
                          M           if (((PAUSE) & 1000h) == 0)
                          M         bcf     PCLATH, 4
                          M           else
                          M         bsf     PCLATH, 4
                          M           endif
                          M         endif
                          M       else
                          M         if (CODE_SIZE >= 4)
                          M           if (((PAUSE) & 1800h) == 0)
01B8   018A               M         clrf    PCLATH
                          M           else
                          M             if (((PAUSE) & 800h) == 0)
                          M         bcf     PCLATH, 3
                          M             else
                          M         bsf     PCLATH, 3
                          M             endif
                          M             if (CODE_SIZE == 8)
                          M               if (((PAUSE) & 1000h) == 0)
                          M         bcf     PCLATH, 4
                          M               else
                          M         bsf     PCLATH, 4
                          M               endif
                          M             endif
                          M           endif
                          M         endif
                          M       endif
                          M     endif
                          M 
01B9   20A9               M         call    PAUSE
                          M     else
                          M         MOVE?CB (00Fh) >> 8, R1 + 1
                          M         MOVE?CA low (00Fh)
                          M         L?CALL  PAUSEL
                          M     endif
                      00139         NEXT?BCL        _x, 001h, L00001
                          M     if ((001h) == 1)
                          M         CHK?RP  _x
                          M     if (((_x)    & 180h) == 0)
                          M       if (PREV_BANK == 1)
                          M         bcf     STATUS, RP0
                          M       endif
                          M       if (PREV_BANK == 2)
                          M         bcf     STATUS, RP1
                          M       endif
                          M       if (PREV_BANK == 3)
                          M         bcf     STATUS, RP0
                          M         bcf     STATUS, RP1
                          M       endif
MPASM  5.49                      SDCCON~1.ASM   7-1-2005  0:07:41         PAGE 108


LOC  OBJECT CODE     LINE SOURCE TEXT
  VALUE

  00000000                M PREV_BANK = 0
                          M     endif
                          M 
                          M     if (((_x)    & 180h) == 80h)
                          M       if (PREV_BANK == 0)
                          M         bsf     STATUS, RP0
                          M       endif
                          M       if (PREV_BANK == 2)
                          M         bsf     STATUS, RP0
                          M         bcf     STATUS, RP1
                          M       endif
                          M       if (PREV_BANK == 3)
                          M         bcf     STATUS, RP1
                          M       endif
                          M PREV_BANK = 1
                          M     endif
                          M 
                          M     if (((_x)    & 180h) == 100h)
                          M       if (PREV_BANK == 0)
                          M         bsf     STATUS, RP1
                          M       endif
                          M       if (PREV_BANK == 1)
                          M         bcf     STATUS, RP0
                          M         bsf     STATUS, RP1
                          M       endif
                          M       if (PREV_BANK == 3)
                          M         bcf     STATUS, RP0
                          M       endif
                          M PREV_BANK = 2
                          M     endif
                          M 
                          M     if (((_x)    & 180h) == 180h)
                          M       if (PREV_BANK == 0)
                          M         bsf     STATUS, RP0
                          M         bsf     STATUS, RP1
                          M       endif
                          M       if (PREV_BANK == 1)
                          M         bsf     STATUS, RP1
                          M       endif
                          M       if (PREV_BANK == 2)
                          M         bsf     STATUS, RP0
                          M       endif
                          M PREV_BANK = 3
                          M     endif
                          M       if ((PREV_BANK == 0) & (CODE_SIZE <= 2))
                          M         incfsz  _x,  F
                          M         goto    L00001
                          M       else
01BA   0ABC               M         incf    _x,  F
                          M         BIT?GOTO 0, STATUS, Z, L00001
                          M     if ($ == (L00001))
                          M         CLRWDT?
                          M     endif
MPASM  5.49                      SDCCON~1.ASM   7-1-2005  0:07:41         PAGE 109


LOC  OBJECT CODE     LINE SOURCE TEXT
  VALUE

                          M 
                          M     if (CODE_SIZE >= 4)
                          M       if (((L00001) & 800h) == 0)
01BB   118A               M         bcf     PCLATH, 3
                          M       else
                          M         bsf     PCLATH, 3
                          M       endif
                          M     endif
                          M     if (CODE_SIZE == 8)
                          M       if (((L00001) & 1000h) == 0)
01BC   120A               M         bcf     PCLATH, 4
                          M       else
                          M         bsf     PCLATH, 4
                          M       endif
                          M     endif
                          M 
                          M     if (((STATUS) & 0ff80h) != 0)
                          M         CHK?RP  STATUS
                          M         bcf     STATUS, DC
                          M       if ((0)      == 0)
                          M         btfss   STATUS, Z
                          M       else
                          M         btfsc   STATUS, Z
                          M       endif
                          M         bsf     STATUS, DC
                          M         RST?RP
                          M         btfsc   STATUS, DC
                          M     else
                          M         RST?RP
                          M     if ((PREV_BANK & 1) != 0)
                          M         bcf     STATUS, RP0
                          M     endif
                          M     if ((PREV_BANK & 2) != 0)
                          M         bcf     STATUS, RP1
                          M     endif
  00000000                M PREV_BANK = 0
                          M       if ((0)      == 0)
01BD   1D03               M         btfss   STATUS, Z
                          M       else
                          M         btfsc   STATUS, Z
                          M       endif
                          M     endif
                          M 
01BE   29AB               M         goto    L00001
                          M       endif
                          M     else
                          M         movlw   001h
                          M         CHK?RP  _x
                          M         addwf   _x,  F
                          M       if ((001h) <= 255)
                          M         BIT?GOTO 0, STATUS, C, L00001
                          M       endif
                          M     endif
MPASM  5.49                      SDCCON~1.ASM   7-1-2005  0:07:41         PAGE 110


LOC  OBJECT CODE     LINE SOURCE TEXT
  VALUE

                      00140         LABEL?L L00002  
                          M         RST?RP
                          M     if ((PREV_BANK & 1) != 0)
                          M         bcf     STATUS, RP0
                          M     endif
                          M     if ((PREV_BANK & 2) != 0)
                          M         bcf     STATUS, RP1
                          M     endif
  00000000                M PREV_BANK = 0
                          M     ifdef PM_USED
                          M         LALL
                          M L00002
                          M         XALL
                          M     else
01BF                      M L00002
                          M     endif
                      00141         CMPLT?WBL       _dato, _tempMin, _calentar
                          M         MOVE?WW _dato, R0
                          M         MOVE?BB _dato, R0
                          M         CHK?RP  _dato
                          M     if (((_dato) & 180h) == 0)
                          M       if (PREV_BANK == 1)
                          M         bcf     STATUS, RP0
                          M       endif
                          M       if (PREV_BANK == 2)
                          M         bcf     STATUS, RP1
                          M       endif
                          M       if (PREV_BANK == 3)
                          M         bcf     STATUS, RP0
                          M         bcf     STATUS, RP1
                          M       endif
  00000000                M PREV_BANK = 0
                          M     endif
                          M 
                          M     if (((_dato) & 180h) == 80h)
                          M       if (PREV_BANK == 0)
                          M         bsf     STATUS, RP0
                          M       endif
                          M       if (PREV_BANK == 2)
                          M         bsf     STATUS, RP0
                          M         bcf     STATUS, RP1
                          M       endif
                          M       if (PREV_BANK == 3)
                          M         bcf     STATUS, RP1
                          M       endif
                          M PREV_BANK = 1
                          M     endif
                          M 
                          M     if (((_dato) & 180h) == 100h)
                          M       if (PREV_BANK == 0)
                          M         bsf     STATUS, RP1
                          M       endif
                          M       if (PREV_BANK == 1)
MPASM  5.49                      SDCCON~1.ASM   7-1-2005  0:07:41         PAGE 111


LOC  OBJECT CODE     LINE SOURCE TEXT
  VALUE

                          M         bcf     STATUS, RP0
                          M         bsf     STATUS, RP1
                          M       endif
                          M       if (PREV_BANK == 3)
                          M         bcf     STATUS, RP0
                          M       endif
                          M PREV_BANK = 2
                          M     endif
                          M 
                          M     if (((_dato) & 180h) == 180h)
                          M       if (PREV_BANK == 0)
                          M         bsf     STATUS, RP0
                          M         bsf     STATUS, RP1
                          M       endif
                          M       if (PREV_BANK == 1)
                          M         bsf     STATUS, RP1
                          M       endif
                          M       if (PREV_BANK == 2)
                          M         bsf     STATUS, RP0
                          M       endif
                          M PREV_BANK = 3
                          M     endif
01BF   0838               M         movf    _dato, W
                          M         CHK?RP  R0
                          M     if (((R0)    & 180h) == 0)
                          M       if (PREV_BANK == 1)
                          M         bcf     STATUS, RP0
                          M       endif
                          M       if (PREV_BANK == 2)
                          M         bcf     STATUS, RP1
                          M       endif
                          M       if (PREV_BANK == 3)
                          M         bcf     STATUS, RP0
                          M         bcf     STATUS, RP1
                          M       endif
  00000000                M PREV_BANK = 0
                          M     endif
                          M 
                          M     if (((R0)    & 180h) == 80h)
                          M       if (PREV_BANK == 0)
                          M         bsf     STATUS, RP0
                          M       endif
                          M       if (PREV_BANK == 2)
                          M         bsf     STATUS, RP0
                          M         bcf     STATUS, RP1
                          M       endif
                          M       if (PREV_BANK == 3)
                          M         bcf     STATUS, RP1
                          M       endif
                          M PREV_BANK = 1
                          M     endif
                          M 
                          M     if (((R0)    & 180h) == 100h)
MPASM  5.49                      SDCCON~1.ASM   7-1-2005  0:07:41         PAGE 112


LOC  OBJECT CODE     LINE SOURCE TEXT
  VALUE

                          M       if (PREV_BANK == 0)
                          M         bsf     STATUS, RP1
                          M       endif
                          M       if (PREV_BANK == 1)
                          M         bcf     STATUS, RP0
                          M         bsf     STATUS, RP1
                          M       endif
                          M       if (PREV_BANK == 3)
                          M         bcf     STATUS, RP0
                          M       endif
                          M PREV_BANK = 2
                          M     endif
                          M 
                          M     if (((R0)    & 180h) == 180h)
                          M       if (PREV_BANK == 0)
                          M         bsf     STATUS, RP0
                          M         bsf     STATUS, RP1
                          M       endif
                          M       if (PREV_BANK == 1)
                          M         bsf     STATUS, RP1
                          M       endif
                          M       if (PREV_BANK == 2)
                          M         bsf     STATUS, RP0
                          M       endif
                          M PREV_BANK = 3
                          M     endif
01C0   00A0               M         movwf   R0
                          M         MOVE?BB (_dato) + 1, (R0) + 1
                          M         CHK?RP  (_dato) + 1
                          M     if ((((_dato) + 1) & 180h) == 0)
                          M       if (PREV_BANK == 1)
                          M         bcf     STATUS, RP0
                          M       endif
                          M       if (PREV_BANK == 2)
                          M         bcf     STATUS, RP1
                          M       endif
                          M       if (PREV_BANK == 3)
                          M         bcf     STATUS, RP0
                          M         bcf     STATUS, RP1
                          M       endif
  00000000                M PREV_BANK = 0
                          M     endif
                          M 
                          M     if ((((_dato) + 1) & 180h) == 80h)
                          M       if (PREV_BANK == 0)
                          M         bsf     STATUS, RP0
                          M       endif
                          M       if (PREV_BANK == 2)
                          M         bsf     STATUS, RP0
                          M         bcf     STATUS, RP1
                          M       endif
                          M       if (PREV_BANK == 3)
                          M         bcf     STATUS, RP1
MPASM  5.49                      SDCCON~1.ASM   7-1-2005  0:07:41         PAGE 113


LOC  OBJECT CODE     LINE SOURCE TEXT
  VALUE

                          M       endif
                          M PREV_BANK = 1
                          M     endif
                          M 
                          M     if ((((_dato) + 1) & 180h) == 100h)
                          M       if (PREV_BANK == 0)
                          M         bsf     STATUS, RP1
                          M       endif
                          M       if (PREV_BANK == 1)
                          M         bcf     STATUS, RP0
                          M         bsf     STATUS, RP1
                          M       endif
                          M       if (PREV_BANK == 3)
                          M         bcf     STATUS, RP0
                          M       endif
                          M PREV_BANK = 2
                          M     endif
                          M 
                          M     if ((((_dato) + 1) & 180h) == 180h)
                          M       if (PREV_BANK == 0)
                          M         bsf     STATUS, RP0
                          M         bsf     STATUS, RP1
                          M       endif
                          M       if (PREV_BANK == 1)
                          M         bsf     STATUS, RP1
                          M       endif
                          M       if (PREV_BANK == 2)
                          M         bsf     STATUS, RP0
                          M       endif
                          M PREV_BANK = 3
                          M     endif
01C1   0839               M         movf    (_dato) + 1, W
                          M         CHK?RP  (R0) + 1
                          M     if ((((R0) + 1) & 180h) == 0)
                          M       if (PREV_BANK == 1)
                          M         bcf     STATUS, RP0
                          M       endif
                          M       if (PREV_BANK == 2)
                          M         bcf     STATUS, RP1
                          M       endif
                          M       if (PREV_BANK == 3)
                          M         bcf     STATUS, RP0
                          M         bcf     STATUS, RP1
                          M       endif
  00000000                M PREV_BANK = 0
                          M     endif
                          M 
                          M     if ((((R0) + 1) & 180h) == 80h)
                          M       if (PREV_BANK == 0)
                          M         bsf     STATUS, RP0
                          M       endif
                          M       if (PREV_BANK == 2)
                          M         bsf     STATUS, RP0
MPASM  5.49                      SDCCON~1.ASM   7-1-2005  0:07:41         PAGE 114


LOC  OBJECT CODE     LINE SOURCE TEXT
  VALUE

                          M         bcf     STATUS, RP1
                          M       endif
                          M       if (PREV_BANK == 3)
                          M         bcf     STATUS, RP1
                          M       endif
                          M PREV_BANK = 1
                          M     endif
                          M 
                          M     if ((((R0) + 1) & 180h) == 100h)
                          M       if (PREV_BANK == 0)
                          M         bsf     STATUS, RP1
                          M       endif
                          M       if (PREV_BANK == 1)
                          M         bcf     STATUS, RP0
                          M         bsf     STATUS, RP1
                          M       endif
                          M       if (PREV_BANK == 3)
                          M         bcf     STATUS, RP0
                          M       endif
                          M PREV_BANK = 2
                          M     endif
                          M 
                          M     if ((((R0) + 1) & 180h) == 180h)
                          M       if (PREV_BANK == 0)
                          M         bsf     STATUS, RP0
                          M         bsf     STATUS, RP1
                          M       endif
                          M       if (PREV_BANK == 1)
                          M         bsf     STATUS, RP1
                          M       endif
                          M       if (PREV_BANK == 2)
                          M         bsf     STATUS, RP0
                          M       endif
                          M PREV_BANK = 3
                          M     endif
01C2   00A1               M         movwf   (R0) + 1
                          M         MOVE?BA _tempMin
                          M         CHK?RP  _tempMin
                          M     if (((_tempMin) & 180h) == 0)
                          M       if (PREV_BANK == 1)
                          M         bcf     STATUS, RP0
                          M       endif
                          M       if (PREV_BANK == 2)
                          M         bcf     STATUS, RP1
                          M       endif
                          M       if (PREV_BANK == 3)
                          M         bcf     STATUS, RP0
                          M         bcf     STATUS, RP1
                          M       endif
  00000000                M PREV_BANK = 0
                          M     endif
                          M 
                          M     if (((_tempMin) & 180h) == 80h)
MPASM  5.49                      SDCCON~1.ASM   7-1-2005  0:07:41         PAGE 115


LOC  OBJECT CODE     LINE SOURCE TEXT
  VALUE

                          M       if (PREV_BANK == 0)
                          M         bsf     STATUS, RP0
                          M       endif
                          M       if (PREV_BANK == 2)
                          M         bsf     STATUS, RP0
                          M         bcf     STATUS, RP1
                          M       endif
                          M       if (PREV_BANK == 3)
                          M         bcf     STATUS, RP1
                          M       endif
                          M PREV_BANK = 1
                          M     endif
                          M 
                          M     if (((_tempMin) & 180h) == 100h)
                          M       if (PREV_BANK == 0)
                          M         bsf     STATUS, RP1
                          M       endif
                          M       if (PREV_BANK == 1)
                          M         bcf     STATUS, RP0
                          M         bsf     STATUS, RP1
                          M       endif
                          M       if (PREV_BANK == 3)
                          M         bcf     STATUS, RP0
                          M       endif
                          M PREV_BANK = 2
                          M     endif
                          M 
                          M     if (((_tempMin) & 180h) == 180h)
                          M       if (PREV_BANK == 0)
                          M         bsf     STATUS, RP0
                          M         bsf     STATUS, RP1
                          M       endif
                          M       if (PREV_BANK == 1)
                          M         bsf     STATUS, RP1
                          M       endif
                          M       if (PREV_BANK == 2)
                          M         bsf     STATUS, RP0
                          M       endif
                          M PREV_BANK = 3
                          M     endif
01C3   083B               M         movf    _tempMin, W
                          M         L?CALL  CMPLTW
                          M         RST?RP
                          M     if ((PREV_BANK & 1) != 0)
                          M         bcf     STATUS, RP0
                          M     endif
                          M     if ((PREV_BANK & 2) != 0)
                          M         bcf     STATUS, RP1
                          M     endif
  00000000                M PREV_BANK = 0
                          M 
                          M     if ((CMPLTW) < 1)
                          M       if (CODE_SIZE >= 4)
MPASM  5.49                      SDCCON~1.ASM   7-1-2005  0:07:41         PAGE 116


LOC  OBJECT CODE     LINE SOURCE TEXT
  VALUE

                          M         if (((CMPLTW) & 800h) == 0)
                          M         bcf     PCLATH, 3
                          M         else
                          M         bsf     PCLATH, 3
                          M         endif
                          M       endif
                          M       if (CODE_SIZE == 8)
                          M         if (((CMPLTW) & 1000h) == 0)
                          M         bcf     PCLATH, 4
                          M         else
                          M         bsf     PCLATH, 4
                          M         endif
                          M       endif
                          M     else
                          M       if ((CMPLTW) > $)
                          M         if (CODE_SIZE >= 4)
                          M           if (((CMPLTW) & 800h) == 0)
                          M         bcf     PCLATH, 3
                          M           else
                          M         bsf     PCLATH, 3
                          M           endif
                          M         endif
                          M         if (CODE_SIZE == 8)
                          M           if (((CMPLTW) & 1000h) == 0)
                          M         bcf     PCLATH, 4
                          M           else
                          M         bsf     PCLATH, 4
                          M           endif
                          M         endif
                          M       else
                          M         if (CODE_SIZE >= 4)
                          M           if (((CMPLTW) & 1800h) == 0)
01C4   018A               M         clrf    PCLATH
                          M           else
                          M             if (((CMPLTW) & 800h) == 0)
                          M         bcf     PCLATH, 3
                          M             else
                          M         bsf     PCLATH, 3
                          M             endif
                          M             if (CODE_SIZE == 8)
                          M               if (((CMPLTW) & 1000h) == 0)
                          M         bcf     PCLATH, 4
                          M               else
                          M         bsf     PCLATH, 4
                          M               endif
                          M             endif
                          M           endif
                          M         endif
                          M       endif
                          M     endif
                          M 
01C5   20CF               M         call    CMPLTW
                          M         BIT?GOTO 0, STATUS, Z, _calentar
MPASM  5.49                      SDCCON~1.ASM   7-1-2005  0:07:41         PAGE 117


LOC  OBJECT CODE     LINE SOURCE TEXT
  VALUE

                          M     if ($ == (_calentar))
                          M         CLRWDT?
                          M     endif
                          M 
                          M     if (CODE_SIZE >= 4)
                          M       if (((_calentar) & 800h) == 0)
01C6   118A               M         bcf     PCLATH, 3
                          M       else
                          M         bsf     PCLATH, 3
                          M       endif
                          M     endif
                          M     if (CODE_SIZE == 8)
                          M       if (((_calentar) & 1000h) == 0)
01C7   120A               M         bcf     PCLATH, 4
                          M       else
                          M         bsf     PCLATH, 4
                          M       endif
                          M     endif
                          M 
                          M     if (((STATUS) & 0ff80h) != 0)
                          M         CHK?RP  STATUS
                          M         bcf     STATUS, DC
                          M       if ((0)      == 0)
                          M         btfss   STATUS, Z
                          M       else
                          M         btfsc   STATUS, Z
                          M       endif
                          M         bsf     STATUS, DC
                          M         RST?RP
                          M         btfsc   STATUS, DC
                          M     else
                          M         RST?RP
                          M     if ((PREV_BANK & 1) != 0)
                          M         bcf     STATUS, RP0
                          M     endif
                          M     if ((PREV_BANK & 2) != 0)
                          M         bcf     STATUS, RP1
                          M     endif
  00000000                M PREV_BANK = 0
                          M       if ((0)      == 0)
01C8   1D03               M         btfss   STATUS, Z
                          M       else
                          M         btfsc   STATUS, Z
                          M       endif
                          M     endif
                          M 
01C9   29DF               M         goto    _calentar
                      00142         CMPGT?WBL       _dato, _tempMax, _enfriar
                          M         MOVE?WW _dato, R0
                          M         MOVE?BB _dato, R0
                          M         CHK?RP  _dato
                          M     if (((_dato) & 180h) == 0)
                          M       if (PREV_BANK == 1)
MPASM  5.49                      SDCCON~1.ASM   7-1-2005  0:07:41         PAGE 118


LOC  OBJECT CODE     LINE SOURCE TEXT
  VALUE

                          M         bcf     STATUS, RP0
                          M       endif
                          M       if (PREV_BANK == 2)
                          M         bcf     STATUS, RP1
                          M       endif
                          M       if (PREV_BANK == 3)
                          M         bcf     STATUS, RP0
                          M         bcf     STATUS, RP1
                          M       endif
  00000000                M PREV_BANK = 0
                          M     endif
                          M 
                          M     if (((_dato) & 180h) == 80h)
                          M       if (PREV_BANK == 0)
                          M         bsf     STATUS, RP0
                          M       endif
                          M       if (PREV_BANK == 2)
                          M         bsf     STATUS, RP0
                          M         bcf     STATUS, RP1
                          M       endif
                          M       if (PREV_BANK == 3)
                          M         bcf     STATUS, RP1
                          M       endif
                          M PREV_BANK = 1
                          M     endif
                          M 
                          M     if (((_dato) & 180h) == 100h)
                          M       if (PREV_BANK == 0)
                          M         bsf     STATUS, RP1
                          M       endif
                          M       if (PREV_BANK == 1)
                          M         bcf     STATUS, RP0
                          M         bsf     STATUS, RP1
                          M       endif
                          M       if (PREV_BANK == 3)
                          M         bcf     STATUS, RP0
                          M       endif
                          M PREV_BANK = 2
                          M     endif
                          M 
                          M     if (((_dato) & 180h) == 180h)
                          M       if (PREV_BANK == 0)
                          M         bsf     STATUS, RP0
                          M         bsf     STATUS, RP1
                          M       endif
                          M       if (PREV_BANK == 1)
                          M         bsf     STATUS, RP1
                          M       endif
                          M       if (PREV_BANK == 2)
                          M         bsf     STATUS, RP0
                          M       endif
                          M PREV_BANK = 3
                          M     endif
MPASM  5.49                      SDCCON~1.ASM   7-1-2005  0:07:41         PAGE 119


LOC  OBJECT CODE     LINE SOURCE TEXT
  VALUE

01CA   0838               M         movf    _dato, W
                          M         CHK?RP  R0
                          M     if (((R0)    & 180h) == 0)
                          M       if (PREV_BANK == 1)
                          M         bcf     STATUS, RP0
                          M       endif
                          M       if (PREV_BANK == 2)
                          M         bcf     STATUS, RP1
                          M       endif
                          M       if (PREV_BANK == 3)
                          M         bcf     STATUS, RP0
                          M         bcf     STATUS, RP1
                          M       endif
  00000000                M PREV_BANK = 0
                          M     endif
                          M 
                          M     if (((R0)    & 180h) == 80h)
                          M       if (PREV_BANK == 0)
                          M         bsf     STATUS, RP0
                          M       endif
                          M       if (PREV_BANK == 2)
                          M         bsf     STATUS, RP0
                          M         bcf     STATUS, RP1
                          M       endif
                          M       if (PREV_BANK == 3)
                          M         bcf     STATUS, RP1
                          M       endif
                          M PREV_BANK = 1
                          M     endif
                          M 
                          M     if (((R0)    & 180h) == 100h)
                          M       if (PREV_BANK == 0)
                          M         bsf     STATUS, RP1
                          M       endif
                          M       if (PREV_BANK == 1)
                          M         bcf     STATUS, RP0
                          M         bsf     STATUS, RP1
                          M       endif
                          M       if (PREV_BANK == 3)
                          M         bcf     STATUS, RP0
                          M       endif
                          M PREV_BANK = 2
                          M     endif
                          M 
                          M     if (((R0)    & 180h) == 180h)
                          M       if (PREV_BANK == 0)
                          M         bsf     STATUS, RP0
                          M         bsf     STATUS, RP1
                          M       endif
                          M       if (PREV_BANK == 1)
                          M         bsf     STATUS, RP1
                          M       endif
                          M       if (PREV_BANK == 2)
MPASM  5.49                      SDCCON~1.ASM   7-1-2005  0:07:41         PAGE 120


LOC  OBJECT CODE     LINE SOURCE TEXT
  VALUE

                          M         bsf     STATUS, RP0
                          M       endif
                          M PREV_BANK = 3
                          M     endif
01CB   00A0               M         movwf   R0
                          M         MOVE?BB (_dato) + 1, (R0) + 1
                          M         CHK?RP  (_dato) + 1
                          M     if ((((_dato) + 1) & 180h) == 0)
                          M       if (PREV_BANK == 1)
                          M         bcf     STATUS, RP0
                          M       endif
                          M       if (PREV_BANK == 2)
                          M         bcf     STATUS, RP1
                          M       endif
                          M       if (PREV_BANK == 3)
                          M         bcf     STATUS, RP0
                          M         bcf     STATUS, RP1
                          M       endif
  00000000                M PREV_BANK = 0
                          M     endif
                          M 
                          M     if ((((_dato) + 1) & 180h) == 80h)
                          M       if (PREV_BANK == 0)
                          M         bsf     STATUS, RP0
                          M       endif
                          M       if (PREV_BANK == 2)
                          M         bsf     STATUS, RP0
                          M         bcf     STATUS, RP1
                          M       endif
                          M       if (PREV_BANK == 3)
                          M         bcf     STATUS, RP1
                          M       endif
                          M PREV_BANK = 1
                          M     endif
                          M 
                          M     if ((((_dato) + 1) & 180h) == 100h)
                          M       if (PREV_BANK == 0)
                          M         bsf     STATUS, RP1
                          M       endif
                          M       if (PREV_BANK == 1)
                          M         bcf     STATUS, RP0
                          M         bsf     STATUS, RP1
                          M       endif
                          M       if (PREV_BANK == 3)
                          M         bcf     STATUS, RP0
                          M       endif
                          M PREV_BANK = 2
                          M     endif
                          M 
                          M     if ((((_dato) + 1) & 180h) == 180h)
                          M       if (PREV_BANK == 0)
                          M         bsf     STATUS, RP0
                          M         bsf     STATUS, RP1
MPASM  5.49                      SDCCON~1.ASM   7-1-2005  0:07:41         PAGE 121


LOC  OBJECT CODE     LINE SOURCE TEXT
  VALUE

                          M       endif
                          M       if (PREV_BANK == 1)
                          M         bsf     STATUS, RP1
                          M       endif
                          M       if (PREV_BANK == 2)
                          M         bsf     STATUS, RP0
                          M       endif
                          M PREV_BANK = 3
                          M     endif
01CC   0839               M         movf    (_dato) + 1, W
                          M         CHK?RP  (R0) + 1
                          M     if ((((R0) + 1) & 180h) == 0)
                          M       if (PREV_BANK == 1)
                          M         bcf     STATUS, RP0
                          M       endif
                          M       if (PREV_BANK == 2)
                          M         bcf     STATUS, RP1
                          M       endif
                          M       if (PREV_BANK == 3)
                          M         bcf     STATUS, RP0
                          M         bcf     STATUS, RP1
                          M       endif
  00000000                M PREV_BANK = 0
                          M     endif
                          M 
                          M     if ((((R0) + 1) & 180h) == 80h)
                          M       if (PREV_BANK == 0)
                          M         bsf     STATUS, RP0
                          M       endif
                          M       if (PREV_BANK == 2)
                          M         bsf     STATUS, RP0
                          M         bcf     STATUS, RP1
                          M       endif
                          M       if (PREV_BANK == 3)
                          M         bcf     STATUS, RP1
                          M       endif
                          M PREV_BANK = 1
                          M     endif
                          M 
                          M     if ((((R0) + 1) & 180h) == 100h)
                          M       if (PREV_BANK == 0)
                          M         bsf     STATUS, RP1
                          M       endif
                          M       if (PREV_BANK == 1)
                          M         bcf     STATUS, RP0
                          M         bsf     STATUS, RP1
                          M       endif
                          M       if (PREV_BANK == 3)
                          M         bcf     STATUS, RP0
                          M       endif
                          M PREV_BANK = 2
                          M     endif
                          M 
MPASM  5.49                      SDCCON~1.ASM   7-1-2005  0:07:41         PAGE 122


LOC  OBJECT CODE     LINE SOURCE TEXT
  VALUE

                          M     if ((((R0) + 1) & 180h) == 180h)
                          M       if (PREV_BANK == 0)
                          M         bsf     STATUS, RP0
                          M         bsf     STATUS, RP1
                          M       endif
                          M       if (PREV_BANK == 1)
                          M         bsf     STATUS, RP1
                          M       endif
                          M       if (PREV_BANK == 2)
                          M         bsf     STATUS, RP0
                          M       endif
                          M PREV_BANK = 3
                          M     endif
01CD   00A1               M         movwf   (R0) + 1
                          M         MOVE?BA _tempMax
                          M         CHK?RP  _tempMax
                          M     if (((_tempMax) & 180h) == 0)
                          M       if (PREV_BANK == 1)
                          M         bcf     STATUS, RP0
                          M       endif
                          M       if (PREV_BANK == 2)
                          M         bcf     STATUS, RP1
                          M       endif
                          M       if (PREV_BANK == 3)
                          M         bcf     STATUS, RP0
                          M         bcf     STATUS, RP1
                          M       endif
  00000000                M PREV_BANK = 0
                          M     endif
                          M 
                          M     if (((_tempMax) & 180h) == 80h)
                          M       if (PREV_BANK == 0)
                          M         bsf     STATUS, RP0
                          M       endif
                          M       if (PREV_BANK == 2)
                          M         bsf     STATUS, RP0
                          M         bcf     STATUS, RP1
                          M       endif
                          M       if (PREV_BANK == 3)
                          M         bcf     STATUS, RP1
                          M       endif
                          M PREV_BANK = 1
                          M     endif
                          M 
                          M     if (((_tempMax) & 180h) == 100h)
                          M       if (PREV_BANK == 0)
                          M         bsf     STATUS, RP1
                          M       endif
                          M       if (PREV_BANK == 1)
                          M         bcf     STATUS, RP0
                          M         bsf     STATUS, RP1
                          M       endif
                          M       if (PREV_BANK == 3)
MPASM  5.49                      SDCCON~1.ASM   7-1-2005  0:07:41         PAGE 123


LOC  OBJECT CODE     LINE SOURCE TEXT
  VALUE

                          M         bcf     STATUS, RP0
                          M       endif
                          M PREV_BANK = 2
                          M     endif
                          M 
                          M     if (((_tempMax) & 180h) == 180h)
                          M       if (PREV_BANK == 0)
                          M         bsf     STATUS, RP0
                          M         bsf     STATUS, RP1
                          M       endif
                          M       if (PREV_BANK == 1)
                          M         bsf     STATUS, RP1
                          M       endif
                          M       if (PREV_BANK == 2)
                          M         bsf     STATUS, RP0
                          M       endif
                          M PREV_BANK = 3
                          M     endif
01CE   083A               M         movf    _tempMax, W
                          M         L?CALL  CMPGTW
                          M         RST?RP
                          M     if ((PREV_BANK & 1) != 0)
                          M         bcf     STATUS, RP0
                          M     endif
                          M     if ((PREV_BANK & 2) != 0)
                          M         bcf     STATUS, RP1
                          M     endif
  00000000                M PREV_BANK = 0
                          M 
                          M     if ((CMPGTW) < 1)
                          M       if (CODE_SIZE >= 4)
                          M         if (((CMPGTW) & 800h) == 0)
                          M         bcf     PCLATH, 3
                          M         else
                          M         bsf     PCLATH, 3
                          M         endif
                          M       endif
                          M       if (CODE_SIZE == 8)
                          M         if (((CMPGTW) & 1000h) == 0)
                          M         bcf     PCLATH, 4
                          M         else
                          M         bsf     PCLATH, 4
                          M         endif
                          M       endif
                          M     else
                          M       if ((CMPGTW) > $)
                          M         if (CODE_SIZE >= 4)
                          M           if (((CMPGTW) & 800h) == 0)
                          M         bcf     PCLATH, 3
                          M           else
                          M         bsf     PCLATH, 3
                          M           endif
                          M         endif
MPASM  5.49                      SDCCON~1.ASM   7-1-2005  0:07:41         PAGE 124


LOC  OBJECT CODE     LINE SOURCE TEXT
  VALUE

                          M         if (CODE_SIZE == 8)
                          M           if (((CMPGTW) & 1000h) == 0)
                          M         bcf     PCLATH, 4
                          M           else
                          M         bsf     PCLATH, 4
                          M           endif
                          M         endif
                          M       else
                          M         if (CODE_SIZE >= 4)
                          M           if (((CMPGTW) & 1800h) == 0)
01CF   018A               M         clrf    PCLATH
                          M           else
                          M             if (((CMPGTW) & 800h) == 0)
                          M         bcf     PCLATH, 3
                          M             else
                          M         bsf     PCLATH, 3
                          M             endif
                          M             if (CODE_SIZE == 8)
                          M               if (((CMPGTW) & 1000h) == 0)
                          M         bcf     PCLATH, 4
                          M               else
                          M         bsf     PCLATH, 4
                          M               endif
                          M             endif
                          M           endif
                          M         endif
                          M       endif
                          M     endif
                          M 
01D0   20CB               M         call    CMPGTW
                          M         BIT?GOTO 0, STATUS, Z, _enfriar
                          M     if ($ == (_enfriar))
                          M         CLRWDT?
                          M     endif
                          M 
                          M     if (CODE_SIZE >= 4)
                          M       if (((_enfriar) & 800h) == 0)
01D1   118A               M         bcf     PCLATH, 3
                          M       else
                          M         bsf     PCLATH, 3
                          M       endif
                          M     endif
                          M     if (CODE_SIZE == 8)
                          M       if (((_enfriar) & 1000h) == 0)
01D2   120A               M         bcf     PCLATH, 4
                          M       else
                          M         bsf     PCLATH, 4
                          M       endif
                          M     endif
                          M 
                          M     if (((STATUS) & 0ff80h) != 0)
                          M         CHK?RP  STATUS
                          M         bcf     STATUS, DC
MPASM  5.49                      SDCCON~1.ASM   7-1-2005  0:07:41         PAGE 125


LOC  OBJECT CODE     LINE SOURCE TEXT
  VALUE

                          M       if ((0)      == 0)
                          M         btfss   STATUS, Z
                          M       else
                          M         btfsc   STATUS, Z
                          M       endif
                          M         bsf     STATUS, DC
                          M         RST?RP
                          M         btfsc   STATUS, DC
                          M     else
                          M         RST?RP
                          M     if ((PREV_BANK & 1) != 0)
                          M         bcf     STATUS, RP0
                          M     endif
                          M     if ((PREV_BANK & 2) != 0)
                          M         bcf     STATUS, RP1
                          M     endif
  00000000                M PREV_BANK = 0
                          M       if ((0)      == 0)
01D3   1D03               M         btfss   STATUS, Z
                          M       else
                          M         btfsc   STATUS, Z
                          M       endif
                          M     endif
                          M 
01D4   29E9               M         goto    _enfriar
                      00143         LOW?T   _calf
                          M         MOVE?CT 0, PORTD, 003h
                          M         CHK?RP  PORTD
                          M     if (((PORTD) & 180h) == 0)
                          M       if (PREV_BANK == 1)
                          M         bcf     STATUS, RP0
                          M       endif
                          M       if (PREV_BANK == 2)
                          M         bcf     STATUS, RP1
                          M       endif
                          M       if (PREV_BANK == 3)
                          M         bcf     STATUS, RP0
                          M         bcf     STATUS, RP1
                          M       endif
  00000000                M PREV_BANK = 0
                          M     endif
                          M 
                          M     if (((PORTD) & 180h) == 80h)
                          M       if (PREV_BANK == 0)
                          M         bsf     STATUS, RP0
                          M       endif
                          M       if (PREV_BANK == 2)
                          M         bsf     STATUS, RP0
                          M         bcf     STATUS, RP1
                          M       endif
                          M       if (PREV_BANK == 3)
                          M         bcf     STATUS, RP1
                          M       endif
MPASM  5.49                      SDCCON~1.ASM   7-1-2005  0:07:41         PAGE 126


LOC  OBJECT CODE     LINE SOURCE TEXT
  VALUE

                          M PREV_BANK = 1
                          M     endif
                          M 
                          M     if (((PORTD) & 180h) == 100h)
                          M       if (PREV_BANK == 0)
                          M         bsf     STATUS, RP1
                          M       endif
                          M       if (PREV_BANK == 1)
                          M         bcf     STATUS, RP0
                          M         bsf     STATUS, RP1
                          M       endif
                          M       if (PREV_BANK == 3)
                          M         bcf     STATUS, RP0
                          M       endif
                          M PREV_BANK = 2
                          M     endif
                          M 
                          M     if (((PORTD) & 180h) == 180h)
                          M       if (PREV_BANK == 0)
                          M         bsf     STATUS, RP0
                          M         bsf     STATUS, RP1
                          M       endif
                          M       if (PREV_BANK == 1)
                          M         bsf     STATUS, RP1
                          M       endif
                          M       if (PREV_BANK == 2)
                          M         bsf     STATUS, RP0
                          M       endif
                          M PREV_BANK = 3
                          M     endif
                          M     if (((0)   & 1) == 1)
                          M         bsf     PORTD,  003h
                          M     else
01D5   1188               M         bcf     PORTD,  003h
                          M     endif
                          M         MOVE?CT 0, ((PORTD) + 80h), 003h
                          M         CHK?RP  ((PORTD) + 80h)
                          M     if (((((PORTD) + 80h)) & 180h) == 0)
                          M       if (PREV_BANK == 1)
                          M         bcf     STATUS, RP0
                          M       endif
                          M       if (PREV_BANK == 2)
                          M         bcf     STATUS, RP1
                          M       endif
                          M       if (PREV_BANK == 3)
                          M         bcf     STATUS, RP0
                          M         bcf     STATUS, RP1
                          M       endif
                          M PREV_BANK = 0
                          M     endif
                          M 
                          M     if (((((PORTD) + 80h)) & 180h) == 80h)
                          M       if (PREV_BANK == 0)
MPASM  5.49                      SDCCON~1.ASM   7-1-2005  0:07:41         PAGE 127


LOC  OBJECT CODE     LINE SOURCE TEXT
  VALUE

01D6   1683               M         bsf     STATUS, RP0
                          M       endif
                          M       if (PREV_BANK == 2)
                          M         bsf     STATUS, RP0
                          M         bcf     STATUS, RP1
                          M       endif
                          M       if (PREV_BANK == 3)
                          M         bcf     STATUS, RP1
                          M       endif
  00000001                M PREV_BANK = 1
                          M     endif
                          M 
                          M     if (((((PORTD) + 80h)) & 180h) == 100h)
                          M       if (PREV_BANK == 0)
                          M         bsf     STATUS, RP1
                          M       endif
                          M       if (PREV_BANK == 1)
                          M         bcf     STATUS, RP0
                          M         bsf     STATUS, RP1
                          M       endif
                          M       if (PREV_BANK == 3)
                          M         bcf     STATUS, RP0
                          M       endif
                          M PREV_BANK = 2
                          M     endif
                          M 
                          M     if (((((PORTD) + 80h)) & 180h) == 180h)
                          M       if (PREV_BANK == 0)
                          M         bsf     STATUS, RP0
                          M         bsf     STATUS, RP1
                          M       endif
                          M       if (PREV_BANK == 1)
                          M         bsf     STATUS, RP1
                          M       endif
                          M       if (PREV_BANK == 2)
                          M         bsf     STATUS, RP0
                          M       endif
                          M PREV_BANK = 3
                          M     endif
                          M     if (((0)   & 1) == 1)
                          M         bsf     ((PORTD) + 80h), 003h
                          M     else
01D7   1188               M         bcf     ((PORTD) + 80h), 003h
                          M     endif
                      00144         LOW?T   _vent
                          M         MOVE?CT 0, PORTD, 004h
                          M         CHK?RP  PORTD
                          M     if (((PORTD) & 180h) == 0)
                          M       if (PREV_BANK == 1)
01D8   1283               M         bcf     STATUS, RP0
                          M       endif
                          M       if (PREV_BANK == 2)
                          M         bcf     STATUS, RP1
MPASM  5.49                      SDCCON~1.ASM   7-1-2005  0:07:41         PAGE 128


LOC  OBJECT CODE     LINE SOURCE TEXT
  VALUE

                          M       endif
                          M       if (PREV_BANK == 3)
                          M         bcf     STATUS, RP0
                          M         bcf     STATUS, RP1
                          M       endif
  00000000                M PREV_BANK = 0
                          M     endif
                          M 
                          M     if (((PORTD) & 180h) == 80h)
                          M       if (PREV_BANK == 0)
                          M         bsf     STATUS, RP0
                          M       endif
                          M       if (PREV_BANK == 2)
                          M         bsf     STATUS, RP0
                          M         bcf     STATUS, RP1
                          M       endif
                          M       if (PREV_BANK == 3)
                          M         bcf     STATUS, RP1
                          M       endif
                          M PREV_BANK = 1
                          M     endif
                          M 
                          M     if (((PORTD) & 180h) == 100h)
                          M       if (PREV_BANK == 0)
                          M         bsf     STATUS, RP1
                          M       endif
                          M       if (PREV_BANK == 1)
                          M         bcf     STATUS, RP0
                          M         bsf     STATUS, RP1
                          M       endif
                          M       if (PREV_BANK == 3)
                          M         bcf     STATUS, RP0
                          M       endif
                          M PREV_BANK = 2
                          M     endif
                          M 
                          M     if (((PORTD) & 180h) == 180h)
                          M       if (PREV_BANK == 0)
                          M         bsf     STATUS, RP0
                          M         bsf     STATUS, RP1
                          M       endif
                          M       if (PREV_BANK == 1)
                          M         bsf     STATUS, RP1
                          M       endif
                          M       if (PREV_BANK == 2)
                          M         bsf     STATUS, RP0
                          M       endif
                          M PREV_BANK = 3
                          M     endif
                          M     if (((0)   & 1) == 1)
                          M         bsf     PORTD,  004h
                          M     else
01D9   1208               M         bcf     PORTD,  004h
MPASM  5.49                      SDCCON~1.ASM   7-1-2005  0:07:41         PAGE 129


LOC  OBJECT CODE     LINE SOURCE TEXT
  VALUE

                          M     endif
                          M         MOVE?CT 0, ((PORTD) + 80h), 004h
                          M         CHK?RP  ((PORTD) + 80h)
                          M     if (((((PORTD) + 80h)) & 180h) == 0)
                          M       if (PREV_BANK == 1)
                          M         bcf     STATUS, RP0
                          M       endif
                          M       if (PREV_BANK == 2)
                          M         bcf     STATUS, RP1
                          M       endif
                          M       if (PREV_BANK == 3)
                          M         bcf     STATUS, RP0
                          M         bcf     STATUS, RP1
                          M       endif
                          M PREV_BANK = 0
                          M     endif
                          M 
                          M     if (((((PORTD) + 80h)) & 180h) == 80h)
                          M       if (PREV_BANK == 0)
01DA   1683               M         bsf     STATUS, RP0
                          M       endif
                          M       if (PREV_BANK == 2)
                          M         bsf     STATUS, RP0
                          M         bcf     STATUS, RP1
                          M       endif
                          M       if (PREV_BANK == 3)
                          M         bcf     STATUS, RP1
                          M       endif
  00000001                M PREV_BANK = 1
                          M     endif
                          M 
                          M     if (((((PORTD) + 80h)) & 180h) == 100h)
                          M       if (PREV_BANK == 0)
                          M         bsf     STATUS, RP1
                          M       endif
                          M       if (PREV_BANK == 1)
                          M         bcf     STATUS, RP0
                          M         bsf     STATUS, RP1
                          M       endif
                          M       if (PREV_BANK == 3)
                          M         bcf     STATUS, RP0
                          M       endif
                          M PREV_BANK = 2
                          M     endif
                          M 
                          M     if (((((PORTD) + 80h)) & 180h) == 180h)
                          M       if (PREV_BANK == 0)
                          M         bsf     STATUS, RP0
                          M         bsf     STATUS, RP1
                          M       endif
                          M       if (PREV_BANK == 1)
                          M         bsf     STATUS, RP1
                          M       endif
MPASM  5.49                      SDCCON~1.ASM   7-1-2005  0:07:41         PAGE 130


LOC  OBJECT CODE     LINE SOURCE TEXT
  VALUE

                          M       if (PREV_BANK == 2)
                          M         bsf     STATUS, RP0
                          M       endif
                          M PREV_BANK = 3
                          M     endif
                          M     if (((0)   & 1) == 1)
                          M         bsf     ((PORTD) + 80h), 004h
                          M     else
01DB   1208               M         bcf     ((PORTD) + 80h), 004h
                          M     endif
                      00145         GOTO?L  _sensar
                          M         L?GOTO  _sensar
                          M     if ($ == (_sensar))
                          M         CLRWDT?
                          M     endif
                          M 
                          M         RST?RP
                          M     if ((PREV_BANK & 1) != 0)
01DC   1283               M         bcf     STATUS, RP0
                          M     endif
                          M     if ((PREV_BANK & 2) != 0)
                          M         bcf     STATUS, RP1
                          M     endif
  00000000                M PREV_BANK = 0
                          M 
                          M     if ((_sensar) < 1)
                          M       if (CODE_SIZE >= 4)
                          M         if (((_sensar) & 800h) == 0)
                          M         bcf     PCLATH, 3
                          M         else
                          M         bsf     PCLATH, 3
                          M         endif
                          M       endif
                          M       if (CODE_SIZE == 8)
                          M         if (((_sensar) & 1000h) == 0)
                          M         bcf     PCLATH, 4
                          M         else
                          M         bsf     PCLATH, 4
                          M         endif
                          M       endif
                          M     else
                          M       if ((_sensar) > $)
                          M         if (CODE_SIZE >= 4)
                          M           if (((_sensar) & 800h) == 0)
                          M         bcf     PCLATH, 3
                          M           else
                          M         bsf     PCLATH, 3
                          M           endif
                          M         endif
                          M         if (CODE_SIZE == 8)
                          M           if (((_sensar) & 1000h) == 0)
                          M         bcf     PCLATH, 4
                          M           else
MPASM  5.49                      SDCCON~1.ASM   7-1-2005  0:07:41         PAGE 131


LOC  OBJECT CODE     LINE SOURCE TEXT
  VALUE

                          M         bsf     PCLATH, 4
                          M           endif
                          M         endif
                          M       else
                          M         if (CODE_SIZE >= 4)
                          M           if (((_sensar) & 1800h) == 0)
01DD   018A               M         clrf    PCLATH
                          M           else
                          M             if (((_sensar) & 800h) == 0)
                          M         bcf     PCLATH, 3
                          M             else
                          M         bsf     PCLATH, 3
                          M             endif
                          M             if (CODE_SIZE == 8)
                          M               if (((_sensar) & 1000h) == 0)
                          M         bcf     PCLATH, 4
                          M               else
                          M         bsf     PCLATH, 4
                          M               endif
                          M             endif
                          M           endif
                          M         endif
                          M       endif
                          M     endif
                          M 
01DE   2919               M         goto    _sensar
                      00146 
                      00147         LABEL?L _calentar       
                          M         RST?RP
                          M     if ((PREV_BANK & 1) != 0)
                          M         bcf     STATUS, RP0
                          M     endif
                          M     if ((PREV_BANK & 2) != 0)
                          M         bcf     STATUS, RP1
                          M     endif
  00000000                M PREV_BANK = 0
                          M     ifdef PM_USED
                          M         LALL
                          M _calentar
                          M         XALL
                          M     else
01DF                      M _calentar
                          M     endif
                      00148         HIGH?T  _calf
                          M         MOVE?CT 1, PORTD, 003h
                          M         CHK?RP  PORTD
                          M     if (((PORTD) & 180h) == 0)
                          M       if (PREV_BANK == 1)
                          M         bcf     STATUS, RP0
                          M       endif
                          M       if (PREV_BANK == 2)
                          M         bcf     STATUS, RP1
                          M       endif
MPASM  5.49                      SDCCON~1.ASM   7-1-2005  0:07:41         PAGE 132


LOC  OBJECT CODE     LINE SOURCE TEXT
  VALUE

                          M       if (PREV_BANK == 3)
                          M         bcf     STATUS, RP0
                          M         bcf     STATUS, RP1
                          M       endif
  00000000                M PREV_BANK = 0
                          M     endif
                          M 
                          M     if (((PORTD) & 180h) == 80h)
                          M       if (PREV_BANK == 0)
                          M         bsf     STATUS, RP0
                          M       endif
                          M       if (PREV_BANK == 2)
                          M         bsf     STATUS, RP0
                          M         bcf     STATUS, RP1
                          M       endif
                          M       if (PREV_BANK == 3)
                          M         bcf     STATUS, RP1
                          M       endif
                          M PREV_BANK = 1
                          M     endif
                          M 
                          M     if (((PORTD) & 180h) == 100h)
                          M       if (PREV_BANK == 0)
                          M         bsf     STATUS, RP1
                          M       endif
                          M       if (PREV_BANK == 1)
                          M         bcf     STATUS, RP0
                          M         bsf     STATUS, RP1
                          M       endif
                          M       if (PREV_BANK == 3)
                          M         bcf     STATUS, RP0
                          M       endif
                          M PREV_BANK = 2
                          M     endif
                          M 
                          M     if (((PORTD) & 180h) == 180h)
                          M       if (PREV_BANK == 0)
                          M         bsf     STATUS, RP0
                          M         bsf     STATUS, RP1
                          M       endif
                          M       if (PREV_BANK == 1)
                          M         bsf     STATUS, RP1
                          M       endif
                          M       if (PREV_BANK == 2)
                          M         bsf     STATUS, RP0
                          M       endif
                          M PREV_BANK = 3
                          M     endif
                          M     if (((1)   & 1) == 1)
01DF   1588               M         bsf     PORTD,  003h
                          M     else
                          M         bcf     PORTD,  003h
                          M     endif
MPASM  5.49                      SDCCON~1.ASM   7-1-2005  0:07:41         PAGE 133


LOC  OBJECT CODE     LINE SOURCE TEXT
  VALUE

                          M         MOVE?CT 0, ((PORTD) + 80h), 003h
                          M         CHK?RP  ((PORTD) + 80h)
                          M     if (((((PORTD) + 80h)) & 180h) == 0)
                          M       if (PREV_BANK == 1)
                          M         bcf     STATUS, RP0
                          M       endif
                          M       if (PREV_BANK == 2)
                          M         bcf     STATUS, RP1
                          M       endif
                          M       if (PREV_BANK == 3)
                          M         bcf     STATUS, RP0
                          M         bcf     STATUS, RP1
                          M       endif
                          M PREV_BANK = 0
                          M     endif
                          M 
                          M     if (((((PORTD) + 80h)) & 180h) == 80h)
                          M       if (PREV_BANK == 0)
01E0   1683               M         bsf     STATUS, RP0
                          M       endif
                          M       if (PREV_BANK == 2)
                          M         bsf     STATUS, RP0
                          M         bcf     STATUS, RP1
                          M       endif
                          M       if (PREV_BANK == 3)
                          M         bcf     STATUS, RP1
                          M       endif
  00000001                M PREV_BANK = 1
                          M     endif
                          M 
                          M     if (((((PORTD) + 80h)) & 180h) == 100h)
                          M       if (PREV_BANK == 0)
                          M         bsf     STATUS, RP1
                          M       endif
                          M       if (PREV_BANK == 1)
                          M         bcf     STATUS, RP0
                          M         bsf     STATUS, RP1
                          M       endif
                          M       if (PREV_BANK == 3)
                          M         bcf     STATUS, RP0
                          M       endif
                          M PREV_BANK = 2
                          M     endif
                          M 
                          M     if (((((PORTD) + 80h)) & 180h) == 180h)
                          M       if (PREV_BANK == 0)
                          M         bsf     STATUS, RP0
                          M         bsf     STATUS, RP1
                          M       endif
                          M       if (PREV_BANK == 1)
                          M         bsf     STATUS, RP1
                          M       endif
                          M       if (PREV_BANK == 2)
MPASM  5.49                      SDCCON~1.ASM   7-1-2005  0:07:41         PAGE 134


LOC  OBJECT CODE     LINE SOURCE TEXT
  VALUE

                          M         bsf     STATUS, RP0
                          M       endif
                          M PREV_BANK = 3
                          M     endif
                          M     if (((0)   & 1) == 1)
                          M         bsf     ((PORTD) + 80h), 003h
                          M     else
01E1   1188               M         bcf     ((PORTD) + 80h), 003h
                          M     endif
                      00149         LOW?T   _vent
                          M         MOVE?CT 0, PORTD, 004h
                          M         CHK?RP  PORTD
                          M     if (((PORTD) & 180h) == 0)
                          M       if (PREV_BANK == 1)
01E2   1283               M         bcf     STATUS, RP0
                          M       endif
                          M       if (PREV_BANK == 2)
                          M         bcf     STATUS, RP1
                          M       endif
                          M       if (PREV_BANK == 3)
                          M         bcf     STATUS, RP0
                          M         bcf     STATUS, RP1
                          M       endif
  00000000                M PREV_BANK = 0
                          M     endif
                          M 
                          M     if (((PORTD) & 180h) == 80h)
                          M       if (PREV_BANK == 0)
                          M         bsf     STATUS, RP0
                          M       endif
                          M       if (PREV_BANK == 2)
                          M         bsf     STATUS, RP0
                          M         bcf     STATUS, RP1
                          M       endif
                          M       if (PREV_BANK == 3)
                          M         bcf     STATUS, RP1
                          M       endif
                          M PREV_BANK = 1
                          M     endif
                          M 
                          M     if (((PORTD) & 180h) == 100h)
                          M       if (PREV_BANK == 0)
                          M         bsf     STATUS, RP1
                          M       endif
                          M       if (PREV_BANK == 1)
                          M         bcf     STATUS, RP0
                          M         bsf     STATUS, RP1
                          M       endif
                          M       if (PREV_BANK == 3)
                          M         bcf     STATUS, RP0
                          M       endif
                          M PREV_BANK = 2
                          M     endif
MPASM  5.49                      SDCCON~1.ASM   7-1-2005  0:07:41         PAGE 135


LOC  OBJECT CODE     LINE SOURCE TEXT
  VALUE

                          M 
                          M     if (((PORTD) & 180h) == 180h)
                          M       if (PREV_BANK == 0)
                          M         bsf     STATUS, RP0
                          M         bsf     STATUS, RP1
                          M       endif
                          M       if (PREV_BANK == 1)
                          M         bsf     STATUS, RP1
                          M       endif
                          M       if (PREV_BANK == 2)
                          M         bsf     STATUS, RP0
                          M       endif
                          M PREV_BANK = 3
                          M     endif
                          M     if (((0)   & 1) == 1)
                          M         bsf     PORTD,  004h
                          M     else
01E3   1208               M         bcf     PORTD,  004h
                          M     endif
                          M         MOVE?CT 0, ((PORTD) + 80h), 004h
                          M         CHK?RP  ((PORTD) + 80h)
                          M     if (((((PORTD) + 80h)) & 180h) == 0)
                          M       if (PREV_BANK == 1)
                          M         bcf     STATUS, RP0
                          M       endif
                          M       if (PREV_BANK == 2)
                          M         bcf     STATUS, RP1
                          M       endif
                          M       if (PREV_BANK == 3)
                          M         bcf     STATUS, RP0
                          M         bcf     STATUS, RP1
                          M       endif
                          M PREV_BANK = 0
                          M     endif
                          M 
                          M     if (((((PORTD) + 80h)) & 180h) == 80h)
                          M       if (PREV_BANK == 0)
01E4   1683               M         bsf     STATUS, RP0
                          M       endif
                          M       if (PREV_BANK == 2)
                          M         bsf     STATUS, RP0
                          M         bcf     STATUS, RP1
                          M       endif
                          M       if (PREV_BANK == 3)
                          M         bcf     STATUS, RP1
                          M       endif
  00000001                M PREV_BANK = 1
                          M     endif
                          M 
                          M     if (((((PORTD) + 80h)) & 180h) == 100h)
                          M       if (PREV_BANK == 0)
                          M         bsf     STATUS, RP1
                          M       endif
MPASM  5.49                      SDCCON~1.ASM   7-1-2005  0:07:41         PAGE 136


LOC  OBJECT CODE     LINE SOURCE TEXT
  VALUE

                          M       if (PREV_BANK == 1)
                          M         bcf     STATUS, RP0
                          M         bsf     STATUS, RP1
                          M       endif
                          M       if (PREV_BANK == 3)
                          M         bcf     STATUS, RP0
                          M       endif
                          M PREV_BANK = 2
                          M     endif
                          M 
                          M     if (((((PORTD) + 80h)) & 180h) == 180h)
                          M       if (PREV_BANK == 0)
                          M         bsf     STATUS, RP0
                          M         bsf     STATUS, RP1
                          M       endif
                          M       if (PREV_BANK == 1)
                          M         bsf     STATUS, RP1
                          M       endif
                          M       if (PREV_BANK == 2)
                          M         bsf     STATUS, RP0
                          M       endif
                          M PREV_BANK = 3
                          M     endif
                          M     if (((0)   & 1) == 1)
                          M         bsf     ((PORTD) + 80h), 004h
                          M     else
01E5   1208               M         bcf     ((PORTD) + 80h), 004h
                          M     endif
                      00150         GOTO?L  _sensar
                          M         L?GOTO  _sensar
                          M     if ($ == (_sensar))
                          M         CLRWDT?
                          M     endif
                          M 
                          M         RST?RP
                          M     if ((PREV_BANK & 1) != 0)
01E6   1283               M         bcf     STATUS, RP0
                          M     endif
                          M     if ((PREV_BANK & 2) != 0)
                          M         bcf     STATUS, RP1
                          M     endif
  00000000                M PREV_BANK = 0
                          M 
                          M     if ((_sensar) < 1)
                          M       if (CODE_SIZE >= 4)
                          M         if (((_sensar) & 800h) == 0)
                          M         bcf     PCLATH, 3
                          M         else
                          M         bsf     PCLATH, 3
                          M         endif
                          M       endif
                          M       if (CODE_SIZE == 8)
                          M         if (((_sensar) & 1000h) == 0)
MPASM  5.49                      SDCCON~1.ASM   7-1-2005  0:07:41         PAGE 137


LOC  OBJECT CODE     LINE SOURCE TEXT
  VALUE

                          M         bcf     PCLATH, 4
                          M         else
                          M         bsf     PCLATH, 4
                          M         endif
                          M       endif
                          M     else
                          M       if ((_sensar) > $)
                          M         if (CODE_SIZE >= 4)
                          M           if (((_sensar) & 800h) == 0)
                          M         bcf     PCLATH, 3
                          M           else
                          M         bsf     PCLATH, 3
                          M           endif
                          M         endif
                          M         if (CODE_SIZE == 8)
                          M           if (((_sensar) & 1000h) == 0)
                          M         bcf     PCLATH, 4
                          M           else
                          M         bsf     PCLATH, 4
                          M           endif
                          M         endif
                          M       else
                          M         if (CODE_SIZE >= 4)
                          M           if (((_sensar) & 1800h) == 0)
01E7   018A               M         clrf    PCLATH
                          M           else
                          M             if (((_sensar) & 800h) == 0)
                          M         bcf     PCLATH, 3
                          M             else
                          M         bsf     PCLATH, 3
                          M             endif
                          M             if (CODE_SIZE == 8)
                          M               if (((_sensar) & 1000h) == 0)
                          M         bcf     PCLATH, 4
                          M               else
                          M         bsf     PCLATH, 4
                          M               endif
                          M             endif
                          M           endif
                          M         endif
                          M       endif
                          M     endif
                          M 
01E8   2919               M         goto    _sensar
                      00151 
                      00152         LABEL?L _enfriar        
                          M         RST?RP
                          M     if ((PREV_BANK & 1) != 0)
                          M         bcf     STATUS, RP0
                          M     endif
                          M     if ((PREV_BANK & 2) != 0)
                          M         bcf     STATUS, RP1
                          M     endif
MPASM  5.49                      SDCCON~1.ASM   7-1-2005  0:07:41         PAGE 138


LOC  OBJECT CODE     LINE SOURCE TEXT
  VALUE

  00000000                M PREV_BANK = 0
                          M     ifdef PM_USED
                          M         LALL
                          M _enfriar
                          M         XALL
                          M     else
01E9                      M _enfriar
                          M     endif
                      00153         HIGH?T  _vent
                          M         MOVE?CT 1, PORTD, 004h
                          M         CHK?RP  PORTD
                          M     if (((PORTD) & 180h) == 0)
                          M       if (PREV_BANK == 1)
                          M         bcf     STATUS, RP0
                          M       endif
                          M       if (PREV_BANK == 2)
                          M         bcf     STATUS, RP1
                          M       endif
                          M       if (PREV_BANK == 3)
                          M         bcf     STATUS, RP0
                          M         bcf     STATUS, RP1
                          M       endif
  00000000                M PREV_BANK = 0
                          M     endif
                          M 
                          M     if (((PORTD) & 180h) == 80h)
                          M       if (PREV_BANK == 0)
                          M         bsf     STATUS, RP0
                          M       endif
                          M       if (PREV_BANK == 2)
                          M         bsf     STATUS, RP0
                          M         bcf     STATUS, RP1
                          M       endif
                          M       if (PREV_BANK == 3)
                          M         bcf     STATUS, RP1
                          M       endif
                          M PREV_BANK = 1
                          M     endif
                          M 
                          M     if (((PORTD) & 180h) == 100h)
                          M       if (PREV_BANK == 0)
                          M         bsf     STATUS, RP1
                          M       endif
                          M       if (PREV_BANK == 1)
                          M         bcf     STATUS, RP0
                          M         bsf     STATUS, RP1
                          M       endif
                          M       if (PREV_BANK == 3)
                          M         bcf     STATUS, RP0
                          M       endif
                          M PREV_BANK = 2
                          M     endif
                          M 
MPASM  5.49                      SDCCON~1.ASM   7-1-2005  0:07:41         PAGE 139


LOC  OBJECT CODE     LINE SOURCE TEXT
  VALUE

                          M     if (((PORTD) & 180h) == 180h)
                          M       if (PREV_BANK == 0)
                          M         bsf     STATUS, RP0
                          M         bsf     STATUS, RP1
                          M       endif
                          M       if (PREV_BANK == 1)
                          M         bsf     STATUS, RP1
                          M       endif
                          M       if (PREV_BANK == 2)
                          M         bsf     STATUS, RP0
                          M       endif
                          M PREV_BANK = 3
                          M     endif
                          M     if (((1)   & 1) == 1)
01E9   1608               M         bsf     PORTD,  004h
                          M     else
                          M         bcf     PORTD,  004h
                          M     endif
                          M         MOVE?CT 0, ((PORTD) + 80h), 004h
                          M         CHK?RP  ((PORTD) + 80h)
                          M     if (((((PORTD) + 80h)) & 180h) == 0)
                          M       if (PREV_BANK == 1)
                          M         bcf     STATUS, RP0
                          M       endif
                          M       if (PREV_BANK == 2)
                          M         bcf     STATUS, RP1
                          M       endif
                          M       if (PREV_BANK == 3)
                          M         bcf     STATUS, RP0
                          M         bcf     STATUS, RP1
                          M       endif
                          M PREV_BANK = 0
                          M     endif
                          M 
                          M     if (((((PORTD) + 80h)) & 180h) == 80h)
                          M       if (PREV_BANK == 0)
01EA   1683               M         bsf     STATUS, RP0
                          M       endif
                          M       if (PREV_BANK == 2)
                          M         bsf     STATUS, RP0
                          M         bcf     STATUS, RP1
                          M       endif
                          M       if (PREV_BANK == 3)
                          M         bcf     STATUS, RP1
                          M       endif
  00000001                M PREV_BANK = 1
                          M     endif
                          M 
                          M     if (((((PORTD) + 80h)) & 180h) == 100h)
                          M       if (PREV_BANK == 0)
                          M         bsf     STATUS, RP1
                          M       endif
                          M       if (PREV_BANK == 1)
MPASM  5.49                      SDCCON~1.ASM   7-1-2005  0:07:41         PAGE 140


LOC  OBJECT CODE     LINE SOURCE TEXT
  VALUE

                          M         bcf     STATUS, RP0
                          M         bsf     STATUS, RP1
                          M       endif
                          M       if (PREV_BANK == 3)
                          M         bcf     STATUS, RP0
                          M       endif
                          M PREV_BANK = 2
                          M     endif
                          M 
                          M     if (((((PORTD) + 80h)) & 180h) == 180h)
                          M       if (PREV_BANK == 0)
                          M         bsf     STATUS, RP0
                          M         bsf     STATUS, RP1
                          M       endif
                          M       if (PREV_BANK == 1)
                          M         bsf     STATUS, RP1
                          M       endif
                          M       if (PREV_BANK == 2)
                          M         bsf     STATUS, RP0
                          M       endif
                          M PREV_BANK = 3
                          M     endif
                          M     if (((0)   & 1) == 1)
                          M         bsf     ((PORTD) + 80h), 004h
                          M     else
01EB   1208               M         bcf     ((PORTD) + 80h), 004h
                          M     endif
                      00154         LOW?T   _calf
                          M         MOVE?CT 0, PORTD, 003h
                          M         CHK?RP  PORTD
                          M     if (((PORTD) & 180h) == 0)
                          M       if (PREV_BANK == 1)
01EC   1283               M         bcf     STATUS, RP0
                          M       endif
                          M       if (PREV_BANK == 2)
                          M         bcf     STATUS, RP1
                          M       endif
                          M       if (PREV_BANK == 3)
                          M         bcf     STATUS, RP0
                          M         bcf     STATUS, RP1
                          M       endif
  00000000                M PREV_BANK = 0
                          M     endif
                          M 
                          M     if (((PORTD) & 180h) == 80h)
                          M       if (PREV_BANK == 0)
                          M         bsf     STATUS, RP0
                          M       endif
                          M       if (PREV_BANK == 2)
                          M         bsf     STATUS, RP0
                          M         bcf     STATUS, RP1
                          M       endif
                          M       if (PREV_BANK == 3)
MPASM  5.49                      SDCCON~1.ASM   7-1-2005  0:07:41         PAGE 141


LOC  OBJECT CODE     LINE SOURCE TEXT
  VALUE

                          M         bcf     STATUS, RP1
                          M       endif
                          M PREV_BANK = 1
                          M     endif
                          M 
                          M     if (((PORTD) & 180h) == 100h)
                          M       if (PREV_BANK == 0)
                          M         bsf     STATUS, RP1
                          M       endif
                          M       if (PREV_BANK == 1)
                          M         bcf     STATUS, RP0
                          M         bsf     STATUS, RP1
                          M       endif
                          M       if (PREV_BANK == 3)
                          M         bcf     STATUS, RP0
                          M       endif
                          M PREV_BANK = 2
                          M     endif
                          M 
                          M     if (((PORTD) & 180h) == 180h)
                          M       if (PREV_BANK == 0)
                          M         bsf     STATUS, RP0
                          M         bsf     STATUS, RP1
                          M       endif
                          M       if (PREV_BANK == 1)
                          M         bsf     STATUS, RP1
                          M       endif
                          M       if (PREV_BANK == 2)
                          M         bsf     STATUS, RP0
                          M       endif
                          M PREV_BANK = 3
                          M     endif
                          M     if (((0)   & 1) == 1)
                          M         bsf     PORTD,  003h
                          M     else
01ED   1188               M         bcf     PORTD,  003h
                          M     endif
                          M         MOVE?CT 0, ((PORTD) + 80h), 003h
                          M         CHK?RP  ((PORTD) + 80h)
                          M     if (((((PORTD) + 80h)) & 180h) == 0)
                          M       if (PREV_BANK == 1)
                          M         bcf     STATUS, RP0
                          M       endif
                          M       if (PREV_BANK == 2)
                          M         bcf     STATUS, RP1
                          M       endif
                          M       if (PREV_BANK == 3)
                          M         bcf     STATUS, RP0
                          M         bcf     STATUS, RP1
                          M       endif
                          M PREV_BANK = 0
                          M     endif
                          M 
MPASM  5.49                      SDCCON~1.ASM   7-1-2005  0:07:41         PAGE 142


LOC  OBJECT CODE     LINE SOURCE TEXT
  VALUE

                          M     if (((((PORTD) + 80h)) & 180h) == 80h)
                          M       if (PREV_BANK == 0)
01EE   1683               M         bsf     STATUS, RP0
                          M       endif
                          M       if (PREV_BANK == 2)
                          M         bsf     STATUS, RP0
                          M         bcf     STATUS, RP1
                          M       endif
                          M       if (PREV_BANK == 3)
                          M         bcf     STATUS, RP1
                          M       endif
  00000001                M PREV_BANK = 1
                          M     endif
                          M 
                          M     if (((((PORTD) + 80h)) & 180h) == 100h)
                          M       if (PREV_BANK == 0)
                          M         bsf     STATUS, RP1
                          M       endif
                          M       if (PREV_BANK == 1)
                          M         bcf     STATUS, RP0
                          M         bsf     STATUS, RP1
                          M       endif
                          M       if (PREV_BANK == 3)
                          M         bcf     STATUS, RP0
                          M       endif
                          M PREV_BANK = 2
                          M     endif
                          M 
                          M     if (((((PORTD) + 80h)) & 180h) == 180h)
                          M       if (PREV_BANK == 0)
                          M         bsf     STATUS, RP0
                          M         bsf     STATUS, RP1
                          M       endif
                          M       if (PREV_BANK == 1)
                          M         bsf     STATUS, RP1
                          M       endif
                          M       if (PREV_BANK == 2)
                          M         bsf     STATUS, RP0
                          M       endif
                          M PREV_BANK = 3
                          M     endif
                          M     if (((0)   & 1) == 1)
                          M         bsf     ((PORTD) + 80h), 003h
                          M     else
01EF   1188               M         bcf     ((PORTD) + 80h), 003h
                          M     endif
                      00155         GOTO?L  _sensar
                          M         L?GOTO  _sensar
                          M     if ($ == (_sensar))
                          M         CLRWDT?
                          M     endif
                          M 
                          M         RST?RP
MPASM  5.49                      SDCCON~1.ASM   7-1-2005  0:07:41         PAGE 143


LOC  OBJECT CODE     LINE SOURCE TEXT
  VALUE

                          M     if ((PREV_BANK & 1) != 0)
01F0   1283               M         bcf     STATUS, RP0
                          M     endif
                          M     if ((PREV_BANK & 2) != 0)
                          M         bcf     STATUS, RP1
                          M     endif
  00000000                M PREV_BANK = 0
                          M 
                          M     if ((_sensar) < 1)
                          M       if (CODE_SIZE >= 4)
                          M         if (((_sensar) & 800h) == 0)
                          M         bcf     PCLATH, 3
                          M         else
                          M         bsf     PCLATH, 3
                          M         endif
                          M       endif
                          M       if (CODE_SIZE == 8)
                          M         if (((_sensar) & 1000h) == 0)
                          M         bcf     PCLATH, 4
                          M         else
                          M         bsf     PCLATH, 4
                          M         endif
                          M       endif
                          M     else
                          M       if ((_sensar) > $)
                          M         if (CODE_SIZE >= 4)
                          M           if (((_sensar) & 800h) == 0)
                          M         bcf     PCLATH, 3
                          M           else
                          M         bsf     PCLATH, 3
                          M           endif
                          M         endif
                          M         if (CODE_SIZE == 8)
                          M           if (((_sensar) & 1000h) == 0)
                          M         bcf     PCLATH, 4
                          M           else
                          M         bsf     PCLATH, 4
                          M           endif
                          M         endif
                          M       else
                          M         if (CODE_SIZE >= 4)
                          M           if (((_sensar) & 1800h) == 0)
01F1   018A               M         clrf    PCLATH
                          M           else
                          M             if (((_sensar) & 800h) == 0)
                          M         bcf     PCLATH, 3
                          M             else
                          M         bsf     PCLATH, 3
                          M             endif
                          M             if (CODE_SIZE == 8)
                          M               if (((_sensar) & 1000h) == 0)
                          M         bcf     PCLATH, 4
                          M               else
MPASM  5.49                      SDCCON~1.ASM   7-1-2005  0:07:41         PAGE 144


LOC  OBJECT CODE     LINE SOURCE TEXT
  VALUE

                          M         bsf     PCLATH, 4
                          M               endif
                          M             endif
                          M           endif
                          M         endif
                          M       endif
                          M     endif
                          M 
01F2   2919               M         goto    _sensar
                      00156 
                      00157         LABEL?L _grabar1a       
                          M         RST?RP
                          M     if ((PREV_BANK & 1) != 0)
                          M         bcf     STATUS, RP0
                          M     endif
                          M     if ((PREV_BANK & 2) != 0)
                          M         bcf     STATUS, RP1
                          M     endif
  00000000                M PREV_BANK = 0
                          M     ifdef PM_USED
                          M         LALL
                          M _grabar1a
                          M         XALL
                          M     else
01F3                      M _grabar1a
                          M     endif
                      00158         GOSUB?L _soltar
  0000                    M     local dlabel
                          M     ifdef DEBUG_STACK
                          M         CHK?RP  DEBUG_STACK
                          M       ifdef DEBUG_STACK_ADDR
                          M         bcf     STATUS, C
                          M         rlf     DEBUG_STACK, W
                          M         addlw   DEBUG_STACK_ADDR
                          M         movwf   FSR
                          M         movlw   low (dlabel)
                          M         movwf   INDF
                          M         incf    FSR, F
                          M         movlw   (dlabel) >> 8
                          M         movwf   INDF
                          M       endif
                          M         incf    DEBUG_STACK, F
                          M     endif
                          M         L?CALL  _soltar
                          M         RST?RP
                          M     if ((PREV_BANK & 1) != 0)
                          M         bcf     STATUS, RP0
                          M     endif
                          M     if ((PREV_BANK & 2) != 0)
                          M         bcf     STATUS, RP1
                          M     endif
  00000000                M PREV_BANK = 0
                          M 
MPASM  5.49                      SDCCON~1.ASM   7-1-2005  0:07:41         PAGE 145


LOC  OBJECT CODE     LINE SOURCE TEXT
  VALUE

                          M     if ((_soltar) < 1)
                          M       if (CODE_SIZE >= 4)
                          M         if (((_soltar) & 800h) == 0)
                          M         bcf     PCLATH, 3
                          M         else
                          M         bsf     PCLATH, 3
                          M         endif
                          M       endif
                          M       if (CODE_SIZE == 8)
                          M         if (((_soltar) & 1000h) == 0)
                          M         bcf     PCLATH, 4
                          M         else
                          M         bsf     PCLATH, 4
                          M         endif
                          M       endif
                          M     else
                          M       if ((_soltar) > $)
                          M         if (CODE_SIZE >= 4)
                          M           if (((_soltar) & 800h) == 0)
01F3   118A               M         bcf     PCLATH, 3
                          M           else
                          M         bsf     PCLATH, 3
                          M           endif
                          M         endif
                          M         if (CODE_SIZE == 8)
                          M           if (((_soltar) & 1000h) == 0)
01F4   120A               M         bcf     PCLATH, 4
                          M           else
                          M         bsf     PCLATH, 4
                          M           endif
                          M         endif
                          M       else
                          M         if (CODE_SIZE >= 4)
                          M           if (((_soltar) & 1800h) == 0)
                          M         clrf    PCLATH
                          M           else
                          M             if (((_soltar) & 800h) == 0)
                          M         bcf     PCLATH, 3
                          M             else
                          M         bsf     PCLATH, 3
                          M             endif
                          M             if (CODE_SIZE == 8)
                          M               if (((_soltar) & 1000h) == 0)
                          M         bcf     PCLATH, 4
                          M               else
                          M         bsf     PCLATH, 4
                          M               endif
                          M             endif
                          M           endif
                          M         endif
                          M       endif
                          M     endif
                          M 
MPASM  5.49                      SDCCON~1.ASM   7-1-2005  0:07:41         PAGE 146


LOC  OBJECT CODE     LINE SOURCE TEXT
  VALUE

01F5   2339               M         call    _soltar
01F6                      M dlabel
                      00159 
                      00160         LABEL?L _grabar1        
                          M         RST?RP
                          M     if ((PREV_BANK & 1) != 0)
                          M         bcf     STATUS, RP0
                          M     endif
                          M     if ((PREV_BANK & 2) != 0)
                          M         bcf     STATUS, RP1
                          M     endif
  00000000                M PREV_BANK = 0
                          M     ifdef PM_USED
                          M         LALL
                          M _grabar1
                          M         XALL
                          M     else
01F6                      M _grabar1
                          M     endif
                      00161         LCDOUT?C        0FEh
01F6   30FE               M         movlw   0FEh
                          M         L?CALL  LCDOUT
                          M         RST?RP
                          M     if ((PREV_BANK & 1) != 0)
                          M         bcf     STATUS, RP0
                          M     endif
                          M     if ((PREV_BANK & 2) != 0)
                          M         bcf     STATUS, RP1
                          M     endif
  00000000                M PREV_BANK = 0
                          M 
                          M     if ((LCDOUT) < 1)
                          M       if (CODE_SIZE >= 4)
                          M         if (((LCDOUT) & 800h) == 0)
                          M         bcf     PCLATH, 3
                          M         else
                          M         bsf     PCLATH, 3
                          M         endif
                          M       endif
                          M       if (CODE_SIZE == 8)
                          M         if (((LCDOUT) & 1000h) == 0)
                          M         bcf     PCLATH, 4
                          M         else
                          M         bsf     PCLATH, 4
                          M         endif
                          M       endif
                          M     else
                          M       if ((LCDOUT) > $)
                          M         if (CODE_SIZE >= 4)
                          M           if (((LCDOUT) & 800h) == 0)
                          M         bcf     PCLATH, 3
                          M           else
                          M         bsf     PCLATH, 3
MPASM  5.49                      SDCCON~1.ASM   7-1-2005  0:07:41         PAGE 147


LOC  OBJECT CODE     LINE SOURCE TEXT
  VALUE

                          M           endif
                          M         endif
                          M         if (CODE_SIZE == 8)
                          M           if (((LCDOUT) & 1000h) == 0)
                          M         bcf     PCLATH, 4
                          M           else
                          M         bsf     PCLATH, 4
                          M           endif
                          M         endif
                          M       else
                          M         if (CODE_SIZE >= 4)
                          M           if (((LCDOUT) & 1800h) == 0)
01F7   018A               M         clrf    PCLATH
                          M           else
                          M             if (((LCDOUT) & 800h) == 0)
                          M         bcf     PCLATH, 3
                          M             else
                          M         bsf     PCLATH, 3
                          M             endif
                          M             if (CODE_SIZE == 8)
                          M               if (((LCDOUT) & 1000h) == 0)
                          M         bcf     PCLATH, 4
                          M               else
                          M         bsf     PCLATH, 4
                          M               endif
                          M             endif
                          M           endif
                          M         endif
                          M       endif
                          M     endif
                          M 
01F8   2003               M         call    LCDOUT
                      00162         LCDOUT?C        001h
01F9   3001               M         movlw   001h
                          M         L?CALL  LCDOUT
                          M         RST?RP
                          M     if ((PREV_BANK & 1) != 0)
                          M         bcf     STATUS, RP0
                          M     endif
                          M     if ((PREV_BANK & 2) != 0)
                          M         bcf     STATUS, RP1
                          M     endif
  00000000                M PREV_BANK = 0
                          M 
                          M     if ((LCDOUT) < 1)
                          M       if (CODE_SIZE >= 4)
                          M         if (((LCDOUT) & 800h) == 0)
                          M         bcf     PCLATH, 3
                          M         else
                          M         bsf     PCLATH, 3
                          M         endif
                          M       endif
                          M       if (CODE_SIZE == 8)
MPASM  5.49                      SDCCON~1.ASM   7-1-2005  0:07:41         PAGE 148


LOC  OBJECT CODE     LINE SOURCE TEXT
  VALUE

                          M         if (((LCDOUT) & 1000h) == 0)
                          M         bcf     PCLATH, 4
                          M         else
                          M         bsf     PCLATH, 4
                          M         endif
                          M       endif
                          M     else
                          M       if ((LCDOUT) > $)
                          M         if (CODE_SIZE >= 4)
                          M           if (((LCDOUT) & 800h) == 0)
                          M         bcf     PCLATH, 3
                          M           else
                          M         bsf     PCLATH, 3
                          M           endif
                          M         endif
                          M         if (CODE_SIZE == 8)
                          M           if (((LCDOUT) & 1000h) == 0)
                          M         bcf     PCLATH, 4
                          M           else
                          M         bsf     PCLATH, 4
                          M           endif
                          M         endif
                          M       else
                          M         if (CODE_SIZE >= 4)
                          M           if (((LCDOUT) & 1800h) == 0)
01FA   018A               M         clrf    PCLATH
                          M           else
                          M             if (((LCDOUT) & 800h) == 0)
                          M         bcf     PCLATH, 3
                          M             else
                          M         bsf     PCLATH, 3
                          M             endif
                          M             if (CODE_SIZE == 8)
                          M               if (((LCDOUT) & 1000h) == 0)
                          M         bcf     PCLATH, 4
                          M               else
                          M         bsf     PCLATH, 4
                          M               endif
                          M             endif
                          M           endif
                          M         endif
                          M       endif
                          M     endif
                          M 
01FB   2003               M         call    LCDOUT
                      00163         LCDOUT?C        0FEh
01FC   30FE               M         movlw   0FEh
                          M         L?CALL  LCDOUT
                          M         RST?RP
                          M     if ((PREV_BANK & 1) != 0)
                          M         bcf     STATUS, RP0
                          M     endif
                          M     if ((PREV_BANK & 2) != 0)
MPASM  5.49                      SDCCON~1.ASM   7-1-2005  0:07:41         PAGE 149


LOC  OBJECT CODE     LINE SOURCE TEXT
  VALUE

                          M         bcf     STATUS, RP1
                          M     endif
  00000000                M PREV_BANK = 0
                          M 
                          M     if ((LCDOUT) < 1)
                          M       if (CODE_SIZE >= 4)
                          M         if (((LCDOUT) & 800h) == 0)
                          M         bcf     PCLATH, 3
                          M         else
                          M         bsf     PCLATH, 3
                          M         endif
                          M       endif
                          M       if (CODE_SIZE == 8)
                          M         if (((LCDOUT) & 1000h) == 0)
                          M         bcf     PCLATH, 4
                          M         else
                          M         bsf     PCLATH, 4
                          M         endif
                          M       endif
                          M     else
                          M       if ((LCDOUT) > $)
                          M         if (CODE_SIZE >= 4)
                          M           if (((LCDOUT) & 800h) == 0)
                          M         bcf     PCLATH, 3
                          M           else
                          M         bsf     PCLATH, 3
                          M           endif
                          M         endif
                          M         if (CODE_SIZE == 8)
                          M           if (((LCDOUT) & 1000h) == 0)
                          M         bcf     PCLATH, 4
                          M           else
                          M         bsf     PCLATH, 4
                          M           endif
                          M         endif
                          M       else
                          M         if (CODE_SIZE >= 4)
                          M           if (((LCDOUT) & 1800h) == 0)
01FD   018A               M         clrf    PCLATH
                          M           else
                          M             if (((LCDOUT) & 800h) == 0)
                          M         bcf     PCLATH, 3
                          M             else
                          M         bsf     PCLATH, 3
                          M             endif
                          M             if (CODE_SIZE == 8)
                          M               if (((LCDOUT) & 1000h) == 0)
                          M         bcf     PCLATH, 4
                          M               else
                          M         bsf     PCLATH, 4
                          M               endif
                          M             endif
                          M           endif
MPASM  5.49                      SDCCON~1.ASM   7-1-2005  0:07:41         PAGE 150


LOC  OBJECT CODE     LINE SOURCE TEXT
  VALUE

                          M         endif
                          M       endif
                          M     endif
                          M 
01FE   2003               M         call    LCDOUT
                      00164         LCDOUT?C        002h
01FF   3002               M         movlw   002h
                          M         L?CALL  LCDOUT
                          M         RST?RP
                          M     if ((PREV_BANK & 1) != 0)
                          M         bcf     STATUS, RP0
                          M     endif
                          M     if ((PREV_BANK & 2) != 0)
                          M         bcf     STATUS, RP1
                          M     endif
  00000000                M PREV_BANK = 0
                          M 
                          M     if ((LCDOUT) < 1)
                          M       if (CODE_SIZE >= 4)
                          M         if (((LCDOUT) & 800h) == 0)
                          M         bcf     PCLATH, 3
                          M         else
                          M         bsf     PCLATH, 3
                          M         endif
                          M       endif
                          M       if (CODE_SIZE == 8)
                          M         if (((LCDOUT) & 1000h) == 0)
                          M         bcf     PCLATH, 4
                          M         else
                          M         bsf     PCLATH, 4
                          M         endif
                          M       endif
                          M     else
                          M       if ((LCDOUT) > $)
                          M         if (CODE_SIZE >= 4)
                          M           if (((LCDOUT) & 800h) == 0)
                          M         bcf     PCLATH, 3
                          M           else
                          M         bsf     PCLATH, 3
                          M           endif
                          M         endif
                          M         if (CODE_SIZE == 8)
                          M           if (((LCDOUT) & 1000h) == 0)
                          M         bcf     PCLATH, 4
                          M           else
                          M         bsf     PCLATH, 4
                          M           endif
                          M         endif
                          M       else
                          M         if (CODE_SIZE >= 4)
                          M           if (((LCDOUT) & 1800h) == 0)
0200   018A               M         clrf    PCLATH
                          M           else
MPASM  5.49                      SDCCON~1.ASM   7-1-2005  0:07:41         PAGE 151


LOC  OBJECT CODE     LINE SOURCE TEXT
  VALUE

                          M             if (((LCDOUT) & 800h) == 0)
                          M         bcf     PCLATH, 3
                          M             else
                          M         bsf     PCLATH, 3
                          M             endif
                          M             if (CODE_SIZE == 8)
                          M               if (((LCDOUT) & 1000h) == 0)
                          M         bcf     PCLATH, 4
                          M               else
                          M         bsf     PCLATH, 4
                          M               endif
                          M             endif
                          M           endif
                          M         endif
                          M       endif
                          M     endif
                          M 
0201   2003               M         call    LCDOUT
                      00165         LCDOUT?C        050h
0202   3050               M         movlw   050h
                          M         L?CALL  LCDOUT
                          M         RST?RP
                          M     if ((PREV_BANK & 1) != 0)
                          M         bcf     STATUS, RP0
                          M     endif
                          M     if ((PREV_BANK & 2) != 0)
                          M         bcf     STATUS, RP1
                          M     endif
  00000000                M PREV_BANK = 0
                          M 
                          M     if ((LCDOUT) < 1)
                          M       if (CODE_SIZE >= 4)
                          M         if (((LCDOUT) & 800h) == 0)
                          M         bcf     PCLATH, 3
                          M         else
                          M         bsf     PCLATH, 3
                          M         endif
                          M       endif
                          M       if (CODE_SIZE == 8)
                          M         if (((LCDOUT) & 1000h) == 0)
                          M         bcf     PCLATH, 4
                          M         else
                          M         bsf     PCLATH, 4
                          M         endif
                          M       endif
                          M     else
                          M       if ((LCDOUT) > $)
                          M         if (CODE_SIZE >= 4)
                          M           if (((LCDOUT) & 800h) == 0)
                          M         bcf     PCLATH, 3
                          M           else
                          M         bsf     PCLATH, 3
                          M           endif
MPASM  5.49                      SDCCON~1.ASM   7-1-2005  0:07:41         PAGE 152


LOC  OBJECT CODE     LINE SOURCE TEXT
  VALUE

                          M         endif
                          M         if (CODE_SIZE == 8)
                          M           if (((LCDOUT) & 1000h) == 0)
                          M         bcf     PCLATH, 4
                          M           else
                          M         bsf     PCLATH, 4
                          M           endif
                          M         endif
                          M       else
                          M         if (CODE_SIZE >= 4)
                          M           if (((LCDOUT) & 1800h) == 0)
0203   018A               M         clrf    PCLATH
                          M           else
                          M             if (((LCDOUT) & 800h) == 0)
                          M         bcf     PCLATH, 3
                          M             else
                          M         bsf     PCLATH, 3
                          M             endif
                          M             if (CODE_SIZE == 8)
                          M               if (((LCDOUT) & 1000h) == 0)
                          M         bcf     PCLATH, 4
                          M               else
                          M         bsf     PCLATH, 4
                          M               endif
                          M             endif
                          M           endif
                          M         endif
                          M       endif
                          M     endif
                          M 
0204   2003               M         call    LCDOUT
                      00166         LCDOUT?C        052h
0205   3052               M         movlw   052h
                          M         L?CALL  LCDOUT
                          M         RST?RP
                          M     if ((PREV_BANK & 1) != 0)
                          M         bcf     STATUS, RP0
                          M     endif
                          M     if ((PREV_BANK & 2) != 0)
                          M         bcf     STATUS, RP1
                          M     endif
  00000000                M PREV_BANK = 0
                          M 
                          M     if ((LCDOUT) < 1)
                          M       if (CODE_SIZE >= 4)
                          M         if (((LCDOUT) & 800h) == 0)
                          M         bcf     PCLATH, 3
                          M         else
                          M         bsf     PCLATH, 3
                          M         endif
                          M       endif
                          M       if (CODE_SIZE == 8)
                          M         if (((LCDOUT) & 1000h) == 0)
MPASM  5.49                      SDCCON~1.ASM   7-1-2005  0:07:41         PAGE 153


LOC  OBJECT CODE     LINE SOURCE TEXT
  VALUE

                          M         bcf     PCLATH, 4
                          M         else
                          M         bsf     PCLATH, 4
                          M         endif
                          M       endif
                          M     else
                          M       if ((LCDOUT) > $)
                          M         if (CODE_SIZE >= 4)
                          M           if (((LCDOUT) & 800h) == 0)
                          M         bcf     PCLATH, 3
                          M           else
                          M         bsf     PCLATH, 3
                          M           endif
                          M         endif
                          M         if (CODE_SIZE == 8)
                          M           if (((LCDOUT) & 1000h) == 0)
                          M         bcf     PCLATH, 4
                          M           else
                          M         bsf     PCLATH, 4
                          M           endif
                          M         endif
                          M       else
                          M         if (CODE_SIZE >= 4)
                          M           if (((LCDOUT) & 1800h) == 0)
0206   018A               M         clrf    PCLATH
                          M           else
                          M             if (((LCDOUT) & 800h) == 0)
                          M         bcf     PCLATH, 3
                          M             else
                          M         bsf     PCLATH, 3
                          M             endif
                          M             if (CODE_SIZE == 8)
                          M               if (((LCDOUT) & 1000h) == 0)
                          M         bcf     PCLATH, 4
                          M               else
                          M         bsf     PCLATH, 4
                          M               endif
                          M             endif
                          M           endif
                          M         endif
                          M       endif
                          M     endif
                          M 
0207   2003               M         call    LCDOUT
                      00167         LCDOUT?C        04Fh
0208   304F               M         movlw   04Fh
                          M         L?CALL  LCDOUT
                          M         RST?RP
                          M     if ((PREV_BANK & 1) != 0)
                          M         bcf     STATUS, RP0
                          M     endif
                          M     if ((PREV_BANK & 2) != 0)
                          M         bcf     STATUS, RP1
MPASM  5.49                      SDCCON~1.ASM   7-1-2005  0:07:41         PAGE 154


LOC  OBJECT CODE     LINE SOURCE TEXT
  VALUE

                          M     endif
  00000000                M PREV_BANK = 0
                          M 
                          M     if ((LCDOUT) < 1)
                          M       if (CODE_SIZE >= 4)
                          M         if (((LCDOUT) & 800h) == 0)
                          M         bcf     PCLATH, 3
                          M         else
                          M         bsf     PCLATH, 3
                          M         endif
                          M       endif
                          M       if (CODE_SIZE == 8)
                          M         if (((LCDOUT) & 1000h) == 0)
                          M         bcf     PCLATH, 4
                          M         else
                          M         bsf     PCLATH, 4
                          M         endif
                          M       endif
                          M     else
                          M       if ((LCDOUT) > $)
                          M         if (CODE_SIZE >= 4)
                          M           if (((LCDOUT) & 800h) == 0)
                          M         bcf     PCLATH, 3
                          M           else
                          M         bsf     PCLATH, 3
                          M           endif
                          M         endif
                          M         if (CODE_SIZE == 8)
                          M           if (((LCDOUT) & 1000h) == 0)
                          M         bcf     PCLATH, 4
                          M           else
                          M         bsf     PCLATH, 4
                          M           endif
                          M         endif
                          M       else
                          M         if (CODE_SIZE >= 4)
                          M           if (((LCDOUT) & 1800h) == 0)
0209   018A               M         clrf    PCLATH
                          M           else
                          M             if (((LCDOUT) & 800h) == 0)
                          M         bcf     PCLATH, 3
                          M             else
                          M         bsf     PCLATH, 3
                          M             endif
                          M             if (CODE_SIZE == 8)
                          M               if (((LCDOUT) & 1000h) == 0)
                          M         bcf     PCLATH, 4
                          M               else
                          M         bsf     PCLATH, 4
                          M               endif
                          M             endif
                          M           endif
                          M         endif
MPASM  5.49                      SDCCON~1.ASM   7-1-2005  0:07:41         PAGE 155


LOC  OBJECT CODE     LINE SOURCE TEXT
  VALUE

                          M       endif
                          M     endif
                          M 
020A   2003               M         call    LCDOUT
                      00168         LCDOUT?C        047h
020B   3047               M         movlw   047h
                          M         L?CALL  LCDOUT
                          M         RST?RP
                          M     if ((PREV_BANK & 1) != 0)
                          M         bcf     STATUS, RP0
                          M     endif
                          M     if ((PREV_BANK & 2) != 0)
                          M         bcf     STATUS, RP1
                          M     endif
  00000000                M PREV_BANK = 0
                          M 
                          M     if ((LCDOUT) < 1)
                          M       if (CODE_SIZE >= 4)
                          M         if (((LCDOUT) & 800h) == 0)
                          M         bcf     PCLATH, 3
                          M         else
                          M         bsf     PCLATH, 3
                          M         endif
                          M       endif
                          M       if (CODE_SIZE == 8)
                          M         if (((LCDOUT) & 1000h) == 0)
                          M         bcf     PCLATH, 4
                          M         else
                          M         bsf     PCLATH, 4
                          M         endif
                          M       endif
                          M     else
                          M       if ((LCDOUT) > $)
                          M         if (CODE_SIZE >= 4)
                          M           if (((LCDOUT) & 800h) == 0)
                          M         bcf     PCLATH, 3
                          M           else
                          M         bsf     PCLATH, 3
                          M           endif
                          M         endif
                          M         if (CODE_SIZE == 8)
                          M           if (((LCDOUT) & 1000h) == 0)
                          M         bcf     PCLATH, 4
                          M           else
                          M         bsf     PCLATH, 4
                          M           endif
                          M         endif
                          M       else
                          M         if (CODE_SIZE >= 4)
                          M           if (((LCDOUT) & 1800h) == 0)
020C   018A               M         clrf    PCLATH
                          M           else
                          M             if (((LCDOUT) & 800h) == 0)
MPASM  5.49                      SDCCON~1.ASM   7-1-2005  0:07:41         PAGE 156


LOC  OBJECT CODE     LINE SOURCE TEXT
  VALUE

                          M         bcf     PCLATH, 3
                          M             else
                          M         bsf     PCLATH, 3
                          M             endif
                          M             if (CODE_SIZE == 8)
                          M               if (((LCDOUT) & 1000h) == 0)
                          M         bcf     PCLATH, 4
                          M               else
                          M         bsf     PCLATH, 4
                          M               endif
                          M             endif
                          M           endif
                          M         endif
                          M       endif
                          M     endif
                          M 
020D   2003               M         call    LCDOUT
                      00169         LCDOUT?C        052h
020E   3052               M         movlw   052h
                          M         L?CALL  LCDOUT
                          M         RST?RP
                          M     if ((PREV_BANK & 1) != 0)
                          M         bcf     STATUS, RP0
                          M     endif
                          M     if ((PREV_BANK & 2) != 0)
                          M         bcf     STATUS, RP1
                          M     endif
  00000000                M PREV_BANK = 0
                          M 
                          M     if ((LCDOUT) < 1)
                          M       if (CODE_SIZE >= 4)
                          M         if (((LCDOUT) & 800h) == 0)
                          M         bcf     PCLATH, 3
                          M         else
                          M         bsf     PCLATH, 3
                          M         endif
                          M       endif
                          M       if (CODE_SIZE == 8)
                          M         if (((LCDOUT) & 1000h) == 0)
                          M         bcf     PCLATH, 4
                          M         else
                          M         bsf     PCLATH, 4
                          M         endif
                          M       endif
                          M     else
                          M       if ((LCDOUT) > $)
                          M         if (CODE_SIZE >= 4)
                          M           if (((LCDOUT) & 800h) == 0)
                          M         bcf     PCLATH, 3
                          M           else
                          M         bsf     PCLATH, 3
                          M           endif
                          M         endif
MPASM  5.49                      SDCCON~1.ASM   7-1-2005  0:07:41         PAGE 157


LOC  OBJECT CODE     LINE SOURCE TEXT
  VALUE

                          M         if (CODE_SIZE == 8)
                          M           if (((LCDOUT) & 1000h) == 0)
                          M         bcf     PCLATH, 4
                          M           else
                          M         bsf     PCLATH, 4
                          M           endif
                          M         endif
                          M       else
                          M         if (CODE_SIZE >= 4)
                          M           if (((LCDOUT) & 1800h) == 0)
020F   018A               M         clrf    PCLATH
                          M           else
                          M             if (((LCDOUT) & 800h) == 0)
                          M         bcf     PCLATH, 3
                          M             else
                          M         bsf     PCLATH, 3
                          M             endif
                          M             if (CODE_SIZE == 8)
                          M               if (((LCDOUT) & 1000h) == 0)
                          M         bcf     PCLATH, 4
                          M               else
                          M         bsf     PCLATH, 4
                          M               endif
                          M             endif
                          M           endif
                          M         endif
                          M       endif
                          M     endif
                          M 
0210   2003               M         call    LCDOUT
                      00170         LCDOUT?C        041h
0211   3041               M         movlw   041h
                          M         L?CALL  LCDOUT
                          M         RST?RP
                          M     if ((PREV_BANK & 1) != 0)
                          M         bcf     STATUS, RP0
                          M     endif
                          M     if ((PREV_BANK & 2) != 0)
                          M         bcf     STATUS, RP1
                          M     endif
  00000000                M PREV_BANK = 0
                          M 
                          M     if ((LCDOUT) < 1)
                          M       if (CODE_SIZE >= 4)
                          M         if (((LCDOUT) & 800h) == 0)
                          M         bcf     PCLATH, 3
                          M         else
                          M         bsf     PCLATH, 3
                          M         endif
                          M       endif
                          M       if (CODE_SIZE == 8)
                          M         if (((LCDOUT) & 1000h) == 0)
                          M         bcf     PCLATH, 4
MPASM  5.49                      SDCCON~1.ASM   7-1-2005  0:07:41         PAGE 158


LOC  OBJECT CODE     LINE SOURCE TEXT
  VALUE

                          M         else
                          M         bsf     PCLATH, 4
                          M         endif
                          M       endif
                          M     else
                          M       if ((LCDOUT) > $)
                          M         if (CODE_SIZE >= 4)
                          M           if (((LCDOUT) & 800h) == 0)
                          M         bcf     PCLATH, 3
                          M           else
                          M         bsf     PCLATH, 3
                          M           endif
                          M         endif
                          M         if (CODE_SIZE == 8)
                          M           if (((LCDOUT) & 1000h) == 0)
                          M         bcf     PCLATH, 4
                          M           else
                          M         bsf     PCLATH, 4
                          M           endif
                          M         endif
                          M       else
                          M         if (CODE_SIZE >= 4)
                          M           if (((LCDOUT) & 1800h) == 0)
0212   018A               M         clrf    PCLATH
                          M           else
                          M             if (((LCDOUT) & 800h) == 0)
                          M         bcf     PCLATH, 3
                          M             else
                          M         bsf     PCLATH, 3
                          M             endif
                          M             if (CODE_SIZE == 8)
                          M               if (((LCDOUT) & 1000h) == 0)
                          M         bcf     PCLATH, 4
                          M               else
                          M         bsf     PCLATH, 4
                          M               endif
                          M             endif
                          M           endif
                          M         endif
                          M       endif
                          M     endif
                          M 
0213   2003               M         call    LCDOUT
                      00171         LCDOUT?C        04Dh
0214   304D               M         movlw   04Dh
                          M         L?CALL  LCDOUT
                          M         RST?RP
                          M     if ((PREV_BANK & 1) != 0)
                          M         bcf     STATUS, RP0
                          M     endif
                          M     if ((PREV_BANK & 2) != 0)
                          M         bcf     STATUS, RP1
                          M     endif
MPASM  5.49                      SDCCON~1.ASM   7-1-2005  0:07:41         PAGE 159


LOC  OBJECT CODE     LINE SOURCE TEXT
  VALUE

  00000000                M PREV_BANK = 0
                          M 
                          M     if ((LCDOUT) < 1)
                          M       if (CODE_SIZE >= 4)
                          M         if (((LCDOUT) & 800h) == 0)
                          M         bcf     PCLATH, 3
                          M         else
                          M         bsf     PCLATH, 3
                          M         endif
                          M       endif
                          M       if (CODE_SIZE == 8)
                          M         if (((LCDOUT) & 1000h) == 0)
                          M         bcf     PCLATH, 4
                          M         else
                          M         bsf     PCLATH, 4
                          M         endif
                          M       endif
                          M     else
                          M       if ((LCDOUT) > $)
                          M         if (CODE_SIZE >= 4)
                          M           if (((LCDOUT) & 800h) == 0)
                          M         bcf     PCLATH, 3
                          M           else
                          M         bsf     PCLATH, 3
                          M           endif
                          M         endif
                          M         if (CODE_SIZE == 8)
                          M           if (((LCDOUT) & 1000h) == 0)
                          M         bcf     PCLATH, 4
                          M           else
                          M         bsf     PCLATH, 4
                          M           endif
                          M         endif
                          M       else
                          M         if (CODE_SIZE >= 4)
                          M           if (((LCDOUT) & 1800h) == 0)
0215   018A               M         clrf    PCLATH
                          M           else
                          M             if (((LCDOUT) & 800h) == 0)
                          M         bcf     PCLATH, 3
                          M             else
                          M         bsf     PCLATH, 3
                          M             endif
                          M             if (CODE_SIZE == 8)
                          M               if (((LCDOUT) & 1000h) == 0)
                          M         bcf     PCLATH, 4
                          M               else
                          M         bsf     PCLATH, 4
                          M               endif
                          M             endif
                          M           endif
                          M         endif
                          M       endif
MPASM  5.49                      SDCCON~1.ASM   7-1-2005  0:07:41         PAGE 160


LOC  OBJECT CODE     LINE SOURCE TEXT
  VALUE

                          M     endif
                          M 
0216   2003               M         call    LCDOUT
                      00172         LCDOUT?C        041h
0217   3041               M         movlw   041h
                          M         L?CALL  LCDOUT
                          M         RST?RP
                          M     if ((PREV_BANK & 1) != 0)
                          M         bcf     STATUS, RP0
                          M     endif
                          M     if ((PREV_BANK & 2) != 0)
                          M         bcf     STATUS, RP1
                          M     endif
  00000000                M PREV_BANK = 0
                          M 
                          M     if ((LCDOUT) < 1)
                          M       if (CODE_SIZE >= 4)
                          M         if (((LCDOUT) & 800h) == 0)
                          M         bcf     PCLATH, 3
                          M         else
                          M         bsf     PCLATH, 3
                          M         endif
                          M       endif
                          M       if (CODE_SIZE == 8)
                          M         if (((LCDOUT) & 1000h) == 0)
                          M         bcf     PCLATH, 4
                          M         else
                          M         bsf     PCLATH, 4
                          M         endif
                          M       endif
                          M     else
                          M       if ((LCDOUT) > $)
                          M         if (CODE_SIZE >= 4)
                          M           if (((LCDOUT) & 800h) == 0)
                          M         bcf     PCLATH, 3
                          M           else
                          M         bsf     PCLATH, 3
                          M           endif
                          M         endif
                          M         if (CODE_SIZE == 8)
                          M           if (((LCDOUT) & 1000h) == 0)
                          M         bcf     PCLATH, 4
                          M           else
                          M         bsf     PCLATH, 4
                          M           endif
                          M         endif
                          M       else
                          M         if (CODE_SIZE >= 4)
                          M           if (((LCDOUT) & 1800h) == 0)
0218   018A               M         clrf    PCLATH
                          M           else
                          M             if (((LCDOUT) & 800h) == 0)
                          M         bcf     PCLATH, 3
MPASM  5.49                      SDCCON~1.ASM   7-1-2005  0:07:41         PAGE 161


LOC  OBJECT CODE     LINE SOURCE TEXT
  VALUE

                          M             else
                          M         bsf     PCLATH, 3
                          M             endif
                          M             if (CODE_SIZE == 8)
                          M               if (((LCDOUT) & 1000h) == 0)
                          M         bcf     PCLATH, 4
                          M               else
                          M         bsf     PCLATH, 4
                          M               endif
                          M             endif
                          M           endif
                          M         endif
                          M       endif
                          M     endif
                          M 
0219   2003               M         call    LCDOUT
                      00173         LCDOUT?C        052h
021A   3052               M         movlw   052h
                          M         L?CALL  LCDOUT
                          M         RST?RP
                          M     if ((PREV_BANK & 1) != 0)
                          M         bcf     STATUS, RP0
                          M     endif
                          M     if ((PREV_BANK & 2) != 0)
                          M         bcf     STATUS, RP1
                          M     endif
  00000000                M PREV_BANK = 0
                          M 
                          M     if ((LCDOUT) < 1)
                          M       if (CODE_SIZE >= 4)
                          M         if (((LCDOUT) & 800h) == 0)
                          M         bcf     PCLATH, 3
                          M         else
                          M         bsf     PCLATH, 3
                          M         endif
                          M       endif
                          M       if (CODE_SIZE == 8)
                          M         if (((LCDOUT) & 1000h) == 0)
                          M         bcf     PCLATH, 4
                          M         else
                          M         bsf     PCLATH, 4
                          M         endif
                          M       endif
                          M     else
                          M       if ((LCDOUT) > $)
                          M         if (CODE_SIZE >= 4)
                          M           if (((LCDOUT) & 800h) == 0)
                          M         bcf     PCLATH, 3
                          M           else
                          M         bsf     PCLATH, 3
                          M           endif
                          M         endif
                          M         if (CODE_SIZE == 8)
MPASM  5.49                      SDCCON~1.ASM   7-1-2005  0:07:41         PAGE 162


LOC  OBJECT CODE     LINE SOURCE TEXT
  VALUE

                          M           if (((LCDOUT) & 1000h) == 0)
                          M         bcf     PCLATH, 4
                          M           else
                          M         bsf     PCLATH, 4
                          M           endif
                          M         endif
                          M       else
                          M         if (CODE_SIZE >= 4)
                          M           if (((LCDOUT) & 1800h) == 0)
021B   018A               M         clrf    PCLATH
                          M           else
                          M             if (((LCDOUT) & 800h) == 0)
                          M         bcf     PCLATH, 3
                          M             else
                          M         bsf     PCLATH, 3
                          M             endif
                          M             if (CODE_SIZE == 8)
                          M               if (((LCDOUT) & 1000h) == 0)
                          M         bcf     PCLATH, 4
                          M               else
                          M         bsf     PCLATH, 4
                          M               endif
                          M             endif
                          M           endif
                          M         endif
                          M       endif
                          M     endif
                          M 
021C   2003               M         call    LCDOUT
                      00174         LCDOUT?C        020h
021D   3020               M         movlw   020h
                          M         L?CALL  LCDOUT
                          M         RST?RP
                          M     if ((PREV_BANK & 1) != 0)
                          M         bcf     STATUS, RP0
                          M     endif
                          M     if ((PREV_BANK & 2) != 0)
                          M         bcf     STATUS, RP1
                          M     endif
  00000000                M PREV_BANK = 0
                          M 
                          M     if ((LCDOUT) < 1)
                          M       if (CODE_SIZE >= 4)
                          M         if (((LCDOUT) & 800h) == 0)
                          M         bcf     PCLATH, 3
                          M         else
                          M         bsf     PCLATH, 3
                          M         endif
                          M       endif
                          M       if (CODE_SIZE == 8)
                          M         if (((LCDOUT) & 1000h) == 0)
                          M         bcf     PCLATH, 4
                          M         else
MPASM  5.49                      SDCCON~1.ASM   7-1-2005  0:07:41         PAGE 163


LOC  OBJECT CODE     LINE SOURCE TEXT
  VALUE

                          M         bsf     PCLATH, 4
                          M         endif
                          M       endif
                          M     else
                          M       if ((LCDOUT) > $)
                          M         if (CODE_SIZE >= 4)
                          M           if (((LCDOUT) & 800h) == 0)
                          M         bcf     PCLATH, 3
                          M           else
                          M         bsf     PCLATH, 3
                          M           endif
                          M         endif
                          M         if (CODE_SIZE == 8)
                          M           if (((LCDOUT) & 1000h) == 0)
                          M         bcf     PCLATH, 4
                          M           else
                          M         bsf     PCLATH, 4
                          M           endif
                          M         endif
                          M       else
                          M         if (CODE_SIZE >= 4)
                          M           if (((LCDOUT) & 1800h) == 0)
021E   018A               M         clrf    PCLATH
                          M           else
                          M             if (((LCDOUT) & 800h) == 0)
                          M         bcf     PCLATH, 3
                          M             else
                          M         bsf     PCLATH, 3
                          M             endif
                          M             if (CODE_SIZE == 8)
                          M               if (((LCDOUT) & 1000h) == 0)
                          M         bcf     PCLATH, 4
                          M               else
                          M         bsf     PCLATH, 4
                          M               endif
                          M             endif
                          M           endif
                          M         endif
                          M       endif
                          M     endif
                          M 
021F   2003               M         call    LCDOUT
                      00175         LCDOUT?C        054h
0220   3054               M         movlw   054h
                          M         L?CALL  LCDOUT
                          M         RST?RP
                          M     if ((PREV_BANK & 1) != 0)
                          M         bcf     STATUS, RP0
                          M     endif
                          M     if ((PREV_BANK & 2) != 0)
                          M         bcf     STATUS, RP1
                          M     endif
  00000000                M PREV_BANK = 0
MPASM  5.49                      SDCCON~1.ASM   7-1-2005  0:07:41         PAGE 164


LOC  OBJECT CODE     LINE SOURCE TEXT
  VALUE

                          M 
                          M     if ((LCDOUT) < 1)
                          M       if (CODE_SIZE >= 4)
                          M         if (((LCDOUT) & 800h) == 0)
                          M         bcf     PCLATH, 3
                          M         else
                          M         bsf     PCLATH, 3
                          M         endif
                          M       endif
                          M       if (CODE_SIZE == 8)
                          M         if (((LCDOUT) & 1000h) == 0)
                          M         bcf     PCLATH, 4
                          M         else
                          M         bsf     PCLATH, 4
                          M         endif
                          M       endif
                          M     else
                          M       if ((LCDOUT) > $)
                          M         if (CODE_SIZE >= 4)
                          M           if (((LCDOUT) & 800h) == 0)
                          M         bcf     PCLATH, 3
                          M           else
                          M         bsf     PCLATH, 3
                          M           endif
                          M         endif
                          M         if (CODE_SIZE == 8)
                          M           if (((LCDOUT) & 1000h) == 0)
                          M         bcf     PCLATH, 4
                          M           else
                          M         bsf     PCLATH, 4
                          M           endif
                          M         endif
                          M       else
                          M         if (CODE_SIZE >= 4)
                          M           if (((LCDOUT) & 1800h) == 0)
0221   018A               M         clrf    PCLATH
                          M           else
                          M             if (((LCDOUT) & 800h) == 0)
                          M         bcf     PCLATH, 3
                          M             else
                          M         bsf     PCLATH, 3
                          M             endif
                          M             if (CODE_SIZE == 8)
                          M               if (((LCDOUT) & 1000h) == 0)
                          M         bcf     PCLATH, 4
                          M               else
                          M         bsf     PCLATH, 4
                          M               endif
                          M             endif
                          M           endif
                          M         endif
                          M       endif
                          M     endif
MPASM  5.49                      SDCCON~1.ASM   7-1-2005  0:07:41         PAGE 165


LOC  OBJECT CODE     LINE SOURCE TEXT
  VALUE

                          M 
0222   2003               M         call    LCDOUT
                      00176         LCDOUT?C        045h
0223   3045               M         movlw   045h
                          M         L?CALL  LCDOUT
                          M         RST?RP
                          M     if ((PREV_BANK & 1) != 0)
                          M         bcf     STATUS, RP0
                          M     endif
                          M     if ((PREV_BANK & 2) != 0)
                          M         bcf     STATUS, RP1
                          M     endif
  00000000                M PREV_BANK = 0
                          M 
                          M     if ((LCDOUT) < 1)
                          M       if (CODE_SIZE >= 4)
                          M         if (((LCDOUT) & 800h) == 0)
                          M         bcf     PCLATH, 3
                          M         else
                          M         bsf     PCLATH, 3
                          M         endif
                          M       endif
                          M       if (CODE_SIZE == 8)
                          M         if (((LCDOUT) & 1000h) == 0)
                          M         bcf     PCLATH, 4
                          M         else
                          M         bsf     PCLATH, 4
                          M         endif
                          M       endif
                          M     else
                          M       if ((LCDOUT) > $)
                          M         if (CODE_SIZE >= 4)
                          M           if (((LCDOUT) & 800h) == 0)
                          M         bcf     PCLATH, 3
                          M           else
                          M         bsf     PCLATH, 3
                          M           endif
                          M         endif
                          M         if (CODE_SIZE == 8)
                          M           if (((LCDOUT) & 1000h) == 0)
                          M         bcf     PCLATH, 4
                          M           else
                          M         bsf     PCLATH, 4
                          M           endif
                          M         endif
                          M       else
                          M         if (CODE_SIZE >= 4)
                          M           if (((LCDOUT) & 1800h) == 0)
0224   018A               M         clrf    PCLATH
                          M           else
                          M             if (((LCDOUT) & 800h) == 0)
                          M         bcf     PCLATH, 3
                          M             else
MPASM  5.49                      SDCCON~1.ASM   7-1-2005  0:07:41         PAGE 166


LOC  OBJECT CODE     LINE SOURCE TEXT
  VALUE

                          M         bsf     PCLATH, 3
                          M             endif
                          M             if (CODE_SIZE == 8)
                          M               if (((LCDOUT) & 1000h) == 0)
                          M         bcf     PCLATH, 4
                          M               else
                          M         bsf     PCLATH, 4
                          M               endif
                          M             endif
                          M           endif
                          M         endif
                          M       endif
                          M     endif
                          M 
0225   2003               M         call    LCDOUT
                      00177         LCDOUT?C        04Dh
0226   304D               M         movlw   04Dh
                          M         L?CALL  LCDOUT
                          M         RST?RP
                          M     if ((PREV_BANK & 1) != 0)
                          M         bcf     STATUS, RP0
                          M     endif
                          M     if ((PREV_BANK & 2) != 0)
                          M         bcf     STATUS, RP1
                          M     endif
  00000000                M PREV_BANK = 0
                          M 
                          M     if ((LCDOUT) < 1)
                          M       if (CODE_SIZE >= 4)
                          M         if (((LCDOUT) & 800h) == 0)
                          M         bcf     PCLATH, 3
                          M         else
                          M         bsf     PCLATH, 3
                          M         endif
                          M       endif
                          M       if (CODE_SIZE == 8)
                          M         if (((LCDOUT) & 1000h) == 0)
                          M         bcf     PCLATH, 4
                          M         else
                          M         bsf     PCLATH, 4
                          M         endif
                          M       endif
                          M     else
                          M       if ((LCDOUT) > $)
                          M         if (CODE_SIZE >= 4)
                          M           if (((LCDOUT) & 800h) == 0)
                          M         bcf     PCLATH, 3
                          M           else
                          M         bsf     PCLATH, 3
                          M           endif
                          M         endif
                          M         if (CODE_SIZE == 8)
                          M           if (((LCDOUT) & 1000h) == 0)
MPASM  5.49                      SDCCON~1.ASM   7-1-2005  0:07:41         PAGE 167


LOC  OBJECT CODE     LINE SOURCE TEXT
  VALUE

                          M         bcf     PCLATH, 4
                          M           else
                          M         bsf     PCLATH, 4
                          M           endif
                          M         endif
                          M       else
                          M         if (CODE_SIZE >= 4)
                          M           if (((LCDOUT) & 1800h) == 0)
0227   018A               M         clrf    PCLATH
                          M           else
                          M             if (((LCDOUT) & 800h) == 0)
                          M         bcf     PCLATH, 3
                          M             else
                          M         bsf     PCLATH, 3
                          M             endif
                          M             if (CODE_SIZE == 8)
                          M               if (((LCDOUT) & 1000h) == 0)
                          M         bcf     PCLATH, 4
                          M               else
                          M         bsf     PCLATH, 4
                          M               endif
                          M             endif
                          M           endif
                          M         endif
                          M       endif
                          M     endif
                          M 
0228   2003               M         call    LCDOUT
                      00178         LCDOUT?C        050h
0229   3050               M         movlw   050h
                          M         L?CALL  LCDOUT
                          M         RST?RP
                          M     if ((PREV_BANK & 1) != 0)
                          M         bcf     STATUS, RP0
                          M     endif
                          M     if ((PREV_BANK & 2) != 0)
                          M         bcf     STATUS, RP1
                          M     endif
  00000000                M PREV_BANK = 0
                          M 
                          M     if ((LCDOUT) < 1)
                          M       if (CODE_SIZE >= 4)
                          M         if (((LCDOUT) & 800h) == 0)
                          M         bcf     PCLATH, 3
                          M         else
                          M         bsf     PCLATH, 3
                          M         endif
                          M       endif
                          M       if (CODE_SIZE == 8)
                          M         if (((LCDOUT) & 1000h) == 0)
                          M         bcf     PCLATH, 4
                          M         else
                          M         bsf     PCLATH, 4
MPASM  5.49                      SDCCON~1.ASM   7-1-2005  0:07:41         PAGE 168


LOC  OBJECT CODE     LINE SOURCE TEXT
  VALUE

                          M         endif
                          M       endif
                          M     else
                          M       if ((LCDOUT) > $)
                          M         if (CODE_SIZE >= 4)
                          M           if (((LCDOUT) & 800h) == 0)
                          M         bcf     PCLATH, 3
                          M           else
                          M         bsf     PCLATH, 3
                          M           endif
                          M         endif
                          M         if (CODE_SIZE == 8)
                          M           if (((LCDOUT) & 1000h) == 0)
                          M         bcf     PCLATH, 4
                          M           else
                          M         bsf     PCLATH, 4
                          M           endif
                          M         endif
                          M       else
                          M         if (CODE_SIZE >= 4)
                          M           if (((LCDOUT) & 1800h) == 0)
022A   018A               M         clrf    PCLATH
                          M           else
                          M             if (((LCDOUT) & 800h) == 0)
                          M         bcf     PCLATH, 3
                          M             else
                          M         bsf     PCLATH, 3
                          M             endif
                          M             if (CODE_SIZE == 8)
                          M               if (((LCDOUT) & 1000h) == 0)
                          M         bcf     PCLATH, 4
                          M               else
                          M         bsf     PCLATH, 4
                          M               endif
                          M             endif
                          M           endif
                          M         endif
                          M       endif
                          M     endif
                          M 
022B   2003               M         call    LCDOUT
                      00179         LCDOUT?C        03Ah
022C   303A               M         movlw   03Ah
                          M         L?CALL  LCDOUT
                          M         RST?RP
                          M     if ((PREV_BANK & 1) != 0)
                          M         bcf     STATUS, RP0
                          M     endif
                          M     if ((PREV_BANK & 2) != 0)
                          M         bcf     STATUS, RP1
                          M     endif
  00000000                M PREV_BANK = 0
                          M 
MPASM  5.49                      SDCCON~1.ASM   7-1-2005  0:07:41         PAGE 169


LOC  OBJECT CODE     LINE SOURCE TEXT
  VALUE

                          M     if ((LCDOUT) < 1)
                          M       if (CODE_SIZE >= 4)
                          M         if (((LCDOUT) & 800h) == 0)
                          M         bcf     PCLATH, 3
                          M         else
                          M         bsf     PCLATH, 3
                          M         endif
                          M       endif
                          M       if (CODE_SIZE == 8)
                          M         if (((LCDOUT) & 1000h) == 0)
                          M         bcf     PCLATH, 4
                          M         else
                          M         bsf     PCLATH, 4
                          M         endif
                          M       endif
                          M     else
                          M       if ((LCDOUT) > $)
                          M         if (CODE_SIZE >= 4)
                          M           if (((LCDOUT) & 800h) == 0)
                          M         bcf     PCLATH, 3
                          M           else
                          M         bsf     PCLATH, 3
                          M           endif
                          M         endif
                          M         if (CODE_SIZE == 8)
                          M           if (((LCDOUT) & 1000h) == 0)
                          M         bcf     PCLATH, 4
                          M           else
                          M         bsf     PCLATH, 4
                          M           endif
                          M         endif
                          M       else
                          M         if (CODE_SIZE >= 4)
                          M           if (((LCDOUT) & 1800h) == 0)
022D   018A               M         clrf    PCLATH
                          M           else
                          M             if (((LCDOUT) & 800h) == 0)
                          M         bcf     PCLATH, 3
                          M             else
                          M         bsf     PCLATH, 3
                          M             endif
                          M             if (CODE_SIZE == 8)
                          M               if (((LCDOUT) & 1000h) == 0)
                          M         bcf     PCLATH, 4
                          M               else
                          M         bsf     PCLATH, 4
                          M               endif
                          M             endif
                          M           endif
                          M         endif
                          M       endif
                          M     endif
                          M 
MPASM  5.49                      SDCCON~1.ASM   7-1-2005  0:07:41         PAGE 170


LOC  OBJECT CODE     LINE SOURCE TEXT
  VALUE

022E   2003               M         call    LCDOUT
                      00180         LCDOUT?C        0FEh
022F   30FE               M         movlw   0FEh
                          M         L?CALL  LCDOUT
                          M         RST?RP
                          M     if ((PREV_BANK & 1) != 0)
                          M         bcf     STATUS, RP0
                          M     endif
                          M     if ((PREV_BANK & 2) != 0)
                          M         bcf     STATUS, RP1
                          M     endif
  00000000                M PREV_BANK = 0
                          M 
                          M     if ((LCDOUT) < 1)
                          M       if (CODE_SIZE >= 4)
                          M         if (((LCDOUT) & 800h) == 0)
                          M         bcf     PCLATH, 3
                          M         else
                          M         bsf     PCLATH, 3
                          M         endif
                          M       endif
                          M       if (CODE_SIZE == 8)
                          M         if (((LCDOUT) & 1000h) == 0)
                          M         bcf     PCLATH, 4
                          M         else
                          M         bsf     PCLATH, 4
                          M         endif
                          M       endif
                          M     else
                          M       if ((LCDOUT) > $)
                          M         if (CODE_SIZE >= 4)
                          M           if (((LCDOUT) & 800h) == 0)
                          M         bcf     PCLATH, 3
                          M           else
                          M         bsf     PCLATH, 3
                          M           endif
                          M         endif
                          M         if (CODE_SIZE == 8)
                          M           if (((LCDOUT) & 1000h) == 0)
                          M         bcf     PCLATH, 4
                          M           else
                          M         bsf     PCLATH, 4
                          M           endif
                          M         endif
                          M       else
                          M         if (CODE_SIZE >= 4)
                          M           if (((LCDOUT) & 1800h) == 0)
0230   018A               M         clrf    PCLATH
                          M           else
                          M             if (((LCDOUT) & 800h) == 0)
                          M         bcf     PCLATH, 3
                          M             else
                          M         bsf     PCLATH, 3
MPASM  5.49                      SDCCON~1.ASM   7-1-2005  0:07:41         PAGE 171


LOC  OBJECT CODE     LINE SOURCE TEXT
  VALUE

                          M             endif
                          M             if (CODE_SIZE == 8)
                          M               if (((LCDOUT) & 1000h) == 0)
                          M         bcf     PCLATH, 4
                          M               else
                          M         bsf     PCLATH, 4
                          M               endif
                          M             endif
                          M           endif
                          M         endif
                          M       endif
                          M     endif
                          M 
0231   2003               M         call    LCDOUT
                      00181         LCDOUT?C        0C0h
0232   30C0               M         movlw   0C0h
                          M         L?CALL  LCDOUT
                          M         RST?RP
                          M     if ((PREV_BANK & 1) != 0)
                          M         bcf     STATUS, RP0
                          M     endif
                          M     if ((PREV_BANK & 2) != 0)
                          M         bcf     STATUS, RP1
                          M     endif
  00000000                M PREV_BANK = 0
                          M 
                          M     if ((LCDOUT) < 1)
                          M       if (CODE_SIZE >= 4)
                          M         if (((LCDOUT) & 800h) == 0)
                          M         bcf     PCLATH, 3
                          M         else
                          M         bsf     PCLATH, 3
                          M         endif
                          M       endif
                          M       if (CODE_SIZE == 8)
                          M         if (((LCDOUT) & 1000h) == 0)
                          M         bcf     PCLATH, 4
                          M         else
                          M         bsf     PCLATH, 4
                          M         endif
                          M       endif
                          M     else
                          M       if ((LCDOUT) > $)
                          M         if (CODE_SIZE >= 4)
                          M           if (((LCDOUT) & 800h) == 0)
                          M         bcf     PCLATH, 3
                          M           else
                          M         bsf     PCLATH, 3
                          M           endif
                          M         endif
                          M         if (CODE_SIZE == 8)
                          M           if (((LCDOUT) & 1000h) == 0)
                          M         bcf     PCLATH, 4
MPASM  5.49                      SDCCON~1.ASM   7-1-2005  0:07:41         PAGE 172


LOC  OBJECT CODE     LINE SOURCE TEXT
  VALUE

                          M           else
                          M         bsf     PCLATH, 4
                          M           endif
                          M         endif
                          M       else
                          M         if (CODE_SIZE >= 4)
                          M           if (((LCDOUT) & 1800h) == 0)
0233   018A               M         clrf    PCLATH
                          M           else
                          M             if (((LCDOUT) & 800h) == 0)
                          M         bcf     PCLATH, 3
                          M             else
                          M         bsf     PCLATH, 3
                          M             endif
                          M             if (CODE_SIZE == 8)
                          M               if (((LCDOUT) & 1000h) == 0)
                          M         bcf     PCLATH, 4
                          M               else
                          M         bsf     PCLATH, 4
                          M               endif
                          M             endif
                          M           endif
                          M         endif
                          M       endif
                          M     endif
                          M 
0234   2003               M         call    LCDOUT
                      00182         LCDOUT?C        04Dh
0235   304D               M         movlw   04Dh
                          M         L?CALL  LCDOUT
                          M         RST?RP
                          M     if ((PREV_BANK & 1) != 0)
                          M         bcf     STATUS, RP0
                          M     endif
                          M     if ((PREV_BANK & 2) != 0)
                          M         bcf     STATUS, RP1
                          M     endif
  00000000                M PREV_BANK = 0
                          M 
                          M     if ((LCDOUT) < 1)
                          M       if (CODE_SIZE >= 4)
                          M         if (((LCDOUT) & 800h) == 0)
                          M         bcf     PCLATH, 3
                          M         else
                          M         bsf     PCLATH, 3
                          M         endif
                          M       endif
                          M       if (CODE_SIZE == 8)
                          M         if (((LCDOUT) & 1000h) == 0)
                          M         bcf     PCLATH, 4
                          M         else
                          M         bsf     PCLATH, 4
                          M         endif
MPASM  5.49                      SDCCON~1.ASM   7-1-2005  0:07:41         PAGE 173


LOC  OBJECT CODE     LINE SOURCE TEXT
  VALUE

                          M       endif
                          M     else
                          M       if ((LCDOUT) > $)
                          M         if (CODE_SIZE >= 4)
                          M           if (((LCDOUT) & 800h) == 0)
                          M         bcf     PCLATH, 3
                          M           else
                          M         bsf     PCLATH, 3
                          M           endif
                          M         endif
                          M         if (CODE_SIZE == 8)
                          M           if (((LCDOUT) & 1000h) == 0)
                          M         bcf     PCLATH, 4
                          M           else
                          M         bsf     PCLATH, 4
                          M           endif
                          M         endif
                          M       else
                          M         if (CODE_SIZE >= 4)
                          M           if (((LCDOUT) & 1800h) == 0)
0236   018A               M         clrf    PCLATH
                          M           else
                          M             if (((LCDOUT) & 800h) == 0)
                          M         bcf     PCLATH, 3
                          M             else
                          M         bsf     PCLATH, 3
                          M             endif
                          M             if (CODE_SIZE == 8)
                          M               if (((LCDOUT) & 1000h) == 0)
                          M         bcf     PCLATH, 4
                          M               else
                          M         bsf     PCLATH, 4
                          M               endif
                          M             endif
                          M           endif
                          M         endif
                          M       endif
                          M     endif
                          M 
0237   2003               M         call    LCDOUT
                      00183         LCDOUT?C        069h
0238   3069               M         movlw   069h
                          M         L?CALL  LCDOUT
                          M         RST?RP
                          M     if ((PREV_BANK & 1) != 0)
                          M         bcf     STATUS, RP0
                          M     endif
                          M     if ((PREV_BANK & 2) != 0)
                          M         bcf     STATUS, RP1
                          M     endif
  00000000                M PREV_BANK = 0
                          M 
                          M     if ((LCDOUT) < 1)
MPASM  5.49                      SDCCON~1.ASM   7-1-2005  0:07:41         PAGE 174


LOC  OBJECT CODE     LINE SOURCE TEXT
  VALUE

                          M       if (CODE_SIZE >= 4)
                          M         if (((LCDOUT) & 800h) == 0)
                          M         bcf     PCLATH, 3
                          M         else
                          M         bsf     PCLATH, 3
                          M         endif
                          M       endif
                          M       if (CODE_SIZE == 8)
                          M         if (((LCDOUT) & 1000h) == 0)
                          M         bcf     PCLATH, 4
                          M         else
                          M         bsf     PCLATH, 4
                          M         endif
                          M       endif
                          M     else
                          M       if ((LCDOUT) > $)
                          M         if (CODE_SIZE >= 4)
                          M           if (((LCDOUT) & 800h) == 0)
                          M         bcf     PCLATH, 3
                          M           else
                          M         bsf     PCLATH, 3
                          M           endif
                          M         endif
                          M         if (CODE_SIZE == 8)
                          M           if (((LCDOUT) & 1000h) == 0)
                          M         bcf     PCLATH, 4
                          M           else
                          M         bsf     PCLATH, 4
                          M           endif
                          M         endif
                          M       else
                          M         if (CODE_SIZE >= 4)
                          M           if (((LCDOUT) & 1800h) == 0)
0239   018A               M         clrf    PCLATH
                          M           else
                          M             if (((LCDOUT) & 800h) == 0)
                          M         bcf     PCLATH, 3
                          M             else
                          M         bsf     PCLATH, 3
                          M             endif
                          M             if (CODE_SIZE == 8)
                          M               if (((LCDOUT) & 1000h) == 0)
                          M         bcf     PCLATH, 4
                          M               else
                          M         bsf     PCLATH, 4
                          M               endif
                          M             endif
                          M           endif
                          M         endif
                          M       endif
                          M     endif
                          M 
023A   2003               M         call    LCDOUT
MPASM  5.49                      SDCCON~1.ASM   7-1-2005  0:07:41         PAGE 175


LOC  OBJECT CODE     LINE SOURCE TEXT
  VALUE

                      00184         LCDOUT?C        06Eh
023B   306E               M         movlw   06Eh
                          M         L?CALL  LCDOUT
                          M         RST?RP
                          M     if ((PREV_BANK & 1) != 0)
                          M         bcf     STATUS, RP0
                          M     endif
                          M     if ((PREV_BANK & 2) != 0)
                          M         bcf     STATUS, RP1
                          M     endif
  00000000                M PREV_BANK = 0
                          M 
                          M     if ((LCDOUT) < 1)
                          M       if (CODE_SIZE >= 4)
                          M         if (((LCDOUT) & 800h) == 0)
                          M         bcf     PCLATH, 3
                          M         else
                          M         bsf     PCLATH, 3
                          M         endif
                          M       endif
                          M       if (CODE_SIZE == 8)
                          M         if (((LCDOUT) & 1000h) == 0)
                          M         bcf     PCLATH, 4
                          M         else
                          M         bsf     PCLATH, 4
                          M         endif
                          M       endif
                          M     else
                          M       if ((LCDOUT) > $)
                          M         if (CODE_SIZE >= 4)
                          M           if (((LCDOUT) & 800h) == 0)
                          M         bcf     PCLATH, 3
                          M           else
                          M         bsf     PCLATH, 3
                          M           endif
                          M         endif
                          M         if (CODE_SIZE == 8)
                          M           if (((LCDOUT) & 1000h) == 0)
                          M         bcf     PCLATH, 4
                          M           else
                          M         bsf     PCLATH, 4
                          M           endif
                          M         endif
                          M       else
                          M         if (CODE_SIZE >= 4)
                          M           if (((LCDOUT) & 1800h) == 0)
023C   018A               M         clrf    PCLATH
                          M           else
                          M             if (((LCDOUT) & 800h) == 0)
                          M         bcf     PCLATH, 3
                          M             else
                          M         bsf     PCLATH, 3
                          M             endif
MPASM  5.49                      SDCCON~1.ASM   7-1-2005  0:07:41         PAGE 176


LOC  OBJECT CODE     LINE SOURCE TEXT
  VALUE

                          M             if (CODE_SIZE == 8)
                          M               if (((LCDOUT) & 1000h) == 0)
                          M         bcf     PCLATH, 4
                          M               else
                          M         bsf     PCLATH, 4
                          M               endif
                          M             endif
                          M           endif
                          M         endif
                          M       endif
                          M     endif
                          M 
023D   2003               M         call    LCDOUT
                      00185         LCDOUT?C        069h
023E   3069               M         movlw   069h
                          M         L?CALL  LCDOUT
                          M         RST?RP
                          M     if ((PREV_BANK & 1) != 0)
                          M         bcf     STATUS, RP0
                          M     endif
                          M     if ((PREV_BANK & 2) != 0)
                          M         bcf     STATUS, RP1
                          M     endif
  00000000                M PREV_BANK = 0
                          M 
                          M     if ((LCDOUT) < 1)
                          M       if (CODE_SIZE >= 4)
                          M         if (((LCDOUT) & 800h) == 0)
                          M         bcf     PCLATH, 3
                          M         else
                          M         bsf     PCLATH, 3
                          M         endif
                          M       endif
                          M       if (CODE_SIZE == 8)
                          M         if (((LCDOUT) & 1000h) == 0)
                          M         bcf     PCLATH, 4
                          M         else
                          M         bsf     PCLATH, 4
                          M         endif
                          M       endif
                          M     else
                          M       if ((LCDOUT) > $)
                          M         if (CODE_SIZE >= 4)
                          M           if (((LCDOUT) & 800h) == 0)
                          M         bcf     PCLATH, 3
                          M           else
                          M         bsf     PCLATH, 3
                          M           endif
                          M         endif
                          M         if (CODE_SIZE == 8)
                          M           if (((LCDOUT) & 1000h) == 0)
                          M         bcf     PCLATH, 4
                          M           else
MPASM  5.49                      SDCCON~1.ASM   7-1-2005  0:07:41         PAGE 177


LOC  OBJECT CODE     LINE SOURCE TEXT
  VALUE

                          M         bsf     PCLATH, 4
                          M           endif
                          M         endif
                          M       else
                          M         if (CODE_SIZE >= 4)
                          M           if (((LCDOUT) & 1800h) == 0)
023F   018A               M         clrf    PCLATH
                          M           else
                          M             if (((LCDOUT) & 800h) == 0)
                          M         bcf     PCLATH, 3
                          M             else
                          M         bsf     PCLATH, 3
                          M             endif
                          M             if (CODE_SIZE == 8)
                          M               if (((LCDOUT) & 1000h) == 0)
                          M         bcf     PCLATH, 4
                          M               else
                          M         bsf     PCLATH, 4
                          M               endif
                          M             endif
                          M           endif
                          M         endif
                          M       endif
                          M     endif
                          M 
0240   2003               M         call    LCDOUT
                      00186         LCDOUT?C        06Dh
0241   306D               M         movlw   06Dh
                          M         L?CALL  LCDOUT
                          M         RST?RP
                          M     if ((PREV_BANK & 1) != 0)
                          M         bcf     STATUS, RP0
                          M     endif
                          M     if ((PREV_BANK & 2) != 0)
                          M         bcf     STATUS, RP1
                          M     endif
  00000000                M PREV_BANK = 0
                          M 
                          M     if ((LCDOUT) < 1)
                          M       if (CODE_SIZE >= 4)
                          M         if (((LCDOUT) & 800h) == 0)
                          M         bcf     PCLATH, 3
                          M         else
                          M         bsf     PCLATH, 3
                          M         endif
                          M       endif
                          M       if (CODE_SIZE == 8)
                          M         if (((LCDOUT) & 1000h) == 0)
                          M         bcf     PCLATH, 4
                          M         else
                          M         bsf     PCLATH, 4
                          M         endif
                          M       endif
MPASM  5.49                      SDCCON~1.ASM   7-1-2005  0:07:41         PAGE 178


LOC  OBJECT CODE     LINE SOURCE TEXT
  VALUE

                          M     else
                          M       if ((LCDOUT) > $)
                          M         if (CODE_SIZE >= 4)
                          M           if (((LCDOUT) & 800h) == 0)
                          M         bcf     PCLATH, 3
                          M           else
                          M         bsf     PCLATH, 3
                          M           endif
                          M         endif
                          M         if (CODE_SIZE == 8)
                          M           if (((LCDOUT) & 1000h) == 0)
                          M         bcf     PCLATH, 4
                          M           else
                          M         bsf     PCLATH, 4
                          M           endif
                          M         endif
                          M       else
                          M         if (CODE_SIZE >= 4)
                          M           if (((LCDOUT) & 1800h) == 0)
0242   018A               M         clrf    PCLATH
                          M           else
                          M             if (((LCDOUT) & 800h) == 0)
                          M         bcf     PCLATH, 3
                          M             else
                          M         bsf     PCLATH, 3
                          M             endif
                          M             if (CODE_SIZE == 8)
                          M               if (((LCDOUT) & 1000h) == 0)
                          M         bcf     PCLATH, 4
                          M               else
                          M         bsf     PCLATH, 4
                          M               endif
                          M             endif
                          M           endif
                          M         endif
                          M       endif
                          M     endif
                          M 
0243   2003               M         call    LCDOUT
                      00187         LCDOUT?C        061h
0244   3061               M         movlw   061h
                          M         L?CALL  LCDOUT
                          M         RST?RP
                          M     if ((PREV_BANK & 1) != 0)
                          M         bcf     STATUS, RP0
                          M     endif
                          M     if ((PREV_BANK & 2) != 0)
                          M         bcf     STATUS, RP1
                          M     endif
  00000000                M PREV_BANK = 0
                          M 
                          M     if ((LCDOUT) < 1)
                          M       if (CODE_SIZE >= 4)
MPASM  5.49                      SDCCON~1.ASM   7-1-2005  0:07:41         PAGE 179


LOC  OBJECT CODE     LINE SOURCE TEXT
  VALUE

                          M         if (((LCDOUT) & 800h) == 0)
                          M         bcf     PCLATH, 3
                          M         else
                          M         bsf     PCLATH, 3
                          M         endif
                          M       endif
                          M       if (CODE_SIZE == 8)
                          M         if (((LCDOUT) & 1000h) == 0)
                          M         bcf     PCLATH, 4
                          M         else
                          M         bsf     PCLATH, 4
                          M         endif
                          M       endif
                          M     else
                          M       if ((LCDOUT) > $)
                          M         if (CODE_SIZE >= 4)
                          M           if (((LCDOUT) & 800h) == 0)
                          M         bcf     PCLATH, 3
                          M           else
                          M         bsf     PCLATH, 3
                          M           endif
                          M         endif
                          M         if (CODE_SIZE == 8)
                          M           if (((LCDOUT) & 1000h) == 0)
                          M         bcf     PCLATH, 4
                          M           else
                          M         bsf     PCLATH, 4
                          M           endif
                          M         endif
                          M       else
                          M         if (CODE_SIZE >= 4)
                          M           if (((LCDOUT) & 1800h) == 0)
0245   018A               M         clrf    PCLATH
                          M           else
                          M             if (((LCDOUT) & 800h) == 0)
                          M         bcf     PCLATH, 3
                          M             else
                          M         bsf     PCLATH, 3
                          M             endif
                          M             if (CODE_SIZE == 8)
                          M               if (((LCDOUT) & 1000h) == 0)
                          M         bcf     PCLATH, 4
                          M               else
                          M         bsf     PCLATH, 4
                          M               endif
                          M             endif
                          M           endif
                          M         endif
                          M       endif
                          M     endif
                          M 
0246   2003               M         call    LCDOUT
                      00188         LCDOUT?C        020h
MPASM  5.49                      SDCCON~1.ASM   7-1-2005  0:07:41         PAGE 180


LOC  OBJECT CODE     LINE SOURCE TEXT
  VALUE

0247   3020               M         movlw   020h
                          M         L?CALL  LCDOUT
                          M         RST?RP
                          M     if ((PREV_BANK & 1) != 0)
                          M         bcf     STATUS, RP0
                          M     endif
                          M     if ((PREV_BANK & 2) != 0)
                          M         bcf     STATUS, RP1
                          M     endif
  00000000                M PREV_BANK = 0
                          M 
                          M     if ((LCDOUT) < 1)
                          M       if (CODE_SIZE >= 4)
                          M         if (((LCDOUT) & 800h) == 0)
                          M         bcf     PCLATH, 3
                          M         else
                          M         bsf     PCLATH, 3
                          M         endif
                          M       endif
                          M       if (CODE_SIZE == 8)
                          M         if (((LCDOUT) & 1000h) == 0)
                          M         bcf     PCLATH, 4
                          M         else
                          M         bsf     PCLATH, 4
                          M         endif
                          M       endif
                          M     else
                          M       if ((LCDOUT) > $)
                          M         if (CODE_SIZE >= 4)
                          M           if (((LCDOUT) & 800h) == 0)
                          M         bcf     PCLATH, 3
                          M           else
                          M         bsf     PCLATH, 3
                          M           endif
                          M         endif
                          M         if (CODE_SIZE == 8)
                          M           if (((LCDOUT) & 1000h) == 0)
                          M         bcf     PCLATH, 4
                          M           else
                          M         bsf     PCLATH, 4
                          M           endif
                          M         endif
                          M       else
                          M         if (CODE_SIZE >= 4)
                          M           if (((LCDOUT) & 1800h) == 0)
0248   018A               M         clrf    PCLATH
                          M           else
                          M             if (((LCDOUT) & 800h) == 0)
                          M         bcf     PCLATH, 3
                          M             else
                          M         bsf     PCLATH, 3
                          M             endif
                          M             if (CODE_SIZE == 8)
MPASM  5.49                      SDCCON~1.ASM   7-1-2005  0:07:41         PAGE 181


LOC  OBJECT CODE     LINE SOURCE TEXT
  VALUE

                          M               if (((LCDOUT) & 1000h) == 0)
                          M         bcf     PCLATH, 4
                          M               else
                          M         bsf     PCLATH, 4
                          M               endif
                          M             endif
                          M           endif
                          M         endif
                          M       endif
                          M     endif
                          M 
0249   2003               M         call    LCDOUT
                      00189         LCDOUT?C        03Dh
024A   303D               M         movlw   03Dh
                          M         L?CALL  LCDOUT
                          M         RST?RP
                          M     if ((PREV_BANK & 1) != 0)
                          M         bcf     STATUS, RP0
                          M     endif
                          M     if ((PREV_BANK & 2) != 0)
                          M         bcf     STATUS, RP1
                          M     endif
  00000000                M PREV_BANK = 0
                          M 
                          M     if ((LCDOUT) < 1)
                          M       if (CODE_SIZE >= 4)
                          M         if (((LCDOUT) & 800h) == 0)
                          M         bcf     PCLATH, 3
                          M         else
                          M         bsf     PCLATH, 3
                          M         endif
                          M       endif
                          M       if (CODE_SIZE == 8)
                          M         if (((LCDOUT) & 1000h) == 0)
                          M         bcf     PCLATH, 4
                          M         else
                          M         bsf     PCLATH, 4
                          M         endif
                          M       endif
                          M     else
                          M       if ((LCDOUT) > $)
                          M         if (CODE_SIZE >= 4)
                          M           if (((LCDOUT) & 800h) == 0)
                          M         bcf     PCLATH, 3
                          M           else
                          M         bsf     PCLATH, 3
                          M           endif
                          M         endif
                          M         if (CODE_SIZE == 8)
                          M           if (((LCDOUT) & 1000h) == 0)
                          M         bcf     PCLATH, 4
                          M           else
                          M         bsf     PCLATH, 4
MPASM  5.49                      SDCCON~1.ASM   7-1-2005  0:07:41         PAGE 182


LOC  OBJECT CODE     LINE SOURCE TEXT
  VALUE

                          M           endif
                          M         endif
                          M       else
                          M         if (CODE_SIZE >= 4)
                          M           if (((LCDOUT) & 1800h) == 0)
024B   018A               M         clrf    PCLATH
                          M           else
                          M             if (((LCDOUT) & 800h) == 0)
                          M         bcf     PCLATH, 3
                          M             else
                          M         bsf     PCLATH, 3
                          M             endif
                          M             if (CODE_SIZE == 8)
                          M               if (((LCDOUT) & 1000h) == 0)
                          M         bcf     PCLATH, 4
                          M               else
                          M         bsf     PCLATH, 4
                          M               endif
                          M             endif
                          M           endif
                          M         endif
                          M       endif
                          M     endif
                          M 
024C   2003               M         call    LCDOUT
                      00190         LCDOUT?C        020h
024D   3020               M         movlw   020h
                          M         L?CALL  LCDOUT
                          M         RST?RP
                          M     if ((PREV_BANK & 1) != 0)
                          M         bcf     STATUS, RP0
                          M     endif
                          M     if ((PREV_BANK & 2) != 0)
                          M         bcf     STATUS, RP1
                          M     endif
  00000000                M PREV_BANK = 0
                          M 
                          M     if ((LCDOUT) < 1)
                          M       if (CODE_SIZE >= 4)
                          M         if (((LCDOUT) & 800h) == 0)
                          M         bcf     PCLATH, 3
                          M         else
                          M         bsf     PCLATH, 3
                          M         endif
                          M       endif
                          M       if (CODE_SIZE == 8)
                          M         if (((LCDOUT) & 1000h) == 0)
                          M         bcf     PCLATH, 4
                          M         else
                          M         bsf     PCLATH, 4
                          M         endif
                          M       endif
                          M     else
MPASM  5.49                      SDCCON~1.ASM   7-1-2005  0:07:41         PAGE 183


LOC  OBJECT CODE     LINE SOURCE TEXT
  VALUE

                          M       if ((LCDOUT) > $)
                          M         if (CODE_SIZE >= 4)
                          M           if (((LCDOUT) & 800h) == 0)
                          M         bcf     PCLATH, 3
                          M           else
                          M         bsf     PCLATH, 3
                          M           endif
                          M         endif
                          M         if (CODE_SIZE == 8)
                          M           if (((LCDOUT) & 1000h) == 0)
                          M         bcf     PCLATH, 4
                          M           else
                          M         bsf     PCLATH, 4
                          M           endif
                          M         endif
                          M       else
                          M         if (CODE_SIZE >= 4)
                          M           if (((LCDOUT) & 1800h) == 0)
024E   018A               M         clrf    PCLATH
                          M           else
                          M             if (((LCDOUT) & 800h) == 0)
                          M         bcf     PCLATH, 3
                          M             else
                          M         bsf     PCLATH, 3
                          M             endif
                          M             if (CODE_SIZE == 8)
                          M               if (((LCDOUT) & 1000h) == 0)
                          M         bcf     PCLATH, 4
                          M               else
                          M         bsf     PCLATH, 4
                          M               endif
                          M             endif
                          M           endif
                          M         endif
                          M       endif
                          M     endif
                          M 
024F   2003               M         call    LCDOUT
                      00191         LCDOUTCOUNT?C   000h
                          M         MOVE?CB 000h, R4 + 1
                          M         CHK?RP  R4 + 1
                          M     if (((R4 + 1) & 180h) == 0)
                          M       if (PREV_BANK == 1)
                          M         bcf     STATUS, RP0
                          M       endif
                          M       if (PREV_BANK == 2)
                          M         bcf     STATUS, RP1
                          M       endif
                          M       if (PREV_BANK == 3)
                          M         bcf     STATUS, RP0
                          M         bcf     STATUS, RP1
                          M       endif
  00000000                M PREV_BANK = 0
MPASM  5.49                      SDCCON~1.ASM   7-1-2005  0:07:41         PAGE 184


LOC  OBJECT CODE     LINE SOURCE TEXT
  VALUE

                          M     endif
                          M 
                          M     if (((R4 + 1) & 180h) == 80h)
                          M       if (PREV_BANK == 0)
                          M         bsf     STATUS, RP0
                          M       endif
                          M       if (PREV_BANK == 2)
                          M         bsf     STATUS, RP0
                          M         bcf     STATUS, RP1
                          M       endif
                          M       if (PREV_BANK == 3)
                          M         bcf     STATUS, RP1
                          M       endif
                          M PREV_BANK = 1
                          M     endif
                          M 
                          M     if (((R4 + 1) & 180h) == 100h)
                          M       if (PREV_BANK == 0)
                          M         bsf     STATUS, RP1
                          M       endif
                          M       if (PREV_BANK == 1)
                          M         bcf     STATUS, RP0
                          M         bsf     STATUS, RP1
                          M       endif
                          M       if (PREV_BANK == 3)
                          M         bcf     STATUS, RP0
                          M       endif
                          M PREV_BANK = 2
                          M     endif
                          M 
                          M     if (((R4 + 1) & 180h) == 180h)
                          M       if (PREV_BANK == 0)
                          M         bsf     STATUS, RP0
                          M         bsf     STATUS, RP1
                          M       endif
                          M       if (PREV_BANK == 1)
                          M         bsf     STATUS, RP1
                          M       endif
                          M       if (PREV_BANK == 2)
                          M         bsf     STATUS, RP0
                          M       endif
                          M PREV_BANK = 3
                          M     endif
                          M     if (low (000h) == 0)
0250   01A9               M         clrf    R4 + 1
                          M     else
                          M         movlw   low (000h)
                          M         movwf   R4 + 1
                          M     endif
                      00192         LCDOUTNUM?B     _tempMin
                          M         MOVE?BW _tempMin, R2
                          M         CHK?RP  _tempMin
                          M     if (((_tempMin) & 180h) == 0)
MPASM  5.49                      SDCCON~1.ASM   7-1-2005  0:07:41         PAGE 185


LOC  OBJECT CODE     LINE SOURCE TEXT
  VALUE

                          M       if (PREV_BANK == 1)
                          M         bcf     STATUS, RP0
                          M       endif
                          M       if (PREV_BANK == 2)
                          M         bcf     STATUS, RP1
                          M       endif
                          M       if (PREV_BANK == 3)
                          M         bcf     STATUS, RP0
                          M         bcf     STATUS, RP1
                          M       endif
  00000000                M PREV_BANK = 0
                          M     endif
                          M 
                          M     if (((_tempMin) & 180h) == 80h)
                          M       if (PREV_BANK == 0)
                          M         bsf     STATUS, RP0
                          M       endif
                          M       if (PREV_BANK == 2)
                          M         bsf     STATUS, RP0
                          M         bcf     STATUS, RP1
                          M       endif
                          M       if (PREV_BANK == 3)
                          M         bcf     STATUS, RP1
                          M       endif
                          M PREV_BANK = 1
                          M     endif
                          M 
                          M     if (((_tempMin) & 180h) == 100h)
                          M       if (PREV_BANK == 0)
                          M         bsf     STATUS, RP1
                          M       endif
                          M       if (PREV_BANK == 1)
                          M         bcf     STATUS, RP0
                          M         bsf     STATUS, RP1
                          M       endif
                          M       if (PREV_BANK == 3)
                          M         bcf     STATUS, RP0
                          M       endif
                          M PREV_BANK = 2
                          M     endif
                          M 
                          M     if (((_tempMin) & 180h) == 180h)
                          M       if (PREV_BANK == 0)
                          M         bsf     STATUS, RP0
                          M         bsf     STATUS, RP1
                          M       endif
                          M       if (PREV_BANK == 1)
                          M         bsf     STATUS, RP1
                          M       endif
                          M       if (PREV_BANK == 2)
                          M         bsf     STATUS, RP0
                          M       endif
                          M PREV_BANK = 3
MPASM  5.49                      SDCCON~1.ASM   7-1-2005  0:07:41         PAGE 186


LOC  OBJECT CODE     LINE SOURCE TEXT
  VALUE

                          M     endif
0251   083B               M         movf    _tempMin, W
                          M         CHK?RP  R2
                          M     if (((R2)    & 180h) == 0)
                          M       if (PREV_BANK == 1)
                          M         bcf     STATUS, RP0
                          M       endif
                          M       if (PREV_BANK == 2)
                          M         bcf     STATUS, RP1
                          M       endif
                          M       if (PREV_BANK == 3)
                          M         bcf     STATUS, RP0
                          M         bcf     STATUS, RP1
                          M       endif
  00000000                M PREV_BANK = 0
                          M     endif
                          M 
                          M     if (((R2)    & 180h) == 80h)
                          M       if (PREV_BANK == 0)
                          M         bsf     STATUS, RP0
                          M       endif
                          M       if (PREV_BANK == 2)
                          M         bsf     STATUS, RP0
                          M         bcf     STATUS, RP1
                          M       endif
                          M       if (PREV_BANK == 3)
                          M         bcf     STATUS, RP1
                          M       endif
                          M PREV_BANK = 1
                          M     endif
                          M 
                          M     if (((R2)    & 180h) == 100h)
                          M       if (PREV_BANK == 0)
                          M         bsf     STATUS, RP1
                          M       endif
                          M       if (PREV_BANK == 1)
                          M         bcf     STATUS, RP0
                          M         bsf     STATUS, RP1
                          M       endif
                          M       if (PREV_BANK == 3)
                          M         bcf     STATUS, RP0
                          M       endif
                          M PREV_BANK = 2
                          M     endif
                          M 
                          M     if (((R2)    & 180h) == 180h)
                          M       if (PREV_BANK == 0)
                          M         bsf     STATUS, RP0
                          M         bsf     STATUS, RP1
                          M       endif
                          M       if (PREV_BANK == 1)
                          M         bsf     STATUS, RP1
                          M       endif
MPASM  5.49                      SDCCON~1.ASM   7-1-2005  0:07:41         PAGE 187


LOC  OBJECT CODE     LINE SOURCE TEXT
  VALUE

                          M       if (PREV_BANK == 2)
                          M         bsf     STATUS, RP0
                          M       endif
                          M PREV_BANK = 3
                          M     endif
0252   00A4               M         movwf   R2
0253   01A5               M         clrf    (R2)   + 1
                      00193         LCDOUTDEC?      
                          M         MOVE?CW LCDOUTJ, R8
                          M         MOVE?CB low (LCDOUTJ), R8
                          M         CHK?RP  R8
                          M     if (((R8)    & 180h) == 0)
                          M       if (PREV_BANK == 1)
                          M         bcf     STATUS, RP0
                          M       endif
                          M       if (PREV_BANK == 2)
                          M         bcf     STATUS, RP1
                          M       endif
                          M       if (PREV_BANK == 3)
                          M         bcf     STATUS, RP0
                          M         bcf     STATUS, RP1
                          M       endif
  00000000                M PREV_BANK = 0
                          M     endif
                          M 
                          M     if (((R8)    & 180h) == 80h)
                          M       if (PREV_BANK == 0)
                          M         bsf     STATUS, RP0
                          M       endif
                          M       if (PREV_BANK == 2)
                          M         bsf     STATUS, RP0
                          M         bcf     STATUS, RP1
                          M       endif
                          M       if (PREV_BANK == 3)
                          M         bcf     STATUS, RP1
                          M       endif
                          M PREV_BANK = 1
                          M     endif
                          M 
                          M     if (((R8)    & 180h) == 100h)
                          M       if (PREV_BANK == 0)
                          M         bsf     STATUS, RP1
                          M       endif
                          M       if (PREV_BANK == 1)
                          M         bcf     STATUS, RP0
                          M         bsf     STATUS, RP1
                          M       endif
                          M       if (PREV_BANK == 3)
                          M         bcf     STATUS, RP0
                          M       endif
                          M PREV_BANK = 2
                          M     endif
                          M 
MPASM  5.49                      SDCCON~1.ASM   7-1-2005  0:07:41         PAGE 188


LOC  OBJECT CODE     LINE SOURCE TEXT
  VALUE

                          M     if (((R8)    & 180h) == 180h)
                          M       if (PREV_BANK == 0)
                          M         bsf     STATUS, RP0
                          M         bsf     STATUS, RP1
                          M       endif
                          M       if (PREV_BANK == 1)
                          M         bsf     STATUS, RP1
                          M       endif
                          M       if (PREV_BANK == 2)
                          M         bsf     STATUS, RP0
                          M       endif
                          M PREV_BANK = 3
                          M     endif
                          M     if (low (low (LCDOUTJ)) == 0)
                          M         clrf    R8
                          M     else
0254   3002               M         movlw   low (low (LCDOUTJ))
0255   00B0               M         movwf   R8
                          M     endif
                          M         MOVE?CB high (LCDOUTJ), (R8) + 1
                          M         CHK?RP  (R8) + 1
                          M     if ((((R8) + 1) & 180h) == 0)
                          M       if (PREV_BANK == 1)
                          M         bcf     STATUS, RP0
                          M       endif
                          M       if (PREV_BANK == 2)
                          M         bcf     STATUS, RP1
                          M       endif
                          M       if (PREV_BANK == 3)
                          M         bcf     STATUS, RP0
                          M         bcf     STATUS, RP1
                          M       endif
  00000000                M PREV_BANK = 0
                          M     endif
                          M 
                          M     if ((((R8) + 1) & 180h) == 80h)
                          M       if (PREV_BANK == 0)
                          M         bsf     STATUS, RP0
                          M       endif
                          M       if (PREV_BANK == 2)
                          M         bsf     STATUS, RP0
                          M         bcf     STATUS, RP1
                          M       endif
                          M       if (PREV_BANK == 3)
                          M         bcf     STATUS, RP1
                          M       endif
                          M PREV_BANK = 1
                          M     endif
                          M 
                          M     if ((((R8) + 1) & 180h) == 100h)
                          M       if (PREV_BANK == 0)
                          M         bsf     STATUS, RP1
                          M       endif
MPASM  5.49                      SDCCON~1.ASM   7-1-2005  0:07:41         PAGE 189


LOC  OBJECT CODE     LINE SOURCE TEXT
  VALUE

                          M       if (PREV_BANK == 1)
                          M         bcf     STATUS, RP0
                          M         bsf     STATUS, RP1
                          M       endif
                          M       if (PREV_BANK == 3)
                          M         bcf     STATUS, RP0
                          M       endif
                          M PREV_BANK = 2
                          M     endif
                          M 
                          M     if ((((R8) + 1) & 180h) == 180h)
                          M       if (PREV_BANK == 0)
                          M         bsf     STATUS, RP0
                          M         bsf     STATUS, RP1
                          M       endif
                          M       if (PREV_BANK == 1)
                          M         bsf     STATUS, RP1
                          M       endif
                          M       if (PREV_BANK == 2)
                          M         bsf     STATUS, RP0
                          M       endif
                          M PREV_BANK = 3
                          M     endif
                          M     if (low (high (LCDOUTJ)) == 0)
0256   01B1               M         clrf    (R8) + 1
                          M     else
                          M         movlw   low (high (LCDOUTJ))
                          M         movwf   (R8) + 1
                          M     endif
                          M         L?CALL  SEROUT2DEC
                          M         RST?RP
                          M     if ((PREV_BANK & 1) != 0)
                          M         bcf     STATUS, RP0
                          M     endif
                          M     if ((PREV_BANK & 2) != 0)
                          M         bcf     STATUS, RP1
                          M     endif
  00000000                M PREV_BANK = 0
                          M 
                          M     if ((SEROUT2DEC) < 1)
                          M       if (CODE_SIZE >= 4)
                          M         if (((SEROUT2DEC) & 800h) == 0)
                          M         bcf     PCLATH, 3
                          M         else
                          M         bsf     PCLATH, 3
                          M         endif
                          M       endif
                          M       if (CODE_SIZE == 8)
                          M         if (((SEROUT2DEC) & 1000h) == 0)
                          M         bcf     PCLATH, 4
                          M         else
                          M         bsf     PCLATH, 4
                          M         endif
MPASM  5.49                      SDCCON~1.ASM   7-1-2005  0:07:41         PAGE 190


LOC  OBJECT CODE     LINE SOURCE TEXT
  VALUE

                          M       endif
                          M     else
                          M       if ((SEROUT2DEC) > $)
                          M         if (CODE_SIZE >= 4)
                          M           if (((SEROUT2DEC) & 800h) == 0)
                          M         bcf     PCLATH, 3
                          M           else
                          M         bsf     PCLATH, 3
                          M           endif
                          M         endif
                          M         if (CODE_SIZE == 8)
                          M           if (((SEROUT2DEC) & 1000h) == 0)
                          M         bcf     PCLATH, 4
                          M           else
                          M         bsf     PCLATH, 4
                          M           endif
                          M         endif
                          M       else
                          M         if (CODE_SIZE >= 4)
                          M           if (((SEROUT2DEC) & 1800h) == 0)
0257   018A               M         clrf    PCLATH
                          M           else
                          M             if (((SEROUT2DEC) & 800h) == 0)
                          M         bcf     PCLATH, 3
                          M             else
                          M         bsf     PCLATH, 3
                          M             endif
                          M             if (CODE_SIZE == 8)
                          M               if (((SEROUT2DEC) & 1000h) == 0)
                          M         bcf     PCLATH, 4
                          M               else
                          M         bsf     PCLATH, 4
                          M               endif
                          M             endif
                          M           endif
                          M         endif
                          M       endif
                          M     endif
                          M 
0258   2052               M         call    SEROUT2DEC
                      00194         LCDOUT?C        _g
0259   30DF               M         movlw   _g
                          M         L?CALL  LCDOUT
                          M         RST?RP
                          M     if ((PREV_BANK & 1) != 0)
                          M         bcf     STATUS, RP0
                          M     endif
                          M     if ((PREV_BANK & 2) != 0)
                          M         bcf     STATUS, RP1
                          M     endif
  00000000                M PREV_BANK = 0
                          M 
                          M     if ((LCDOUT) < 1)
MPASM  5.49                      SDCCON~1.ASM   7-1-2005  0:07:41         PAGE 191


LOC  OBJECT CODE     LINE SOURCE TEXT
  VALUE

                          M       if (CODE_SIZE >= 4)
                          M         if (((LCDOUT) & 800h) == 0)
                          M         bcf     PCLATH, 3
                          M         else
                          M         bsf     PCLATH, 3
                          M         endif
                          M       endif
                          M       if (CODE_SIZE == 8)
                          M         if (((LCDOUT) & 1000h) == 0)
                          M         bcf     PCLATH, 4
                          M         else
                          M         bsf     PCLATH, 4
                          M         endif
                          M       endif
                          M     else
                          M       if ((LCDOUT) > $)
                          M         if (CODE_SIZE >= 4)
                          M           if (((LCDOUT) & 800h) == 0)
                          M         bcf     PCLATH, 3
                          M           else
                          M         bsf     PCLATH, 3
                          M           endif
                          M         endif
                          M         if (CODE_SIZE == 8)
                          M           if (((LCDOUT) & 1000h) == 0)
                          M         bcf     PCLATH, 4
                          M           else
                          M         bsf     PCLATH, 4
                          M           endif
                          M         endif
                          M       else
                          M         if (CODE_SIZE >= 4)
                          M           if (((LCDOUT) & 1800h) == 0)
025A   018A               M         clrf    PCLATH
                          M           else
                          M             if (((LCDOUT) & 800h) == 0)
                          M         bcf     PCLATH, 3
                          M             else
                          M         bsf     PCLATH, 3
                          M             endif
                          M             if (CODE_SIZE == 8)
                          M               if (((LCDOUT) & 1000h) == 0)
                          M         bcf     PCLATH, 4
                          M               else
                          M         bsf     PCLATH, 4
                          M               endif
                          M             endif
                          M           endif
                          M         endif
                          M       endif
                          M     endif
                          M 
025B   2003               M         call    LCDOUT
MPASM  5.49                      SDCCON~1.ASM   7-1-2005  0:07:41         PAGE 192


LOC  OBJECT CODE     LINE SOURCE TEXT
  VALUE

                      00195         LCDOUT?C        043h
025C   3043               M         movlw   043h
                          M         L?CALL  LCDOUT
                          M         RST?RP
                          M     if ((PREV_BANK & 1) != 0)
                          M         bcf     STATUS, RP0
                          M     endif
                          M     if ((PREV_BANK & 2) != 0)
                          M         bcf     STATUS, RP1
                          M     endif
  00000000                M PREV_BANK = 0
                          M 
                          M     if ((LCDOUT) < 1)
                          M       if (CODE_SIZE >= 4)
                          M         if (((LCDOUT) & 800h) == 0)
                          M         bcf     PCLATH, 3
                          M         else
                          M         bsf     PCLATH, 3
                          M         endif
                          M       endif
                          M       if (CODE_SIZE == 8)
                          M         if (((LCDOUT) & 1000h) == 0)
                          M         bcf     PCLATH, 4
                          M         else
                          M         bsf     PCLATH, 4
                          M         endif
                          M       endif
                          M     else
                          M       if ((LCDOUT) > $)
                          M         if (CODE_SIZE >= 4)
                          M           if (((LCDOUT) & 800h) == 0)
                          M         bcf     PCLATH, 3
                          M           else
                          M         bsf     PCLATH, 3
                          M           endif
                          M         endif
                          M         if (CODE_SIZE == 8)
                          M           if (((LCDOUT) & 1000h) == 0)
                          M         bcf     PCLATH, 4
                          M           else
                          M         bsf     PCLATH, 4
                          M           endif
                          M         endif
                          M       else
                          M         if (CODE_SIZE >= 4)
                          M           if (((LCDOUT) & 1800h) == 0)
025D   018A               M         clrf    PCLATH
                          M           else
                          M             if (((LCDOUT) & 800h) == 0)
                          M         bcf     PCLATH, 3
                          M             else
                          M         bsf     PCLATH, 3
                          M             endif
MPASM  5.49                      SDCCON~1.ASM   7-1-2005  0:07:41         PAGE 193


LOC  OBJECT CODE     LINE SOURCE TEXT
  VALUE

                          M             if (CODE_SIZE == 8)
                          M               if (((LCDOUT) & 1000h) == 0)
                          M         bcf     PCLATH, 4
                          M               else
                          M         bsf     PCLATH, 4
                          M               endif
                          M             endif
                          M           endif
                          M         endif
                          M       endif
                          M     endif
                          M 
025E   2003               M         call    LCDOUT
                      00196         PAUSE?C 064h
                          M     if (((064h) >> 8) == 0)
                          M         MOVE?CA 064h
025F   3064               M         movlw   low (064h)
                          M         L?CALL  PAUSE
                          M         RST?RP
                          M     if ((PREV_BANK & 1) != 0)
                          M         bcf     STATUS, RP0
                          M     endif
                          M     if ((PREV_BANK & 2) != 0)
                          M         bcf     STATUS, RP1
                          M     endif
  00000000                M PREV_BANK = 0
                          M 
                          M     if ((PAUSE) < 1)
                          M       if (CODE_SIZE >= 4)
                          M         if (((PAUSE) & 800h) == 0)
                          M         bcf     PCLATH, 3
                          M         else
                          M         bsf     PCLATH, 3
                          M         endif
                          M       endif
                          M       if (CODE_SIZE == 8)
                          M         if (((PAUSE) & 1000h) == 0)
                          M         bcf     PCLATH, 4
                          M         else
                          M         bsf     PCLATH, 4
                          M         endif
                          M       endif
                          M     else
                          M       if ((PAUSE) > $)
                          M         if (CODE_SIZE >= 4)
                          M           if (((PAUSE) & 800h) == 0)
                          M         bcf     PCLATH, 3
                          M           else
                          M         bsf     PCLATH, 3
                          M           endif
                          M         endif
                          M         if (CODE_SIZE == 8)
                          M           if (((PAUSE) & 1000h) == 0)
MPASM  5.49                      SDCCON~1.ASM   7-1-2005  0:07:41         PAGE 194


LOC  OBJECT CODE     LINE SOURCE TEXT
  VALUE

                          M         bcf     PCLATH, 4
                          M           else
                          M         bsf     PCLATH, 4
                          M           endif
                          M         endif
                          M       else
                          M         if (CODE_SIZE >= 4)
                          M           if (((PAUSE) & 1800h) == 0)
0260   018A               M         clrf    PCLATH
                          M           else
                          M             if (((PAUSE) & 800h) == 0)
                          M         bcf     PCLATH, 3
                          M             else
                          M         bsf     PCLATH, 3
                          M             endif
                          M             if (CODE_SIZE == 8)
                          M               if (((PAUSE) & 1000h) == 0)
                          M         bcf     PCLATH, 4
                          M               else
                          M         bsf     PCLATH, 4
                          M               endif
                          M             endif
                          M           endif
                          M         endif
                          M       endif
                          M     endif
                          M 
0261   20A9               M         call    PAUSE
                          M     else
                          M         MOVE?CB (064h) >> 8, R1 + 1
                          M         MOVE?CA low (064h)
                          M         L?CALL  PAUSEL
                          M     endif
                      00197         CMPEQ?TCL       _botonBajar, 001h, _restar1
                          M     if (((001h) == 0) | ((001h) == 1))
                          M         CLRWDT?
                          M     ifndef NO_CLRWDT
0262   0064               M         clrwdt
                          M     endif
                          M         BIT?GOTO 001h, PORTD, 006h, _restar1
                          M     if ($ == (_restar1))
                          M         CLRWDT?
                          M     endif
                          M 
                          M     if (CODE_SIZE >= 4)
                          M       if (((_restar1) & 800h) == 0)
0263   118A               M         bcf     PCLATH, 3
                          M       else
                          M         bsf     PCLATH, 3
                          M       endif
                          M     endif
                          M     if (CODE_SIZE == 8)
                          M       if (((_restar1) & 1000h) == 0)
MPASM  5.49                      SDCCON~1.ASM   7-1-2005  0:07:41         PAGE 195


LOC  OBJECT CODE     LINE SOURCE TEXT
  VALUE

0264   120A               M         bcf     PCLATH, 4
                          M       else
                          M         bsf     PCLATH, 4
                          M       endif
                          M     endif
                          M 
                          M     if (((PORTD) & 0ff80h) != 0)
                          M         CHK?RP  PORTD
                          M         bcf     STATUS, DC
                          M       if ((001h)   == 0)
                          M         btfss   PORTD, 006h
                          M       else
                          M         btfsc   PORTD, 006h
                          M       endif
                          M         bsf     STATUS, DC
                          M         RST?RP
                          M         btfsc   STATUS, DC
                          M     else
                          M         RST?RP
                          M     if ((PREV_BANK & 1) != 0)
                          M         bcf     STATUS, RP0
                          M     endif
                          M     if ((PREV_BANK & 2) != 0)
                          M         bcf     STATUS, RP1
                          M     endif
  00000000                M PREV_BANK = 0
                          M       if ((001h)   == 0)
                          M         btfss   PORTD, 006h
                          M       else
0265   1B08               M         btfsc   PORTD, 006h
                          M       endif
                          M     endif
                          M 
0266   2A73               M         goto    _restar1
                          M     endif
                      00198         CMPEQ?TCL       _botonSubir, 001h, _sumar1
                          M     if (((001h) == 0) | ((001h) == 1))
                          M         CLRWDT?
                          M     ifndef NO_CLRWDT
0267   0064               M         clrwdt
                          M     endif
                          M         BIT?GOTO 001h, PORTD, 007h, _sumar1
                          M     if ($ == (_sumar1))
                          M         CLRWDT?
                          M     endif
                          M 
                          M     if (CODE_SIZE >= 4)
                          M       if (((_sumar1) & 800h) == 0)
0268   118A               M         bcf     PCLATH, 3
                          M       else
                          M         bsf     PCLATH, 3
                          M       endif
                          M     endif
MPASM  5.49                      SDCCON~1.ASM   7-1-2005  0:07:41         PAGE 196


LOC  OBJECT CODE     LINE SOURCE TEXT
  VALUE

                          M     if (CODE_SIZE == 8)
                          M       if (((_sumar1) & 1000h) == 0)
0269   120A               M         bcf     PCLATH, 4
                          M       else
                          M         bsf     PCLATH, 4
                          M       endif
                          M     endif
                          M 
                          M     if (((PORTD) & 0ff80h) != 0)
                          M         CHK?RP  PORTD
                          M         bcf     STATUS, DC
                          M       if ((001h)   == 0)
                          M         btfss   PORTD, 007h
                          M       else
                          M         btfsc   PORTD, 007h
                          M       endif
                          M         bsf     STATUS, DC
                          M         RST?RP
                          M         btfsc   STATUS, DC
                          M     else
                          M         RST?RP
                          M     if ((PREV_BANK & 1) != 0)
                          M         bcf     STATUS, RP0
                          M     endif
                          M     if ((PREV_BANK & 2) != 0)
                          M         bcf     STATUS, RP1
                          M     endif
  00000000                M PREV_BANK = 0
                          M       if ((001h)   == 0)
                          M         btfss   PORTD, 007h
                          M       else
026A   1B88               M         btfsc   PORTD, 007h
                          M       endif
                          M     endif
                          M 
026B   2A80               M         goto    _sumar1
                          M     endif
                      00199         CMPEQ?TCL       _enter, 001h, _grabarA
                          M     if (((001h) == 0) | ((001h) == 1))
                          M         CLRWDT?
                          M     ifndef NO_CLRWDT
026C   0064               M         clrwdt
                          M     endif
                          M         BIT?GOTO 001h, PORTD, 005h, _grabarA
                          M     if ($ == (_grabarA))
                          M         CLRWDT?
                          M     endif
                          M 
                          M     if (CODE_SIZE >= 4)
                          M       if (((_grabarA) & 800h) == 0)
026D   118A               M         bcf     PCLATH, 3
                          M       else
                          M         bsf     PCLATH, 3
MPASM  5.49                      SDCCON~1.ASM   7-1-2005  0:07:41         PAGE 197


LOC  OBJECT CODE     LINE SOURCE TEXT
  VALUE

                          M       endif
                          M     endif
                          M     if (CODE_SIZE == 8)
                          M       if (((_grabarA) & 1000h) == 0)
026E   120A               M         bcf     PCLATH, 4
                          M       else
                          M         bsf     PCLATH, 4
                          M       endif
                          M     endif
                          M 
                          M     if (((PORTD) & 0ff80h) != 0)
                          M         CHK?RP  PORTD
                          M         bcf     STATUS, DC
                          M       if ((001h)   == 0)
                          M         btfss   PORTD, 005h
                          M       else
                          M         btfsc   PORTD, 005h
                          M       endif
                          M         bsf     STATUS, DC
                          M         RST?RP
                          M         btfsc   STATUS, DC
                          M     else
                          M         RST?RP
                          M     if ((PREV_BANK & 1) != 0)
                          M         bcf     STATUS, RP0
                          M     endif
                          M     if ((PREV_BANK & 2) != 0)
                          M         bcf     STATUS, RP1
                          M     endif
  00000000                M PREV_BANK = 0
                          M       if ((001h)   == 0)
                          M         btfss   PORTD, 005h
                          M       else
026F   1A88               M         btfsc   PORTD, 005h
                          M       endif
                          M     endif
                          M 
0270   2A8D               M         goto    _grabarA
                          M     endif
                      00200         GOTO?L  _grabar1
                          M         L?GOTO  _grabar1
                          M     if ($ == (_grabar1))
                          M         CLRWDT?
                          M     endif
                          M 
                          M         RST?RP
                          M     if ((PREV_BANK & 1) != 0)
                          M         bcf     STATUS, RP0
                          M     endif
                          M     if ((PREV_BANK & 2) != 0)
                          M         bcf     STATUS, RP1
                          M     endif
  00000000                M PREV_BANK = 0
MPASM  5.49                      SDCCON~1.ASM   7-1-2005  0:07:41         PAGE 198


LOC  OBJECT CODE     LINE SOURCE TEXT
  VALUE

                          M 
                          M     if ((_grabar1) < 1)
                          M       if (CODE_SIZE >= 4)
                          M         if (((_grabar1) & 800h) == 0)
                          M         bcf     PCLATH, 3
                          M         else
                          M         bsf     PCLATH, 3
                          M         endif
                          M       endif
                          M       if (CODE_SIZE == 8)
                          M         if (((_grabar1) & 1000h) == 0)
                          M         bcf     PCLATH, 4
                          M         else
                          M         bsf     PCLATH, 4
                          M         endif
                          M       endif
                          M     else
                          M       if ((_grabar1) > $)
                          M         if (CODE_SIZE >= 4)
                          M           if (((_grabar1) & 800h) == 0)
                          M         bcf     PCLATH, 3
                          M           else
                          M         bsf     PCLATH, 3
                          M           endif
                          M         endif
                          M         if (CODE_SIZE == 8)
                          M           if (((_grabar1) & 1000h) == 0)
                          M         bcf     PCLATH, 4
                          M           else
                          M         bsf     PCLATH, 4
                          M           endif
                          M         endif
                          M       else
                          M         if (CODE_SIZE >= 4)
                          M           if (((_grabar1) & 1800h) == 0)
0271   018A               M         clrf    PCLATH
                          M           else
                          M             if (((_grabar1) & 800h) == 0)
                          M         bcf     PCLATH, 3
                          M             else
                          M         bsf     PCLATH, 3
                          M             endif
                          M             if (CODE_SIZE == 8)
                          M               if (((_grabar1) & 1000h) == 0)
                          M         bcf     PCLATH, 4
                          M               else
                          M         bsf     PCLATH, 4
                          M               endif
                          M             endif
                          M           endif
                          M         endif
                          M       endif
                          M     endif
MPASM  5.49                      SDCCON~1.ASM   7-1-2005  0:07:41         PAGE 199


LOC  OBJECT CODE     LINE SOURCE TEXT
  VALUE

                          M 
0272   29F6               M         goto    _grabar1
                      00201 
                      00202         LABEL?L _restar1        
                          M         RST?RP
                          M     if ((PREV_BANK & 1) != 0)
                          M         bcf     STATUS, RP0
                          M     endif
                          M     if ((PREV_BANK & 2) != 0)
                          M         bcf     STATUS, RP1
                          M     endif
  00000000                M PREV_BANK = 0
                          M     ifdef PM_USED
                          M         LALL
                          M _restar1
                          M         XALL
                          M     else
0273                      M _restar1
                          M     endif
                      00203         GOSUB?L _soltar
  0000                    M     local dlabel
                          M     ifdef DEBUG_STACK
                          M         CHK?RP  DEBUG_STACK
                          M       ifdef DEBUG_STACK_ADDR
                          M         bcf     STATUS, C
                          M         rlf     DEBUG_STACK, W
                          M         addlw   DEBUG_STACK_ADDR
                          M         movwf   FSR
                          M         movlw   low (dlabel)
                          M         movwf   INDF
                          M         incf    FSR, F
                          M         movlw   (dlabel) >> 8
                          M         movwf   INDF
                          M       endif
                          M         incf    DEBUG_STACK, F
                          M     endif
                          M         L?CALL  _soltar
                          M         RST?RP
                          M     if ((PREV_BANK & 1) != 0)
                          M         bcf     STATUS, RP0
                          M     endif
                          M     if ((PREV_BANK & 2) != 0)
                          M         bcf     STATUS, RP1
                          M     endif
  00000000                M PREV_BANK = 0
                          M 
                          M     if ((_soltar) < 1)
                          M       if (CODE_SIZE >= 4)
                          M         if (((_soltar) & 800h) == 0)
                          M         bcf     PCLATH, 3
                          M         else
                          M         bsf     PCLATH, 3
                          M         endif
MPASM  5.49                      SDCCON~1.ASM   7-1-2005  0:07:41         PAGE 200


LOC  OBJECT CODE     LINE SOURCE TEXT
  VALUE

                          M       endif
                          M       if (CODE_SIZE == 8)
                          M         if (((_soltar) & 1000h) == 0)
                          M         bcf     PCLATH, 4
                          M         else
                          M         bsf     PCLATH, 4
                          M         endif
                          M       endif
                          M     else
                          M       if ((_soltar) > $)
                          M         if (CODE_SIZE >= 4)
                          M           if (((_soltar) & 800h) == 0)
0273   118A               M         bcf     PCLATH, 3
                          M           else
                          M         bsf     PCLATH, 3
                          M           endif
                          M         endif
                          M         if (CODE_SIZE == 8)
                          M           if (((_soltar) & 1000h) == 0)
0274   120A               M         bcf     PCLATH, 4
                          M           else
                          M         bsf     PCLATH, 4
                          M           endif
                          M         endif
                          M       else
                          M         if (CODE_SIZE >= 4)
                          M           if (((_soltar) & 1800h) == 0)
                          M         clrf    PCLATH
                          M           else
                          M             if (((_soltar) & 800h) == 0)
                          M         bcf     PCLATH, 3
                          M             else
                          M         bsf     PCLATH, 3
                          M             endif
                          M             if (CODE_SIZE == 8)
                          M               if (((_soltar) & 1000h) == 0)
                          M         bcf     PCLATH, 4
                          M               else
                          M         bsf     PCLATH, 4
                          M               endif
                          M             endif
                          M           endif
                          M         endif
                          M       endif
                          M     endif
                          M 
0275   2339               M         call    _soltar
0276                      M dlabel
                      00204         CMPLT?BCL       _tempMin, 009h, _grabar1
                          M     if ((009h) >= 100h)
                          M         L?GOTO  _grabar1
                          M     else
                          M       if ((009h) > 0)
MPASM  5.49                      SDCCON~1.ASM   7-1-2005  0:07:41         PAGE 201


LOC  OBJECT CODE     LINE SOURCE TEXT
  VALUE

                          M         CLRWDT?
                          M     ifndef NO_CLRWDT
0276   0064               M         clrwdt
                          M     endif
                          M         MOVE?CA 009h
0277   3009               M         movlw   low (009h)
                          M         CHK?RP  _tempMin
                          M     if (((_tempMin) & 180h) == 0)
                          M       if (PREV_BANK == 1)
                          M         bcf     STATUS, RP0
                          M       endif
                          M       if (PREV_BANK == 2)
                          M         bcf     STATUS, RP1
                          M       endif
                          M       if (PREV_BANK == 3)
                          M         bcf     STATUS, RP0
                          M         bcf     STATUS, RP1
                          M       endif
  00000000                M PREV_BANK = 0
                          M     endif
                          M 
                          M     if (((_tempMin) & 180h) == 80h)
                          M       if (PREV_BANK == 0)
                          M         bsf     STATUS, RP0
                          M       endif
                          M       if (PREV_BANK == 2)
                          M         bsf     STATUS, RP0
                          M         bcf     STATUS, RP1
                          M       endif
                          M       if (PREV_BANK == 3)
                          M         bcf     STATUS, RP1
                          M       endif
                          M PREV_BANK = 1
                          M     endif
                          M 
                          M     if (((_tempMin) & 180h) == 100h)
                          M       if (PREV_BANK == 0)
                          M         bsf     STATUS, RP1
                          M       endif
                          M       if (PREV_BANK == 1)
                          M         bcf     STATUS, RP0
                          M         bsf     STATUS, RP1
                          M       endif
                          M       if (PREV_BANK == 3)
                          M         bcf     STATUS, RP0
                          M       endif
                          M PREV_BANK = 2
                          M     endif
                          M 
                          M     if (((_tempMin) & 180h) == 180h)
                          M       if (PREV_BANK == 0)
                          M         bsf     STATUS, RP0
                          M         bsf     STATUS, RP1
MPASM  5.49                      SDCCON~1.ASM   7-1-2005  0:07:41         PAGE 202


LOC  OBJECT CODE     LINE SOURCE TEXT
  VALUE

                          M       endif
                          M       if (PREV_BANK == 1)
                          M         bsf     STATUS, RP1
                          M       endif
                          M       if (PREV_BANK == 2)
                          M         bsf     STATUS, RP0
                          M       endif
                          M PREV_BANK = 3
                          M     endif
0278   023B               M         subwf   _tempMin, W
                          M         BIT?GOTO 0, STATUS, C, _grabar1
                          M     if ($ == (_grabar1))
                          M         CLRWDT?
                          M     endif
                          M 
                          M     if (CODE_SIZE >= 4)
                          M       if (((_grabar1) & 800h) == 0)
0279   118A               M         bcf     PCLATH, 3
                          M       else
                          M         bsf     PCLATH, 3
                          M       endif
                          M     endif
                          M     if (CODE_SIZE == 8)
                          M       if (((_grabar1) & 1000h) == 0)
027A   120A               M         bcf     PCLATH, 4
                          M       else
                          M         bsf     PCLATH, 4
                          M       endif
                          M     endif
                          M 
                          M     if (((STATUS) & 0ff80h) != 0)
                          M         CHK?RP  STATUS
                          M         bcf     STATUS, DC
                          M       if ((0)      == 0)
                          M         btfss   STATUS, C
                          M       else
                          M         btfsc   STATUS, C
                          M       endif
                          M         bsf     STATUS, DC
                          M         RST?RP
                          M         btfsc   STATUS, DC
                          M     else
                          M         RST?RP
                          M     if ((PREV_BANK & 1) != 0)
                          M         bcf     STATUS, RP0
                          M     endif
                          M     if ((PREV_BANK & 2) != 0)
                          M         bcf     STATUS, RP1
                          M     endif
  00000000                M PREV_BANK = 0
                          M       if ((0)      == 0)
027B   1C03               M         btfss   STATUS, C
                          M       else
MPASM  5.49                      SDCCON~1.ASM   7-1-2005  0:07:41         PAGE 203


LOC  OBJECT CODE     LINE SOURCE TEXT
  VALUE

                          M         btfsc   STATUS, C
                          M       endif
                          M     endif
                          M 
027C   29F6               M         goto    _grabar1
                          M       endif
                          M     endif
                      00205         SUB?BCB _tempMin, 001h, _tempMin
                          M     if ((_tempMin) == (_tempMin))
                          M       if ((001h) == 1)
                          M         CHK?RP  _tempMin
                          M     if (((_tempMin) & 180h) == 0)
                          M       if (PREV_BANK == 1)
                          M         bcf     STATUS, RP0
                          M       endif
                          M       if (PREV_BANK == 2)
                          M         bcf     STATUS, RP1
                          M       endif
                          M       if (PREV_BANK == 3)
                          M         bcf     STATUS, RP0
                          M         bcf     STATUS, RP1
                          M       endif
  00000000                M PREV_BANK = 0
                          M     endif
                          M 
                          M     if (((_tempMin) & 180h) == 80h)
                          M       if (PREV_BANK == 0)
                          M         bsf     STATUS, RP0
                          M       endif
                          M       if (PREV_BANK == 2)
                          M         bsf     STATUS, RP0
                          M         bcf     STATUS, RP1
                          M       endif
                          M       if (PREV_BANK == 3)
                          M         bcf     STATUS, RP1
                          M       endif
                          M PREV_BANK = 1
                          M     endif
                          M 
                          M     if (((_tempMin) & 180h) == 100h)
                          M       if (PREV_BANK == 0)
                          M         bsf     STATUS, RP1
                          M       endif
                          M       if (PREV_BANK == 1)
                          M         bcf     STATUS, RP0
                          M         bsf     STATUS, RP1
                          M       endif
                          M       if (PREV_BANK == 3)
                          M         bcf     STATUS, RP0
                          M       endif
                          M PREV_BANK = 2
                          M     endif
                          M 
MPASM  5.49                      SDCCON~1.ASM   7-1-2005  0:07:41         PAGE 204


LOC  OBJECT CODE     LINE SOURCE TEXT
  VALUE

                          M     if (((_tempMin) & 180h) == 180h)
                          M       if (PREV_BANK == 0)
                          M         bsf     STATUS, RP0
                          M         bsf     STATUS, RP1
                          M       endif
                          M       if (PREV_BANK == 1)
                          M         bsf     STATUS, RP1
                          M       endif
                          M       if (PREV_BANK == 2)
                          M         bsf     STATUS, RP0
                          M       endif
                          M PREV_BANK = 3
                          M     endif
027D   03BB               M         decf    _tempMin, F
                          M       else
                          M         movlw   001h
                          M         CHK?RP  _tempMin
                          M         subwf   _tempMin, F
                          M       endif
                          M     else
                          M       if ((001h) == 1)
                          M         CHK?RP  _tempMin
                          M         decf    _tempMin, W
                          M       else
                          M         movlw   001h
                          M         CHK?RP  _tempMin
                          M         subwf   _tempMin, W
                          M       endif
                          M         MOVE?AB _tempMin
                          M     endif
                      00206         GOTO?L  _grabar1
                          M         L?GOTO  _grabar1
                          M     if ($ == (_grabar1))
                          M         CLRWDT?
                          M     endif
                          M 
                          M         RST?RP
                          M     if ((PREV_BANK & 1) != 0)
                          M         bcf     STATUS, RP0
                          M     endif
                          M     if ((PREV_BANK & 2) != 0)
                          M         bcf     STATUS, RP1
                          M     endif
  00000000                M PREV_BANK = 0
                          M 
                          M     if ((_grabar1) < 1)
                          M       if (CODE_SIZE >= 4)
                          M         if (((_grabar1) & 800h) == 0)
                          M         bcf     PCLATH, 3
                          M         else
                          M         bsf     PCLATH, 3
                          M         endif
                          M       endif
MPASM  5.49                      SDCCON~1.ASM   7-1-2005  0:07:41         PAGE 205


LOC  OBJECT CODE     LINE SOURCE TEXT
  VALUE

                          M       if (CODE_SIZE == 8)
                          M         if (((_grabar1) & 1000h) == 0)
                          M         bcf     PCLATH, 4
                          M         else
                          M         bsf     PCLATH, 4
                          M         endif
                          M       endif
                          M     else
                          M       if ((_grabar1) > $)
                          M         if (CODE_SIZE >= 4)
                          M           if (((_grabar1) & 800h) == 0)
                          M         bcf     PCLATH, 3
                          M           else
                          M         bsf     PCLATH, 3
                          M           endif
                          M         endif
                          M         if (CODE_SIZE == 8)
                          M           if (((_grabar1) & 1000h) == 0)
                          M         bcf     PCLATH, 4
                          M           else
                          M         bsf     PCLATH, 4
                          M           endif
                          M         endif
                          M       else
                          M         if (CODE_SIZE >= 4)
                          M           if (((_grabar1) & 1800h) == 0)
027E   018A               M         clrf    PCLATH
                          M           else
                          M             if (((_grabar1) & 800h) == 0)
                          M         bcf     PCLATH, 3
                          M             else
                          M         bsf     PCLATH, 3
                          M             endif
                          M             if (CODE_SIZE == 8)
                          M               if (((_grabar1) & 1000h) == 0)
                          M         bcf     PCLATH, 4
                          M               else
                          M         bsf     PCLATH, 4
                          M               endif
                          M             endif
                          M           endif
                          M         endif
                          M       endif
                          M     endif
                          M 
027F   29F6               M         goto    _grabar1
                      00207 
                      00208         LABEL?L _sumar1 
                          M         RST?RP
                          M     if ((PREV_BANK & 1) != 0)
                          M         bcf     STATUS, RP0
                          M     endif
                          M     if ((PREV_BANK & 2) != 0)
MPASM  5.49                      SDCCON~1.ASM   7-1-2005  0:07:41         PAGE 206


LOC  OBJECT CODE     LINE SOURCE TEXT
  VALUE

                          M         bcf     STATUS, RP1
                          M     endif
  00000000                M PREV_BANK = 0
                          M     ifdef PM_USED
                          M         LALL
                          M _sumar1
                          M         XALL
                          M     else
0280                      M _sumar1
                          M     endif
                      00209         GOSUB?L _soltar
  0000                    M     local dlabel
                          M     ifdef DEBUG_STACK
                          M         CHK?RP  DEBUG_STACK
                          M       ifdef DEBUG_STACK_ADDR
                          M         bcf     STATUS, C
                          M         rlf     DEBUG_STACK, W
                          M         addlw   DEBUG_STACK_ADDR
                          M         movwf   FSR
                          M         movlw   low (dlabel)
                          M         movwf   INDF
                          M         incf    FSR, F
                          M         movlw   (dlabel) >> 8
                          M         movwf   INDF
                          M       endif
                          M         incf    DEBUG_STACK, F
                          M     endif
                          M         L?CALL  _soltar
                          M         RST?RP
                          M     if ((PREV_BANK & 1) != 0)
                          M         bcf     STATUS, RP0
                          M     endif
                          M     if ((PREV_BANK & 2) != 0)
                          M         bcf     STATUS, RP1
                          M     endif
  00000000                M PREV_BANK = 0
                          M 
                          M     if ((_soltar) < 1)
                          M       if (CODE_SIZE >= 4)
                          M         if (((_soltar) & 800h) == 0)
                          M         bcf     PCLATH, 3
                          M         else
                          M         bsf     PCLATH, 3
                          M         endif
                          M       endif
                          M       if (CODE_SIZE == 8)
                          M         if (((_soltar) & 1000h) == 0)
                          M         bcf     PCLATH, 4
                          M         else
                          M         bsf     PCLATH, 4
                          M         endif
                          M       endif
                          M     else
MPASM  5.49                      SDCCON~1.ASM   7-1-2005  0:07:41         PAGE 207


LOC  OBJECT CODE     LINE SOURCE TEXT
  VALUE

                          M       if ((_soltar) > $)
                          M         if (CODE_SIZE >= 4)
                          M           if (((_soltar) & 800h) == 0)
0280   118A               M         bcf     PCLATH, 3
                          M           else
                          M         bsf     PCLATH, 3
                          M           endif
                          M         endif
                          M         if (CODE_SIZE == 8)
                          M           if (((_soltar) & 1000h) == 0)
0281   120A               M         bcf     PCLATH, 4
                          M           else
                          M         bsf     PCLATH, 4
                          M           endif
                          M         endif
                          M       else
                          M         if (CODE_SIZE >= 4)
                          M           if (((_soltar) & 1800h) == 0)
                          M         clrf    PCLATH
                          M           else
                          M             if (((_soltar) & 800h) == 0)
                          M         bcf     PCLATH, 3
                          M             else
                          M         bsf     PCLATH, 3
                          M             endif
                          M             if (CODE_SIZE == 8)
                          M               if (((_soltar) & 1000h) == 0)
                          M         bcf     PCLATH, 4
                          M               else
                          M         bsf     PCLATH, 4
                          M               endif
                          M             endif
                          M           endif
                          M         endif
                          M       endif
                          M     endif
                          M 
0282   2339               M         call    _soltar
0283                      M dlabel
                      00210         CMPGT?BCL       _tempMin, 012h, _grabar1
                          M     if ((012h) < 0)
                          M         L?GOTO  _grabar1
                          M     else
                          M       if ((012h) < 0ffh)
                          M         CLRWDT?
                          M     ifndef NO_CLRWDT
0283   0064               M         clrwdt
                          M     endif
                          M         MOVE?CA (012h) + 1
0284   3013               M         movlw   low ((012h) + 1)
                          M         CHK?RP  _tempMin
                          M     if (((_tempMin) & 180h) == 0)
                          M       if (PREV_BANK == 1)
MPASM  5.49                      SDCCON~1.ASM   7-1-2005  0:07:41         PAGE 208


LOC  OBJECT CODE     LINE SOURCE TEXT
  VALUE

                          M         bcf     STATUS, RP0
                          M       endif
                          M       if (PREV_BANK == 2)
                          M         bcf     STATUS, RP1
                          M       endif
                          M       if (PREV_BANK == 3)
                          M         bcf     STATUS, RP0
                          M         bcf     STATUS, RP1
                          M       endif
  00000000                M PREV_BANK = 0
                          M     endif
                          M 
                          M     if (((_tempMin) & 180h) == 80h)
                          M       if (PREV_BANK == 0)
                          M         bsf     STATUS, RP0
                          M       endif
                          M       if (PREV_BANK == 2)
                          M         bsf     STATUS, RP0
                          M         bcf     STATUS, RP1
                          M       endif
                          M       if (PREV_BANK == 3)
                          M         bcf     STATUS, RP1
                          M       endif
                          M PREV_BANK = 1
                          M     endif
                          M 
                          M     if (((_tempMin) & 180h) == 100h)
                          M       if (PREV_BANK == 0)
                          M         bsf     STATUS, RP1
                          M       endif
                          M       if (PREV_BANK == 1)
                          M         bcf     STATUS, RP0
                          M         bsf     STATUS, RP1
                          M       endif
                          M       if (PREV_BANK == 3)
                          M         bcf     STATUS, RP0
                          M       endif
                          M PREV_BANK = 2
                          M     endif
                          M 
                          M     if (((_tempMin) & 180h) == 180h)
                          M       if (PREV_BANK == 0)
                          M         bsf     STATUS, RP0
                          M         bsf     STATUS, RP1
                          M       endif
                          M       if (PREV_BANK == 1)
                          M         bsf     STATUS, RP1
                          M       endif
                          M       if (PREV_BANK == 2)
                          M         bsf     STATUS, RP0
                          M       endif
                          M PREV_BANK = 3
                          M     endif
MPASM  5.49                      SDCCON~1.ASM   7-1-2005  0:07:41         PAGE 209


LOC  OBJECT CODE     LINE SOURCE TEXT
  VALUE

0285   023B               M         subwf   _tempMin, W
                          M         BIT?GOTO 1, STATUS, C, _grabar1
                          M     if ($ == (_grabar1))
                          M         CLRWDT?
                          M     endif
                          M 
                          M     if (CODE_SIZE >= 4)
                          M       if (((_grabar1) & 800h) == 0)
0286   118A               M         bcf     PCLATH, 3
                          M       else
                          M         bsf     PCLATH, 3
                          M       endif
                          M     endif
                          M     if (CODE_SIZE == 8)
                          M       if (((_grabar1) & 1000h) == 0)
0287   120A               M         bcf     PCLATH, 4
                          M       else
                          M         bsf     PCLATH, 4
                          M       endif
                          M     endif
                          M 
                          M     if (((STATUS) & 0ff80h) != 0)
                          M         CHK?RP  STATUS
                          M         bcf     STATUS, DC
                          M       if ((1)      == 0)
                          M         btfss   STATUS, C
                          M       else
                          M         btfsc   STATUS, C
                          M       endif
                          M         bsf     STATUS, DC
                          M         RST?RP
                          M         btfsc   STATUS, DC
                          M     else
                          M         RST?RP
                          M     if ((PREV_BANK & 1) != 0)
                          M         bcf     STATUS, RP0
                          M     endif
                          M     if ((PREV_BANK & 2) != 0)
                          M         bcf     STATUS, RP1
                          M     endif
  00000000                M PREV_BANK = 0
                          M       if ((1)      == 0)
                          M         btfss   STATUS, C
                          M       else
0288   1803               M         btfsc   STATUS, C
                          M       endif
                          M     endif
                          M 
0289   29F6               M         goto    _grabar1
                          M       endif
                          M     endif
                      00211         ADD?BCB _tempMin, 001h, _tempMin
                          M     if ((_tempMin) == (_tempMin))
MPASM  5.49                      SDCCON~1.ASM   7-1-2005  0:07:41         PAGE 210


LOC  OBJECT CODE     LINE SOURCE TEXT
  VALUE

                          M       if ((001h) == 1)
                          M         CHK?RP  _tempMin
                          M     if (((_tempMin) & 180h) == 0)
                          M       if (PREV_BANK == 1)
                          M         bcf     STATUS, RP0
                          M       endif
                          M       if (PREV_BANK == 2)
                          M         bcf     STATUS, RP1
                          M       endif
                          M       if (PREV_BANK == 3)
                          M         bcf     STATUS, RP0
                          M         bcf     STATUS, RP1
                          M       endif
  00000000                M PREV_BANK = 0
                          M     endif
                          M 
                          M     if (((_tempMin) & 180h) == 80h)
                          M       if (PREV_BANK == 0)
                          M         bsf     STATUS, RP0
                          M       endif
                          M       if (PREV_BANK == 2)
                          M         bsf     STATUS, RP0
                          M         bcf     STATUS, RP1
                          M       endif
                          M       if (PREV_BANK == 3)
                          M         bcf     STATUS, RP1
                          M       endif
                          M PREV_BANK = 1
                          M     endif
                          M 
                          M     if (((_tempMin) & 180h) == 100h)
                          M       if (PREV_BANK == 0)
                          M         bsf     STATUS, RP1
                          M       endif
                          M       if (PREV_BANK == 1)
                          M         bcf     STATUS, RP0
                          M         bsf     STATUS, RP1
                          M       endif
                          M       if (PREV_BANK == 3)
                          M         bcf     STATUS, RP0
                          M       endif
                          M PREV_BANK = 2
                          M     endif
                          M 
                          M     if (((_tempMin) & 180h) == 180h)
                          M       if (PREV_BANK == 0)
                          M         bsf     STATUS, RP0
                          M         bsf     STATUS, RP1
                          M       endif
                          M       if (PREV_BANK == 1)
                          M         bsf     STATUS, RP1
                          M       endif
                          M       if (PREV_BANK == 2)
MPASM  5.49                      SDCCON~1.ASM   7-1-2005  0:07:41         PAGE 211


LOC  OBJECT CODE     LINE SOURCE TEXT
  VALUE

                          M         bsf     STATUS, RP0
                          M       endif
                          M PREV_BANK = 3
                          M     endif
028A   0ABB               M         incf    _tempMin, F
                          M       else
                          M         movlw   001h
                          M         CHK?RP  _tempMin
                          M         addwf   _tempMin, F
                          M       endif
                          M     else
                          M       if ((001h) == 1)
                          M         CHK?RP  _tempMin
                          M         incf    _tempMin, W
                          M         MOVE?AB _tempMin
                          M       else
                          M         movlw   001h
                          M         CHK?RP  _tempMin
                          M         addwf   _tempMin, W
                          M         MOVE?AB _tempMin
                          M       endif
                          M     endif
                      00212         GOTO?L  _grabar1
                          M         L?GOTO  _grabar1
                          M     if ($ == (_grabar1))
                          M         CLRWDT?
                          M     endif
                          M 
                          M         RST?RP
                          M     if ((PREV_BANK & 1) != 0)
                          M         bcf     STATUS, RP0
                          M     endif
                          M     if ((PREV_BANK & 2) != 0)
                          M         bcf     STATUS, RP1
                          M     endif
  00000000                M PREV_BANK = 0
                          M 
                          M     if ((_grabar1) < 1)
                          M       if (CODE_SIZE >= 4)
                          M         if (((_grabar1) & 800h) == 0)
                          M         bcf     PCLATH, 3
                          M         else
                          M         bsf     PCLATH, 3
                          M         endif
                          M       endif
                          M       if (CODE_SIZE == 8)
                          M         if (((_grabar1) & 1000h) == 0)
                          M         bcf     PCLATH, 4
                          M         else
                          M         bsf     PCLATH, 4
                          M         endif
                          M       endif
                          M     else
MPASM  5.49                      SDCCON~1.ASM   7-1-2005  0:07:41         PAGE 212


LOC  OBJECT CODE     LINE SOURCE TEXT
  VALUE

                          M       if ((_grabar1) > $)
                          M         if (CODE_SIZE >= 4)
                          M           if (((_grabar1) & 800h) == 0)
                          M         bcf     PCLATH, 3
                          M           else
                          M         bsf     PCLATH, 3
                          M           endif
                          M         endif
                          M         if (CODE_SIZE == 8)
                          M           if (((_grabar1) & 1000h) == 0)
                          M         bcf     PCLATH, 4
                          M           else
                          M         bsf     PCLATH, 4
                          M           endif
                          M         endif
                          M       else
                          M         if (CODE_SIZE >= 4)
                          M           if (((_grabar1) & 1800h) == 0)
028B   018A               M         clrf    PCLATH
                          M           else
                          M             if (((_grabar1) & 800h) == 0)
                          M         bcf     PCLATH, 3
                          M             else
                          M         bsf     PCLATH, 3
                          M             endif
                          M             if (CODE_SIZE == 8)
                          M               if (((_grabar1) & 1000h) == 0)
                          M         bcf     PCLATH, 4
                          M               else
                          M         bsf     PCLATH, 4
                          M               endif
                          M             endif
                          M           endif
                          M         endif
                          M       endif
                          M     endif
                          M 
028C   29F6               M         goto    _grabar1
                      00213 
                      00214         LABEL?L _grabarA        
                          M         RST?RP
                          M     if ((PREV_BANK & 1) != 0)
                          M         bcf     STATUS, RP0
                          M     endif
                          M     if ((PREV_BANK & 2) != 0)
                          M         bcf     STATUS, RP1
                          M     endif
  00000000                M PREV_BANK = 0
                          M     ifdef PM_USED
                          M         LALL
                          M _grabarA
                          M         XALL
                          M     else
MPASM  5.49                      SDCCON~1.ASM   7-1-2005  0:07:41         PAGE 213


LOC  OBJECT CODE     LINE SOURCE TEXT
  VALUE

028D                      M _grabarA
                          M     endif
                      00215         GOSUB?L _soltar
  0000                    M     local dlabel
                          M     ifdef DEBUG_STACK
                          M         CHK?RP  DEBUG_STACK
                          M       ifdef DEBUG_STACK_ADDR
                          M         bcf     STATUS, C
                          M         rlf     DEBUG_STACK, W
                          M         addlw   DEBUG_STACK_ADDR
                          M         movwf   FSR
                          M         movlw   low (dlabel)
                          M         movwf   INDF
                          M         incf    FSR, F
                          M         movlw   (dlabel) >> 8
                          M         movwf   INDF
                          M       endif
                          M         incf    DEBUG_STACK, F
                          M     endif
                          M         L?CALL  _soltar
                          M         RST?RP
                          M     if ((PREV_BANK & 1) != 0)
                          M         bcf     STATUS, RP0
                          M     endif
                          M     if ((PREV_BANK & 2) != 0)
                          M         bcf     STATUS, RP1
                          M     endif
  00000000                M PREV_BANK = 0
                          M 
                          M     if ((_soltar) < 1)
                          M       if (CODE_SIZE >= 4)
                          M         if (((_soltar) & 800h) == 0)
                          M         bcf     PCLATH, 3
                          M         else
                          M         bsf     PCLATH, 3
                          M         endif
                          M       endif
                          M       if (CODE_SIZE == 8)
                          M         if (((_soltar) & 1000h) == 0)
                          M         bcf     PCLATH, 4
                          M         else
                          M         bsf     PCLATH, 4
                          M         endif
                          M       endif
                          M     else
                          M       if ((_soltar) > $)
                          M         if (CODE_SIZE >= 4)
                          M           if (((_soltar) & 800h) == 0)
028D   118A               M         bcf     PCLATH, 3
                          M           else
                          M         bsf     PCLATH, 3
                          M           endif
                          M         endif
MPASM  5.49                      SDCCON~1.ASM   7-1-2005  0:07:41         PAGE 214


LOC  OBJECT CODE     LINE SOURCE TEXT
  VALUE

                          M         if (CODE_SIZE == 8)
                          M           if (((_soltar) & 1000h) == 0)
028E   120A               M         bcf     PCLATH, 4
                          M           else
                          M         bsf     PCLATH, 4
                          M           endif
                          M         endif
                          M       else
                          M         if (CODE_SIZE >= 4)
                          M           if (((_soltar) & 1800h) == 0)
                          M         clrf    PCLATH
                          M           else
                          M             if (((_soltar) & 800h) == 0)
                          M         bcf     PCLATH, 3
                          M             else
                          M         bsf     PCLATH, 3
                          M             endif
                          M             if (CODE_SIZE == 8)
                          M               if (((_soltar) & 1000h) == 0)
                          M         bcf     PCLATH, 4
                          M               else
                          M         bsf     PCLATH, 4
                          M               endif
                          M             endif
                          M           endif
                          M         endif
                          M       endif
                          M     endif
                          M 
028F   2339               M         call    _soltar
0290                      M dlabel
                      00216         WRITE?CB        000h, _tempMin
                          M         MOVE?CB 000h, EEADR
                          M         CHK?RP  EEADR
                          M     if (((EEADR) & 180h) == 0)
                          M       if (PREV_BANK == 1)
                          M         bcf     STATUS, RP0
                          M       endif
                          M       if (PREV_BANK == 2)
                          M         bcf     STATUS, RP1
                          M       endif
                          M       if (PREV_BANK == 3)
                          M         bcf     STATUS, RP0
                          M         bcf     STATUS, RP1
                          M       endif
                          M PREV_BANK = 0
                          M     endif
                          M 
                          M     if (((EEADR) & 180h) == 80h)
                          M       if (PREV_BANK == 0)
                          M         bsf     STATUS, RP0
                          M       endif
                          M       if (PREV_BANK == 2)
MPASM  5.49                      SDCCON~1.ASM   7-1-2005  0:07:41         PAGE 215


LOC  OBJECT CODE     LINE SOURCE TEXT
  VALUE

                          M         bsf     STATUS, RP0
                          M         bcf     STATUS, RP1
                          M       endif
                          M       if (PREV_BANK == 3)
                          M         bcf     STATUS, RP1
                          M       endif
                          M PREV_BANK = 1
                          M     endif
                          M 
                          M     if (((EEADR) & 180h) == 100h)
                          M       if (PREV_BANK == 0)
0290   1703               M         bsf     STATUS, RP1
                          M       endif
                          M       if (PREV_BANK == 1)
                          M         bcf     STATUS, RP0
                          M         bsf     STATUS, RP1
                          M       endif
                          M       if (PREV_BANK == 3)
                          M         bcf     STATUS, RP0
                          M       endif
  00000002                M PREV_BANK = 2
                          M     endif
                          M 
                          M     if (((EEADR) & 180h) == 180h)
                          M       if (PREV_BANK == 0)
                          M         bsf     STATUS, RP0
                          M         bsf     STATUS, RP1
                          M       endif
                          M       if (PREV_BANK == 1)
                          M         bsf     STATUS, RP1
                          M       endif
                          M       if (PREV_BANK == 2)
                          M         bsf     STATUS, RP0
                          M       endif
                          M PREV_BANK = 3
                          M     endif
                          M     if (low (000h) == 0)
0291   018D               M         clrf    EEADR
                          M     else
                          M         movlw   low (000h)
                          M         movwf   EEADR
                          M     endif
                          M         MOVE?BA _tempMin
                          M         CHK?RP  _tempMin
                          M     if (((_tempMin) & 180h) == 0)
                          M       if (PREV_BANK == 1)
                          M         bcf     STATUS, RP0
                          M       endif
                          M       if (PREV_BANK == 2)
0292   1303               M         bcf     STATUS, RP1
                          M       endif
                          M       if (PREV_BANK == 3)
                          M         bcf     STATUS, RP0
MPASM  5.49                      SDCCON~1.ASM   7-1-2005  0:07:41         PAGE 216


LOC  OBJECT CODE     LINE SOURCE TEXT
  VALUE

                          M         bcf     STATUS, RP1
                          M       endif
  00000000                M PREV_BANK = 0
                          M     endif
                          M 
                          M     if (((_tempMin) & 180h) == 80h)
                          M       if (PREV_BANK == 0)
                          M         bsf     STATUS, RP0
                          M       endif
                          M       if (PREV_BANK == 2)
                          M         bsf     STATUS, RP0
                          M         bcf     STATUS, RP1
                          M       endif
                          M       if (PREV_BANK == 3)
                          M         bcf     STATUS, RP1
                          M       endif
                          M PREV_BANK = 1
                          M     endif
                          M 
                          M     if (((_tempMin) & 180h) == 100h)
                          M       if (PREV_BANK == 0)
                          M         bsf     STATUS, RP1
                          M       endif
                          M       if (PREV_BANK == 1)
                          M         bcf     STATUS, RP0
                          M         bsf     STATUS, RP1
                          M       endif
                          M       if (PREV_BANK == 3)
                          M         bcf     STATUS, RP0
                          M       endif
                          M PREV_BANK = 2
                          M     endif
                          M 
                          M     if (((_tempMin) & 180h) == 180h)
                          M       if (PREV_BANK == 0)
                          M         bsf     STATUS, RP0
                          M         bsf     STATUS, RP1
                          M       endif
                          M       if (PREV_BANK == 1)
                          M         bsf     STATUS, RP1
                          M       endif
                          M       if (PREV_BANK == 2)
                          M         bsf     STATUS, RP0
                          M       endif
                          M PREV_BANK = 3
                          M     endif
0293   083B               M         movf    _tempMin, W
                          M         L?CALL  WRITE
                          M         RST?RP
                          M     if ((PREV_BANK & 1) != 0)
                          M         bcf     STATUS, RP0
                          M     endif
                          M     if ((PREV_BANK & 2) != 0)
MPASM  5.49                      SDCCON~1.ASM   7-1-2005  0:07:41         PAGE 217


LOC  OBJECT CODE     LINE SOURCE TEXT
  VALUE

                          M         bcf     STATUS, RP1
                          M     endif
  00000000                M PREV_BANK = 0
                          M 
                          M     if ((WRITE) < 1)
                          M       if (CODE_SIZE >= 4)
                          M         if (((WRITE) & 800h) == 0)
                          M         bcf     PCLATH, 3
                          M         else
                          M         bsf     PCLATH, 3
                          M         endif
                          M       endif
                          M       if (CODE_SIZE == 8)
                          M         if (((WRITE) & 1000h) == 0)
                          M         bcf     PCLATH, 4
                          M         else
                          M         bsf     PCLATH, 4
                          M         endif
                          M       endif
                          M     else
                          M       if ((WRITE) > $)
                          M         if (CODE_SIZE >= 4)
                          M           if (((WRITE) & 800h) == 0)
                          M         bcf     PCLATH, 3
                          M           else
                          M         bsf     PCLATH, 3
                          M           endif
                          M         endif
                          M         if (CODE_SIZE == 8)
                          M           if (((WRITE) & 1000h) == 0)
                          M         bcf     PCLATH, 4
                          M           else
                          M         bsf     PCLATH, 4
                          M           endif
                          M         endif
                          M       else
                          M         if (CODE_SIZE >= 4)
                          M           if (((WRITE) & 1800h) == 0)
0294   018A               M         clrf    PCLATH
                          M           else
                          M             if (((WRITE) & 800h) == 0)
                          M         bcf     PCLATH, 3
                          M             else
                          M         bsf     PCLATH, 3
                          M             endif
                          M             if (CODE_SIZE == 8)
                          M               if (((WRITE) & 1000h) == 0)
                          M         bcf     PCLATH, 4
                          M               else
                          M         bsf     PCLATH, 4
                          M               endif
                          M             endif
                          M           endif
MPASM  5.49                      SDCCON~1.ASM   7-1-2005  0:07:41         PAGE 218


LOC  OBJECT CODE     LINE SOURCE TEXT
  VALUE

                          M         endif
                          M       endif
                          M     endif
                          M 
0295   209B               M         call    WRITE
                      00217 
                      00218         LABEL?L _grabar2        
                          M         RST?RP
                          M     if ((PREV_BANK & 1) != 0)
                          M         bcf     STATUS, RP0
                          M     endif
                          M     if ((PREV_BANK & 2) != 0)
                          M         bcf     STATUS, RP1
                          M     endif
  00000000                M PREV_BANK = 0
                          M     ifdef PM_USED
                          M         LALL
                          M _grabar2
                          M         XALL
                          M     else
0296                      M _grabar2
                          M     endif
                      00219         LCDOUT?C        0FEh
0296   30FE               M         movlw   0FEh
                          M         L?CALL  LCDOUT
                          M         RST?RP
                          M     if ((PREV_BANK & 1) != 0)
                          M         bcf     STATUS, RP0
                          M     endif
                          M     if ((PREV_BANK & 2) != 0)
                          M         bcf     STATUS, RP1
                          M     endif
  00000000                M PREV_BANK = 0
                          M 
                          M     if ((LCDOUT) < 1)
                          M       if (CODE_SIZE >= 4)
                          M         if (((LCDOUT) & 800h) == 0)
                          M         bcf     PCLATH, 3
                          M         else
                          M         bsf     PCLATH, 3
                          M         endif
                          M       endif
                          M       if (CODE_SIZE == 8)
                          M         if (((LCDOUT) & 1000h) == 0)
                          M         bcf     PCLATH, 4
                          M         else
                          M         bsf     PCLATH, 4
                          M         endif
                          M       endif
                          M     else
                          M       if ((LCDOUT) > $)
                          M         if (CODE_SIZE >= 4)
                          M           if (((LCDOUT) & 800h) == 0)
MPASM  5.49                      SDCCON~1.ASM   7-1-2005  0:07:41         PAGE 219


LOC  OBJECT CODE     LINE SOURCE TEXT
  VALUE

                          M         bcf     PCLATH, 3
                          M           else
                          M         bsf     PCLATH, 3
                          M           endif
                          M         endif
                          M         if (CODE_SIZE == 8)
                          M           if (((LCDOUT) & 1000h) == 0)
                          M         bcf     PCLATH, 4
                          M           else
                          M         bsf     PCLATH, 4
                          M           endif
                          M         endif
                          M       else
                          M         if (CODE_SIZE >= 4)
                          M           if (((LCDOUT) & 1800h) == 0)
0297   018A               M         clrf    PCLATH
                          M           else
                          M             if (((LCDOUT) & 800h) == 0)
                          M         bcf     PCLATH, 3
                          M             else
                          M         bsf     PCLATH, 3
                          M             endif
                          M             if (CODE_SIZE == 8)
                          M               if (((LCDOUT) & 1000h) == 0)
                          M         bcf     PCLATH, 4
                          M               else
                          M         bsf     PCLATH, 4
                          M               endif
                          M             endif
                          M           endif
                          M         endif
                          M       endif
                          M     endif
                          M 
0298   2003               M         call    LCDOUT
                      00220         LCDOUT?C        001h
0299   3001               M         movlw   001h
                          M         L?CALL  LCDOUT
                          M         RST?RP
                          M     if ((PREV_BANK & 1) != 0)
                          M         bcf     STATUS, RP0
                          M     endif
                          M     if ((PREV_BANK & 2) != 0)
                          M         bcf     STATUS, RP1
                          M     endif
  00000000                M PREV_BANK = 0
                          M 
                          M     if ((LCDOUT) < 1)
                          M       if (CODE_SIZE >= 4)
                          M         if (((LCDOUT) & 800h) == 0)
                          M         bcf     PCLATH, 3
                          M         else
                          M         bsf     PCLATH, 3
MPASM  5.49                      SDCCON~1.ASM   7-1-2005  0:07:41         PAGE 220


LOC  OBJECT CODE     LINE SOURCE TEXT
  VALUE

                          M         endif
                          M       endif
                          M       if (CODE_SIZE == 8)
                          M         if (((LCDOUT) & 1000h) == 0)
                          M         bcf     PCLATH, 4
                          M         else
                          M         bsf     PCLATH, 4
                          M         endif
                          M       endif
                          M     else
                          M       if ((LCDOUT) > $)
                          M         if (CODE_SIZE >= 4)
                          M           if (((LCDOUT) & 800h) == 0)
                          M         bcf     PCLATH, 3
                          M           else
                          M         bsf     PCLATH, 3
                          M           endif
                          M         endif
                          M         if (CODE_SIZE == 8)
                          M           if (((LCDOUT) & 1000h) == 0)
                          M         bcf     PCLATH, 4
                          M           else
                          M         bsf     PCLATH, 4
                          M           endif
                          M         endif
                          M       else
                          M         if (CODE_SIZE >= 4)
                          M           if (((LCDOUT) & 1800h) == 0)
029A   018A               M         clrf    PCLATH
                          M           else
                          M             if (((LCDOUT) & 800h) == 0)
                          M         bcf     PCLATH, 3
                          M             else
                          M         bsf     PCLATH, 3
                          M             endif
                          M             if (CODE_SIZE == 8)
                          M               if (((LCDOUT) & 1000h) == 0)
                          M         bcf     PCLATH, 4
                          M               else
                          M         bsf     PCLATH, 4
                          M               endif
                          M             endif
                          M           endif
                          M         endif
                          M       endif
                          M     endif
                          M 
029B   2003               M         call    LCDOUT
                      00221         LCDOUT?C        0FEh
029C   30FE               M         movlw   0FEh
                          M         L?CALL  LCDOUT
                          M         RST?RP
                          M     if ((PREV_BANK & 1) != 0)
MPASM  5.49                      SDCCON~1.ASM   7-1-2005  0:07:41         PAGE 221


LOC  OBJECT CODE     LINE SOURCE TEXT
  VALUE

                          M         bcf     STATUS, RP0
                          M     endif
                          M     if ((PREV_BANK & 2) != 0)
                          M         bcf     STATUS, RP1
                          M     endif
  00000000                M PREV_BANK = 0
                          M 
                          M     if ((LCDOUT) < 1)
                          M       if (CODE_SIZE >= 4)
                          M         if (((LCDOUT) & 800h) == 0)
                          M         bcf     PCLATH, 3
                          M         else
                          M         bsf     PCLATH, 3
                          M         endif
                          M       endif
                          M       if (CODE_SIZE == 8)
                          M         if (((LCDOUT) & 1000h) == 0)
                          M         bcf     PCLATH, 4
                          M         else
                          M         bsf     PCLATH, 4
                          M         endif
                          M       endif
                          M     else
                          M       if ((LCDOUT) > $)
                          M         if (CODE_SIZE >= 4)
                          M           if (((LCDOUT) & 800h) == 0)
                          M         bcf     PCLATH, 3
                          M           else
                          M         bsf     PCLATH, 3
                          M           endif
                          M         endif
                          M         if (CODE_SIZE == 8)
                          M           if (((LCDOUT) & 1000h) == 0)
                          M         bcf     PCLATH, 4
                          M           else
                          M         bsf     PCLATH, 4
                          M           endif
                          M         endif
                          M       else
                          M         if (CODE_SIZE >= 4)
                          M           if (((LCDOUT) & 1800h) == 0)
029D   018A               M         clrf    PCLATH
                          M           else
                          M             if (((LCDOUT) & 800h) == 0)
                          M         bcf     PCLATH, 3
                          M             else
                          M         bsf     PCLATH, 3
                          M             endif
                          M             if (CODE_SIZE == 8)
                          M               if (((LCDOUT) & 1000h) == 0)
                          M         bcf     PCLATH, 4
                          M               else
                          M         bsf     PCLATH, 4
MPASM  5.49                      SDCCON~1.ASM   7-1-2005  0:07:41         PAGE 222


LOC  OBJECT CODE     LINE SOURCE TEXT
  VALUE

                          M               endif
                          M             endif
                          M           endif
                          M         endif
                          M       endif
                          M     endif
                          M 
029E   2003               M         call    LCDOUT
                      00222         LCDOUT?C        002h
029F   3002               M         movlw   002h
                          M         L?CALL  LCDOUT
                          M         RST?RP
                          M     if ((PREV_BANK & 1) != 0)
                          M         bcf     STATUS, RP0
                          M     endif
                          M     if ((PREV_BANK & 2) != 0)
                          M         bcf     STATUS, RP1
                          M     endif
  00000000                M PREV_BANK = 0
                          M 
                          M     if ((LCDOUT) < 1)
                          M       if (CODE_SIZE >= 4)
                          M         if (((LCDOUT) & 800h) == 0)
                          M         bcf     PCLATH, 3
                          M         else
                          M         bsf     PCLATH, 3
                          M         endif
                          M       endif
                          M       if (CODE_SIZE == 8)
                          M         if (((LCDOUT) & 1000h) == 0)
                          M         bcf     PCLATH, 4
                          M         else
                          M         bsf     PCLATH, 4
                          M         endif
                          M       endif
                          M     else
                          M       if ((LCDOUT) > $)
                          M         if (CODE_SIZE >= 4)
                          M           if (((LCDOUT) & 800h) == 0)
                          M         bcf     PCLATH, 3
                          M           else
                          M         bsf     PCLATH, 3
                          M           endif
                          M         endif
                          M         if (CODE_SIZE == 8)
                          M           if (((LCDOUT) & 1000h) == 0)
                          M         bcf     PCLATH, 4
                          M           else
                          M         bsf     PCLATH, 4
                          M           endif
                          M         endif
                          M       else
                          M         if (CODE_SIZE >= 4)
MPASM  5.49                      SDCCON~1.ASM   7-1-2005  0:07:41         PAGE 223


LOC  OBJECT CODE     LINE SOURCE TEXT
  VALUE

                          M           if (((LCDOUT) & 1800h) == 0)
02A0   018A               M         clrf    PCLATH
                          M           else
                          M             if (((LCDOUT) & 800h) == 0)
                          M         bcf     PCLATH, 3
                          M             else
                          M         bsf     PCLATH, 3
                          M             endif
                          M             if (CODE_SIZE == 8)
                          M               if (((LCDOUT) & 1000h) == 0)
                          M         bcf     PCLATH, 4
                          M               else
                          M         bsf     PCLATH, 4
                          M               endif
                          M             endif
                          M           endif
                          M         endif
                          M       endif
                          M     endif
                          M 
02A1   2003               M         call    LCDOUT
                      00223         LCDOUT?C        050h
02A2   3050               M         movlw   050h
                          M         L?CALL  LCDOUT
                          M         RST?RP
                          M     if ((PREV_BANK & 1) != 0)
                          M         bcf     STATUS, RP0
                          M     endif
                          M     if ((PREV_BANK & 2) != 0)
                          M         bcf     STATUS, RP1
                          M     endif
  00000000                M PREV_BANK = 0
                          M 
                          M     if ((LCDOUT) < 1)
                          M       if (CODE_SIZE >= 4)
                          M         if (((LCDOUT) & 800h) == 0)
                          M         bcf     PCLATH, 3
                          M         else
                          M         bsf     PCLATH, 3
                          M         endif
                          M       endif
                          M       if (CODE_SIZE == 8)
                          M         if (((LCDOUT) & 1000h) == 0)
                          M         bcf     PCLATH, 4
                          M         else
                          M         bsf     PCLATH, 4
                          M         endif
                          M       endif
                          M     else
                          M       if ((LCDOUT) > $)
                          M         if (CODE_SIZE >= 4)
                          M           if (((LCDOUT) & 800h) == 0)
                          M         bcf     PCLATH, 3
MPASM  5.49                      SDCCON~1.ASM   7-1-2005  0:07:41         PAGE 224


LOC  OBJECT CODE     LINE SOURCE TEXT
  VALUE

                          M           else
                          M         bsf     PCLATH, 3
                          M           endif
                          M         endif
                          M         if (CODE_SIZE == 8)
                          M           if (((LCDOUT) & 1000h) == 0)
                          M         bcf     PCLATH, 4
                          M           else
                          M         bsf     PCLATH, 4
                          M           endif
                          M         endif
                          M       else
                          M         if (CODE_SIZE >= 4)
                          M           if (((LCDOUT) & 1800h) == 0)
02A3   018A               M         clrf    PCLATH
                          M           else
                          M             if (((LCDOUT) & 800h) == 0)
                          M         bcf     PCLATH, 3
                          M             else
                          M         bsf     PCLATH, 3
                          M             endif
                          M             if (CODE_SIZE == 8)
                          M               if (((LCDOUT) & 1000h) == 0)
                          M         bcf     PCLATH, 4
                          M               else
                          M         bsf     PCLATH, 4
                          M               endif
                          M             endif
                          M           endif
                          M         endif
                          M       endif
                          M     endif
                          M 
02A4   2003               M         call    LCDOUT
                      00224         LCDOUT?C        052h
02A5   3052               M         movlw   052h
                          M         L?CALL  LCDOUT
                          M         RST?RP
                          M     if ((PREV_BANK & 1) != 0)
                          M         bcf     STATUS, RP0
                          M     endif
                          M     if ((PREV_BANK & 2) != 0)
                          M         bcf     STATUS, RP1
                          M     endif
  00000000                M PREV_BANK = 0
                          M 
                          M     if ((LCDOUT) < 1)
                          M       if (CODE_SIZE >= 4)
                          M         if (((LCDOUT) & 800h) == 0)
                          M         bcf     PCLATH, 3
                          M         else
                          M         bsf     PCLATH, 3
                          M         endif
MPASM  5.49                      SDCCON~1.ASM   7-1-2005  0:07:41         PAGE 225


LOC  OBJECT CODE     LINE SOURCE TEXT
  VALUE

                          M       endif
                          M       if (CODE_SIZE == 8)
                          M         if (((LCDOUT) & 1000h) == 0)
                          M         bcf     PCLATH, 4
                          M         else
                          M         bsf     PCLATH, 4
                          M         endif
                          M       endif
                          M     else
                          M       if ((LCDOUT) > $)
                          M         if (CODE_SIZE >= 4)
                          M           if (((LCDOUT) & 800h) == 0)
                          M         bcf     PCLATH, 3
                          M           else
                          M         bsf     PCLATH, 3
                          M           endif
                          M         endif
                          M         if (CODE_SIZE == 8)
                          M           if (((LCDOUT) & 1000h) == 0)
                          M         bcf     PCLATH, 4
                          M           else
                          M         bsf     PCLATH, 4
                          M           endif
                          M         endif
                          M       else
                          M         if (CODE_SIZE >= 4)
                          M           if (((LCDOUT) & 1800h) == 0)
02A6   018A               M         clrf    PCLATH
                          M           else
                          M             if (((LCDOUT) & 800h) == 0)
                          M         bcf     PCLATH, 3
                          M             else
                          M         bsf     PCLATH, 3
                          M             endif
                          M             if (CODE_SIZE == 8)
                          M               if (((LCDOUT) & 1000h) == 0)
                          M         bcf     PCLATH, 4
                          M               else
                          M         bsf     PCLATH, 4
                          M               endif
                          M             endif
                          M           endif
                          M         endif
                          M       endif
                          M     endif
                          M 
02A7   2003               M         call    LCDOUT
                      00225         LCDOUT?C        04Fh
02A8   304F               M         movlw   04Fh
                          M         L?CALL  LCDOUT
                          M         RST?RP
                          M     if ((PREV_BANK & 1) != 0)
                          M         bcf     STATUS, RP0
MPASM  5.49                      SDCCON~1.ASM   7-1-2005  0:07:41         PAGE 226


LOC  OBJECT CODE     LINE SOURCE TEXT
  VALUE

                          M     endif
                          M     if ((PREV_BANK & 2) != 0)
                          M         bcf     STATUS, RP1
                          M     endif
  00000000                M PREV_BANK = 0
                          M 
                          M     if ((LCDOUT) < 1)
                          M       if (CODE_SIZE >= 4)
                          M         if (((LCDOUT) & 800h) == 0)
                          M         bcf     PCLATH, 3
                          M         else
                          M         bsf     PCLATH, 3
                          M         endif
                          M       endif
                          M       if (CODE_SIZE == 8)
                          M         if (((LCDOUT) & 1000h) == 0)
                          M         bcf     PCLATH, 4
                          M         else
                          M         bsf     PCLATH, 4
                          M         endif
                          M       endif
                          M     else
                          M       if ((LCDOUT) > $)
                          M         if (CODE_SIZE >= 4)
                          M           if (((LCDOUT) & 800h) == 0)
                          M         bcf     PCLATH, 3
                          M           else
                          M         bsf     PCLATH, 3
                          M           endif
                          M         endif
                          M         if (CODE_SIZE == 8)
                          M           if (((LCDOUT) & 1000h) == 0)
                          M         bcf     PCLATH, 4
                          M           else
                          M         bsf     PCLATH, 4
                          M           endif
                          M         endif
                          M       else
                          M         if (CODE_SIZE >= 4)
                          M           if (((LCDOUT) & 1800h) == 0)
02A9   018A               M         clrf    PCLATH
                          M           else
                          M             if (((LCDOUT) & 800h) == 0)
                          M         bcf     PCLATH, 3
                          M             else
                          M         bsf     PCLATH, 3
                          M             endif
                          M             if (CODE_SIZE == 8)
                          M               if (((LCDOUT) & 1000h) == 0)
                          M         bcf     PCLATH, 4
                          M               else
                          M         bsf     PCLATH, 4
                          M               endif
MPASM  5.49                      SDCCON~1.ASM   7-1-2005  0:07:41         PAGE 227


LOC  OBJECT CODE     LINE SOURCE TEXT
  VALUE

                          M             endif
                          M           endif
                          M         endif
                          M       endif
                          M     endif
                          M 
02AA   2003               M         call    LCDOUT
                      00226         LCDOUT?C        047h
02AB   3047               M         movlw   047h
                          M         L?CALL  LCDOUT
                          M         RST?RP
                          M     if ((PREV_BANK & 1) != 0)
                          M         bcf     STATUS, RP0
                          M     endif
                          M     if ((PREV_BANK & 2) != 0)
                          M         bcf     STATUS, RP1
                          M     endif
  00000000                M PREV_BANK = 0
                          M 
                          M     if ((LCDOUT) < 1)
                          M       if (CODE_SIZE >= 4)
                          M         if (((LCDOUT) & 800h) == 0)
                          M         bcf     PCLATH, 3
                          M         else
                          M         bsf     PCLATH, 3
                          M         endif
                          M       endif
                          M       if (CODE_SIZE == 8)
                          M         if (((LCDOUT) & 1000h) == 0)
                          M         bcf     PCLATH, 4
                          M         else
                          M         bsf     PCLATH, 4
                          M         endif
                          M       endif
                          M     else
                          M       if ((LCDOUT) > $)
                          M         if (CODE_SIZE >= 4)
                          M           if (((LCDOUT) & 800h) == 0)
                          M         bcf     PCLATH, 3
                          M           else
                          M         bsf     PCLATH, 3
                          M           endif
                          M         endif
                          M         if (CODE_SIZE == 8)
                          M           if (((LCDOUT) & 1000h) == 0)
                          M         bcf     PCLATH, 4
                          M           else
                          M         bsf     PCLATH, 4
                          M           endif
                          M         endif
                          M       else
                          M         if (CODE_SIZE >= 4)
                          M           if (((LCDOUT) & 1800h) == 0)
MPASM  5.49                      SDCCON~1.ASM   7-1-2005  0:07:41         PAGE 228


LOC  OBJECT CODE     LINE SOURCE TEXT
  VALUE

02AC   018A               M         clrf    PCLATH
                          M           else
                          M             if (((LCDOUT) & 800h) == 0)
                          M         bcf     PCLATH, 3
                          M             else
                          M         bsf     PCLATH, 3
                          M             endif
                          M             if (CODE_SIZE == 8)
                          M               if (((LCDOUT) & 1000h) == 0)
                          M         bcf     PCLATH, 4
                          M               else
                          M         bsf     PCLATH, 4
                          M               endif
                          M             endif
                          M           endif
                          M         endif
                          M       endif
                          M     endif
                          M 
02AD   2003               M         call    LCDOUT
                      00227         LCDOUT?C        052h
02AE   3052               M         movlw   052h
                          M         L?CALL  LCDOUT
                          M         RST?RP
                          M     if ((PREV_BANK & 1) != 0)
                          M         bcf     STATUS, RP0
                          M     endif
                          M     if ((PREV_BANK & 2) != 0)
                          M         bcf     STATUS, RP1
                          M     endif
  00000000                M PREV_BANK = 0
                          M 
                          M     if ((LCDOUT) < 1)
                          M       if (CODE_SIZE >= 4)
                          M         if (((LCDOUT) & 800h) == 0)
                          M         bcf     PCLATH, 3
                          M         else
                          M         bsf     PCLATH, 3
                          M         endif
                          M       endif
                          M       if (CODE_SIZE == 8)
                          M         if (((LCDOUT) & 1000h) == 0)
                          M         bcf     PCLATH, 4
                          M         else
                          M         bsf     PCLATH, 4
                          M         endif
                          M       endif
                          M     else
                          M       if ((LCDOUT) > $)
                          M         if (CODE_SIZE >= 4)
                          M           if (((LCDOUT) & 800h) == 0)
                          M         bcf     PCLATH, 3
                          M           else
MPASM  5.49                      SDCCON~1.ASM   7-1-2005  0:07:41         PAGE 229


LOC  OBJECT CODE     LINE SOURCE TEXT
  VALUE

                          M         bsf     PCLATH, 3
                          M           endif
                          M         endif
                          M         if (CODE_SIZE == 8)
                          M           if (((LCDOUT) & 1000h) == 0)
                          M         bcf     PCLATH, 4
                          M           else
                          M         bsf     PCLATH, 4
                          M           endif
                          M         endif
                          M       else
                          M         if (CODE_SIZE >= 4)
                          M           if (((LCDOUT) & 1800h) == 0)
02AF   018A               M         clrf    PCLATH
                          M           else
                          M             if (((LCDOUT) & 800h) == 0)
                          M         bcf     PCLATH, 3
                          M             else
                          M         bsf     PCLATH, 3
                          M             endif
                          M             if (CODE_SIZE == 8)
                          M               if (((LCDOUT) & 1000h) == 0)
                          M         bcf     PCLATH, 4
                          M               else
                          M         bsf     PCLATH, 4
                          M               endif
                          M             endif
                          M           endif
                          M         endif
                          M       endif
                          M     endif
                          M 
02B0   2003               M         call    LCDOUT
                      00228         LCDOUT?C        041h
02B1   3041               M         movlw   041h
                          M         L?CALL  LCDOUT
                          M         RST?RP
                          M     if ((PREV_BANK & 1) != 0)
                          M         bcf     STATUS, RP0
                          M     endif
                          M     if ((PREV_BANK & 2) != 0)
                          M         bcf     STATUS, RP1
                          M     endif
  00000000                M PREV_BANK = 0
                          M 
                          M     if ((LCDOUT) < 1)
                          M       if (CODE_SIZE >= 4)
                          M         if (((LCDOUT) & 800h) == 0)
                          M         bcf     PCLATH, 3
                          M         else
                          M         bsf     PCLATH, 3
                          M         endif
                          M       endif
MPASM  5.49                      SDCCON~1.ASM   7-1-2005  0:07:41         PAGE 230


LOC  OBJECT CODE     LINE SOURCE TEXT
  VALUE

                          M       if (CODE_SIZE == 8)
                          M         if (((LCDOUT) & 1000h) == 0)
                          M         bcf     PCLATH, 4
                          M         else
                          M         bsf     PCLATH, 4
                          M         endif
                          M       endif
                          M     else
                          M       if ((LCDOUT) > $)
                          M         if (CODE_SIZE >= 4)
                          M           if (((LCDOUT) & 800h) == 0)
                          M         bcf     PCLATH, 3
                          M           else
                          M         bsf     PCLATH, 3
                          M           endif
                          M         endif
                          M         if (CODE_SIZE == 8)
                          M           if (((LCDOUT) & 1000h) == 0)
                          M         bcf     PCLATH, 4
                          M           else
                          M         bsf     PCLATH, 4
                          M           endif
                          M         endif
                          M       else
                          M         if (CODE_SIZE >= 4)
                          M           if (((LCDOUT) & 1800h) == 0)
02B2   018A               M         clrf    PCLATH
                          M           else
                          M             if (((LCDOUT) & 800h) == 0)
                          M         bcf     PCLATH, 3
                          M             else
                          M         bsf     PCLATH, 3
                          M             endif
                          M             if (CODE_SIZE == 8)
                          M               if (((LCDOUT) & 1000h) == 0)
                          M         bcf     PCLATH, 4
                          M               else
                          M         bsf     PCLATH, 4
                          M               endif
                          M             endif
                          M           endif
                          M         endif
                          M       endif
                          M     endif
                          M 
02B3   2003               M         call    LCDOUT
                      00229         LCDOUT?C        04Dh
02B4   304D               M         movlw   04Dh
                          M         L?CALL  LCDOUT
                          M         RST?RP
                          M     if ((PREV_BANK & 1) != 0)
                          M         bcf     STATUS, RP0
                          M     endif
MPASM  5.49                      SDCCON~1.ASM   7-1-2005  0:07:41         PAGE 231


LOC  OBJECT CODE     LINE SOURCE TEXT
  VALUE

                          M     if ((PREV_BANK & 2) != 0)
                          M         bcf     STATUS, RP1
                          M     endif
  00000000                M PREV_BANK = 0
                          M 
                          M     if ((LCDOUT) < 1)
                          M       if (CODE_SIZE >= 4)
                          M         if (((LCDOUT) & 800h) == 0)
                          M         bcf     PCLATH, 3
                          M         else
                          M         bsf     PCLATH, 3
                          M         endif
                          M       endif
                          M       if (CODE_SIZE == 8)
                          M         if (((LCDOUT) & 1000h) == 0)
                          M         bcf     PCLATH, 4
                          M         else
                          M         bsf     PCLATH, 4
                          M         endif
                          M       endif
                          M     else
                          M       if ((LCDOUT) > $)
                          M         if (CODE_SIZE >= 4)
                          M           if (((LCDOUT) & 800h) == 0)
                          M         bcf     PCLATH, 3
                          M           else
                          M         bsf     PCLATH, 3
                          M           endif
                          M         endif
                          M         if (CODE_SIZE == 8)
                          M           if (((LCDOUT) & 1000h) == 0)
                          M         bcf     PCLATH, 4
                          M           else
                          M         bsf     PCLATH, 4
                          M           endif
                          M         endif
                          M       else
                          M         if (CODE_SIZE >= 4)
                          M           if (((LCDOUT) & 1800h) == 0)
02B5   018A               M         clrf    PCLATH
                          M           else
                          M             if (((LCDOUT) & 800h) == 0)
                          M         bcf     PCLATH, 3
                          M             else
                          M         bsf     PCLATH, 3
                          M             endif
                          M             if (CODE_SIZE == 8)
                          M               if (((LCDOUT) & 1000h) == 0)
                          M         bcf     PCLATH, 4
                          M               else
                          M         bsf     PCLATH, 4
                          M               endif
                          M             endif
MPASM  5.49                      SDCCON~1.ASM   7-1-2005  0:07:41         PAGE 232


LOC  OBJECT CODE     LINE SOURCE TEXT
  VALUE

                          M           endif
                          M         endif
                          M       endif
                          M     endif
                          M 
02B6   2003               M         call    LCDOUT
                      00230         LCDOUT?C        041h
02B7   3041               M         movlw   041h
                          M         L?CALL  LCDOUT
                          M         RST?RP
                          M     if ((PREV_BANK & 1) != 0)
                          M         bcf     STATUS, RP0
                          M     endif
                          M     if ((PREV_BANK & 2) != 0)
                          M         bcf     STATUS, RP1
                          M     endif
  00000000                M PREV_BANK = 0
                          M 
                          M     if ((LCDOUT) < 1)
                          M       if (CODE_SIZE >= 4)
                          M         if (((LCDOUT) & 800h) == 0)
                          M         bcf     PCLATH, 3
                          M         else
                          M         bsf     PCLATH, 3
                          M         endif
                          M       endif
                          M       if (CODE_SIZE == 8)
                          M         if (((LCDOUT) & 1000h) == 0)
                          M         bcf     PCLATH, 4
                          M         else
                          M         bsf     PCLATH, 4
                          M         endif
                          M       endif
                          M     else
                          M       if ((LCDOUT) > $)
                          M         if (CODE_SIZE >= 4)
                          M           if (((LCDOUT) & 800h) == 0)
                          M         bcf     PCLATH, 3
                          M           else
                          M         bsf     PCLATH, 3
                          M           endif
                          M         endif
                          M         if (CODE_SIZE == 8)
                          M           if (((LCDOUT) & 1000h) == 0)
                          M         bcf     PCLATH, 4
                          M           else
                          M         bsf     PCLATH, 4
                          M           endif
                          M         endif
                          M       else
                          M         if (CODE_SIZE >= 4)
                          M           if (((LCDOUT) & 1800h) == 0)
02B8   018A               M         clrf    PCLATH
MPASM  5.49                      SDCCON~1.ASM   7-1-2005  0:07:41         PAGE 233


LOC  OBJECT CODE     LINE SOURCE TEXT
  VALUE

                          M           else
                          M             if (((LCDOUT) & 800h) == 0)
                          M         bcf     PCLATH, 3
                          M             else
                          M         bsf     PCLATH, 3
                          M             endif
                          M             if (CODE_SIZE == 8)
                          M               if (((LCDOUT) & 1000h) == 0)
                          M         bcf     PCLATH, 4
                          M               else
                          M         bsf     PCLATH, 4
                          M               endif
                          M             endif
                          M           endif
                          M         endif
                          M       endif
                          M     endif
                          M 
02B9   2003               M         call    LCDOUT
                      00231         LCDOUT?C        052h
02BA   3052               M         movlw   052h
                          M         L?CALL  LCDOUT
                          M         RST?RP
                          M     if ((PREV_BANK & 1) != 0)
                          M         bcf     STATUS, RP0
                          M     endif
                          M     if ((PREV_BANK & 2) != 0)
                          M         bcf     STATUS, RP1
                          M     endif
  00000000                M PREV_BANK = 0
                          M 
                          M     if ((LCDOUT) < 1)
                          M       if (CODE_SIZE >= 4)
                          M         if (((LCDOUT) & 800h) == 0)
                          M         bcf     PCLATH, 3
                          M         else
                          M         bsf     PCLATH, 3
                          M         endif
                          M       endif
                          M       if (CODE_SIZE == 8)
                          M         if (((LCDOUT) & 1000h) == 0)
                          M         bcf     PCLATH, 4
                          M         else
                          M         bsf     PCLATH, 4
                          M         endif
                          M       endif
                          M     else
                          M       if ((LCDOUT) > $)
                          M         if (CODE_SIZE >= 4)
                          M           if (((LCDOUT) & 800h) == 0)
                          M         bcf     PCLATH, 3
                          M           else
                          M         bsf     PCLATH, 3
MPASM  5.49                      SDCCON~1.ASM   7-1-2005  0:07:41         PAGE 234


LOC  OBJECT CODE     LINE SOURCE TEXT
  VALUE

                          M           endif
                          M         endif
                          M         if (CODE_SIZE == 8)
                          M           if (((LCDOUT) & 1000h) == 0)
                          M         bcf     PCLATH, 4
                          M           else
                          M         bsf     PCLATH, 4
                          M           endif
                          M         endif
                          M       else
                          M         if (CODE_SIZE >= 4)
                          M           if (((LCDOUT) & 1800h) == 0)
02BB   018A               M         clrf    PCLATH
                          M           else
                          M             if (((LCDOUT) & 800h) == 0)
                          M         bcf     PCLATH, 3
                          M             else
                          M         bsf     PCLATH, 3
                          M             endif
                          M             if (CODE_SIZE == 8)
                          M               if (((LCDOUT) & 1000h) == 0)
                          M         bcf     PCLATH, 4
                          M               else
                          M         bsf     PCLATH, 4
                          M               endif
                          M             endif
                          M           endif
                          M         endif
                          M       endif
                          M     endif
                          M 
02BC   2003               M         call    LCDOUT
                      00232         LCDOUT?C        020h
02BD   3020               M         movlw   020h
                          M         L?CALL  LCDOUT
                          M         RST?RP
                          M     if ((PREV_BANK & 1) != 0)
                          M         bcf     STATUS, RP0
                          M     endif
                          M     if ((PREV_BANK & 2) != 0)
                          M         bcf     STATUS, RP1
                          M     endif
  00000000                M PREV_BANK = 0
                          M 
                          M     if ((LCDOUT) < 1)
                          M       if (CODE_SIZE >= 4)
                          M         if (((LCDOUT) & 800h) == 0)
                          M         bcf     PCLATH, 3
                          M         else
                          M         bsf     PCLATH, 3
                          M         endif
                          M       endif
                          M       if (CODE_SIZE == 8)
MPASM  5.49                      SDCCON~1.ASM   7-1-2005  0:07:41         PAGE 235


LOC  OBJECT CODE     LINE SOURCE TEXT
  VALUE

                          M         if (((LCDOUT) & 1000h) == 0)
                          M         bcf     PCLATH, 4
                          M         else
                          M         bsf     PCLATH, 4
                          M         endif
                          M       endif
                          M     else
                          M       if ((LCDOUT) > $)
                          M         if (CODE_SIZE >= 4)
                          M           if (((LCDOUT) & 800h) == 0)
                          M         bcf     PCLATH, 3
                          M           else
                          M         bsf     PCLATH, 3
                          M           endif
                          M         endif
                          M         if (CODE_SIZE == 8)
                          M           if (((LCDOUT) & 1000h) == 0)
                          M         bcf     PCLATH, 4
                          M           else
                          M         bsf     PCLATH, 4
                          M           endif
                          M         endif
                          M       else
                          M         if (CODE_SIZE >= 4)
                          M           if (((LCDOUT) & 1800h) == 0)
02BE   018A               M         clrf    PCLATH
                          M           else
                          M             if (((LCDOUT) & 800h) == 0)
                          M         bcf     PCLATH, 3
                          M             else
                          M         bsf     PCLATH, 3
                          M             endif
                          M             if (CODE_SIZE == 8)
                          M               if (((LCDOUT) & 1000h) == 0)
                          M         bcf     PCLATH, 4
                          M               else
                          M         bsf     PCLATH, 4
                          M               endif
                          M             endif
                          M           endif
                          M         endif
                          M       endif
                          M     endif
                          M 
02BF   2003               M         call    LCDOUT
                      00233         LCDOUT?C        054h
02C0   3054               M         movlw   054h
                          M         L?CALL  LCDOUT
                          M         RST?RP
                          M     if ((PREV_BANK & 1) != 0)
                          M         bcf     STATUS, RP0
                          M     endif
                          M     if ((PREV_BANK & 2) != 0)
MPASM  5.49                      SDCCON~1.ASM   7-1-2005  0:07:41         PAGE 236


LOC  OBJECT CODE     LINE SOURCE TEXT
  VALUE

                          M         bcf     STATUS, RP1
                          M     endif
  00000000                M PREV_BANK = 0
                          M 
                          M     if ((LCDOUT) < 1)
                          M       if (CODE_SIZE >= 4)
                          M         if (((LCDOUT) & 800h) == 0)
                          M         bcf     PCLATH, 3
                          M         else
                          M         bsf     PCLATH, 3
                          M         endif
                          M       endif
                          M       if (CODE_SIZE == 8)
                          M         if (((LCDOUT) & 1000h) == 0)
                          M         bcf     PCLATH, 4
                          M         else
                          M         bsf     PCLATH, 4
                          M         endif
                          M       endif
                          M     else
                          M       if ((LCDOUT) > $)
                          M         if (CODE_SIZE >= 4)
                          M           if (((LCDOUT) & 800h) == 0)
                          M         bcf     PCLATH, 3
                          M           else
                          M         bsf     PCLATH, 3
                          M           endif
                          M         endif
                          M         if (CODE_SIZE == 8)
                          M           if (((LCDOUT) & 1000h) == 0)
                          M         bcf     PCLATH, 4
                          M           else
                          M         bsf     PCLATH, 4
                          M           endif
                          M         endif
                          M       else
                          M         if (CODE_SIZE >= 4)
                          M           if (((LCDOUT) & 1800h) == 0)
02C1   018A               M         clrf    PCLATH
                          M           else
                          M             if (((LCDOUT) & 800h) == 0)
                          M         bcf     PCLATH, 3
                          M             else
                          M         bsf     PCLATH, 3
                          M             endif
                          M             if (CODE_SIZE == 8)
                          M               if (((LCDOUT) & 1000h) == 0)
                          M         bcf     PCLATH, 4
                          M               else
                          M         bsf     PCLATH, 4
                          M               endif
                          M             endif
                          M           endif
MPASM  5.49                      SDCCON~1.ASM   7-1-2005  0:07:41         PAGE 237


LOC  OBJECT CODE     LINE SOURCE TEXT
  VALUE

                          M         endif
                          M       endif
                          M     endif
                          M 
02C2   2003               M         call    LCDOUT
                      00234         LCDOUT?C        045h
02C3   3045               M         movlw   045h
                          M         L?CALL  LCDOUT
                          M         RST?RP
                          M     if ((PREV_BANK & 1) != 0)
                          M         bcf     STATUS, RP0
                          M     endif
                          M     if ((PREV_BANK & 2) != 0)
                          M         bcf     STATUS, RP1
                          M     endif
  00000000                M PREV_BANK = 0
                          M 
                          M     if ((LCDOUT) < 1)
                          M       if (CODE_SIZE >= 4)
                          M         if (((LCDOUT) & 800h) == 0)
                          M         bcf     PCLATH, 3
                          M         else
                          M         bsf     PCLATH, 3
                          M         endif
                          M       endif
                          M       if (CODE_SIZE == 8)
                          M         if (((LCDOUT) & 1000h) == 0)
                          M         bcf     PCLATH, 4
                          M         else
                          M         bsf     PCLATH, 4
                          M         endif
                          M       endif
                          M     else
                          M       if ((LCDOUT) > $)
                          M         if (CODE_SIZE >= 4)
                          M           if (((LCDOUT) & 800h) == 0)
                          M         bcf     PCLATH, 3
                          M           else
                          M         bsf     PCLATH, 3
                          M           endif
                          M         endif
                          M         if (CODE_SIZE == 8)
                          M           if (((LCDOUT) & 1000h) == 0)
                          M         bcf     PCLATH, 4
                          M           else
                          M         bsf     PCLATH, 4
                          M           endif
                          M         endif
                          M       else
                          M         if (CODE_SIZE >= 4)
                          M           if (((LCDOUT) & 1800h) == 0)
02C4   018A               M         clrf    PCLATH
                          M           else
MPASM  5.49                      SDCCON~1.ASM   7-1-2005  0:07:41         PAGE 238


LOC  OBJECT CODE     LINE SOURCE TEXT
  VALUE

                          M             if (((LCDOUT) & 800h) == 0)
                          M         bcf     PCLATH, 3
                          M             else
                          M         bsf     PCLATH, 3
                          M             endif
                          M             if (CODE_SIZE == 8)
                          M               if (((LCDOUT) & 1000h) == 0)
                          M         bcf     PCLATH, 4
                          M               else
                          M         bsf     PCLATH, 4
                          M               endif
                          M             endif
                          M           endif
                          M         endif
                          M       endif
                          M     endif
                          M 
02C5   2003               M         call    LCDOUT
                      00235         LCDOUT?C        04Dh
02C6   304D               M         movlw   04Dh
                          M         L?CALL  LCDOUT
                          M         RST?RP
                          M     if ((PREV_BANK & 1) != 0)
                          M         bcf     STATUS, RP0
                          M     endif
                          M     if ((PREV_BANK & 2) != 0)
                          M         bcf     STATUS, RP1
                          M     endif
  00000000                M PREV_BANK = 0
                          M 
                          M     if ((LCDOUT) < 1)
                          M       if (CODE_SIZE >= 4)
                          M         if (((LCDOUT) & 800h) == 0)
                          M         bcf     PCLATH, 3
                          M         else
                          M         bsf     PCLATH, 3
                          M         endif
                          M       endif
                          M       if (CODE_SIZE == 8)
                          M         if (((LCDOUT) & 1000h) == 0)
                          M         bcf     PCLATH, 4
                          M         else
                          M         bsf     PCLATH, 4
                          M         endif
                          M       endif
                          M     else
                          M       if ((LCDOUT) > $)
                          M         if (CODE_SIZE >= 4)
                          M           if (((LCDOUT) & 800h) == 0)
                          M         bcf     PCLATH, 3
                          M           else
                          M         bsf     PCLATH, 3
                          M           endif
MPASM  5.49                      SDCCON~1.ASM   7-1-2005  0:07:41         PAGE 239


LOC  OBJECT CODE     LINE SOURCE TEXT
  VALUE

                          M         endif
                          M         if (CODE_SIZE == 8)
                          M           if (((LCDOUT) & 1000h) == 0)
                          M         bcf     PCLATH, 4
                          M           else
                          M         bsf     PCLATH, 4
                          M           endif
                          M         endif
                          M       else
                          M         if (CODE_SIZE >= 4)
                          M           if (((LCDOUT) & 1800h) == 0)
02C7   018A               M         clrf    PCLATH
                          M           else
                          M             if (((LCDOUT) & 800h) == 0)
                          M         bcf     PCLATH, 3
                          M             else
                          M         bsf     PCLATH, 3
                          M             endif
                          M             if (CODE_SIZE == 8)
                          M               if (((LCDOUT) & 1000h) == 0)
                          M         bcf     PCLATH, 4
                          M               else
                          M         bsf     PCLATH, 4
                          M               endif
                          M             endif
                          M           endif
                          M         endif
                          M       endif
                          M     endif
                          M 
02C8   2003               M         call    LCDOUT
                      00236         LCDOUT?C        050h
02C9   3050               M         movlw   050h
                          M         L?CALL  LCDOUT
                          M         RST?RP
                          M     if ((PREV_BANK & 1) != 0)
                          M         bcf     STATUS, RP0
                          M     endif
                          M     if ((PREV_BANK & 2) != 0)
                          M         bcf     STATUS, RP1
                          M     endif
  00000000                M PREV_BANK = 0
                          M 
                          M     if ((LCDOUT) < 1)
                          M       if (CODE_SIZE >= 4)
                          M         if (((LCDOUT) & 800h) == 0)
                          M         bcf     PCLATH, 3
                          M         else
                          M         bsf     PCLATH, 3
                          M         endif
                          M       endif
                          M       if (CODE_SIZE == 8)
                          M         if (((LCDOUT) & 1000h) == 0)
MPASM  5.49                      SDCCON~1.ASM   7-1-2005  0:07:41         PAGE 240


LOC  OBJECT CODE     LINE SOURCE TEXT
  VALUE

                          M         bcf     PCLATH, 4
                          M         else
                          M         bsf     PCLATH, 4
                          M         endif
                          M       endif
                          M     else
                          M       if ((LCDOUT) > $)
                          M         if (CODE_SIZE >= 4)
                          M           if (((LCDOUT) & 800h) == 0)
                          M         bcf     PCLATH, 3
                          M           else
                          M         bsf     PCLATH, 3
                          M           endif
                          M         endif
                          M         if (CODE_SIZE == 8)
                          M           if (((LCDOUT) & 1000h) == 0)
                          M         bcf     PCLATH, 4
                          M           else
                          M         bsf     PCLATH, 4
                          M           endif
                          M         endif
                          M       else
                          M         if (CODE_SIZE >= 4)
                          M           if (((LCDOUT) & 1800h) == 0)
02CA   018A               M         clrf    PCLATH
                          M           else
                          M             if (((LCDOUT) & 800h) == 0)
                          M         bcf     PCLATH, 3
                          M             else
                          M         bsf     PCLATH, 3
                          M             endif
                          M             if (CODE_SIZE == 8)
                          M               if (((LCDOUT) & 1000h) == 0)
                          M         bcf     PCLATH, 4
                          M               else
                          M         bsf     PCLATH, 4
                          M               endif
                          M             endif
                          M           endif
                          M         endif
                          M       endif
                          M     endif
                          M 
02CB   2003               M         call    LCDOUT
                      00237         LCDOUT?C        03Ah
02CC   303A               M         movlw   03Ah
                          M         L?CALL  LCDOUT
                          M         RST?RP
                          M     if ((PREV_BANK & 1) != 0)
                          M         bcf     STATUS, RP0
                          M     endif
                          M     if ((PREV_BANK & 2) != 0)
                          M         bcf     STATUS, RP1
MPASM  5.49                      SDCCON~1.ASM   7-1-2005  0:07:41         PAGE 241


LOC  OBJECT CODE     LINE SOURCE TEXT
  VALUE

                          M     endif
  00000000                M PREV_BANK = 0
                          M 
                          M     if ((LCDOUT) < 1)
                          M       if (CODE_SIZE >= 4)
                          M         if (((LCDOUT) & 800h) == 0)
                          M         bcf     PCLATH, 3
                          M         else
                          M         bsf     PCLATH, 3
                          M         endif
                          M       endif
                          M       if (CODE_SIZE == 8)
                          M         if (((LCDOUT) & 1000h) == 0)
                          M         bcf     PCLATH, 4
                          M         else
                          M         bsf     PCLATH, 4
                          M         endif
                          M       endif
                          M     else
                          M       if ((LCDOUT) > $)
                          M         if (CODE_SIZE >= 4)
                          M           if (((LCDOUT) & 800h) == 0)
                          M         bcf     PCLATH, 3
                          M           else
                          M         bsf     PCLATH, 3
                          M           endif
                          M         endif
                          M         if (CODE_SIZE == 8)
                          M           if (((LCDOUT) & 1000h) == 0)
                          M         bcf     PCLATH, 4
                          M           else
                          M         bsf     PCLATH, 4
                          M           endif
                          M         endif
                          M       else
                          M         if (CODE_SIZE >= 4)
                          M           if (((LCDOUT) & 1800h) == 0)
02CD   018A               M         clrf    PCLATH
                          M           else
                          M             if (((LCDOUT) & 800h) == 0)
                          M         bcf     PCLATH, 3
                          M             else
                          M         bsf     PCLATH, 3
                          M             endif
                          M             if (CODE_SIZE == 8)
                          M               if (((LCDOUT) & 1000h) == 0)
                          M         bcf     PCLATH, 4
                          M               else
                          M         bsf     PCLATH, 4
                          M               endif
                          M             endif
                          M           endif
                          M         endif
MPASM  5.49                      SDCCON~1.ASM   7-1-2005  0:07:41         PAGE 242


LOC  OBJECT CODE     LINE SOURCE TEXT
  VALUE

                          M       endif
                          M     endif
                          M 
02CE   2003               M         call    LCDOUT
                      00238         LCDOUT?C        0FEh
02CF   30FE               M         movlw   0FEh
                          M         L?CALL  LCDOUT
                          M         RST?RP
                          M     if ((PREV_BANK & 1) != 0)
                          M         bcf     STATUS, RP0
                          M     endif
                          M     if ((PREV_BANK & 2) != 0)
                          M         bcf     STATUS, RP1
                          M     endif
  00000000                M PREV_BANK = 0
                          M 
                          M     if ((LCDOUT) < 1)
                          M       if (CODE_SIZE >= 4)
                          M         if (((LCDOUT) & 800h) == 0)
                          M         bcf     PCLATH, 3
                          M         else
                          M         bsf     PCLATH, 3
                          M         endif
                          M       endif
                          M       if (CODE_SIZE == 8)
                          M         if (((LCDOUT) & 1000h) == 0)
                          M         bcf     PCLATH, 4
                          M         else
                          M         bsf     PCLATH, 4
                          M         endif
                          M       endif
                          M     else
                          M       if ((LCDOUT) > $)
                          M         if (CODE_SIZE >= 4)
                          M           if (((LCDOUT) & 800h) == 0)
                          M         bcf     PCLATH, 3
                          M           else
                          M         bsf     PCLATH, 3
                          M           endif
                          M         endif
                          M         if (CODE_SIZE == 8)
                          M           if (((LCDOUT) & 1000h) == 0)
                          M         bcf     PCLATH, 4
                          M           else
                          M         bsf     PCLATH, 4
                          M           endif
                          M         endif
                          M       else
                          M         if (CODE_SIZE >= 4)
                          M           if (((LCDOUT) & 1800h) == 0)
02D0   018A               M         clrf    PCLATH
                          M           else
                          M             if (((LCDOUT) & 800h) == 0)
MPASM  5.49                      SDCCON~1.ASM   7-1-2005  0:07:41         PAGE 243


LOC  OBJECT CODE     LINE SOURCE TEXT
  VALUE

                          M         bcf     PCLATH, 3
                          M             else
                          M         bsf     PCLATH, 3
                          M             endif
                          M             if (CODE_SIZE == 8)
                          M               if (((LCDOUT) & 1000h) == 0)
                          M         bcf     PCLATH, 4
                          M               else
                          M         bsf     PCLATH, 4
                          M               endif
                          M             endif
                          M           endif
                          M         endif
                          M       endif
                          M     endif
                          M 
02D1   2003               M         call    LCDOUT
                      00239         LCDOUT?C        0C0h
02D2   30C0               M         movlw   0C0h
                          M         L?CALL  LCDOUT
                          M         RST?RP
                          M     if ((PREV_BANK & 1) != 0)
                          M         bcf     STATUS, RP0
                          M     endif
                          M     if ((PREV_BANK & 2) != 0)
                          M         bcf     STATUS, RP1
                          M     endif
  00000000                M PREV_BANK = 0
                          M 
                          M     if ((LCDOUT) < 1)
                          M       if (CODE_SIZE >= 4)
                          M         if (((LCDOUT) & 800h) == 0)
                          M         bcf     PCLATH, 3
                          M         else
                          M         bsf     PCLATH, 3
                          M         endif
                          M       endif
                          M       if (CODE_SIZE == 8)
                          M         if (((LCDOUT) & 1000h) == 0)
                          M         bcf     PCLATH, 4
                          M         else
                          M         bsf     PCLATH, 4
                          M         endif
                          M       endif
                          M     else
                          M       if ((LCDOUT) > $)
                          M         if (CODE_SIZE >= 4)
                          M           if (((LCDOUT) & 800h) == 0)
                          M         bcf     PCLATH, 3
                          M           else
                          M         bsf     PCLATH, 3
                          M           endif
                          M         endif
MPASM  5.49                      SDCCON~1.ASM   7-1-2005  0:07:41         PAGE 244


LOC  OBJECT CODE     LINE SOURCE TEXT
  VALUE

                          M         if (CODE_SIZE == 8)
                          M           if (((LCDOUT) & 1000h) == 0)
                          M         bcf     PCLATH, 4
                          M           else
                          M         bsf     PCLATH, 4
                          M           endif
                          M         endif
                          M       else
                          M         if (CODE_SIZE >= 4)
                          M           if (((LCDOUT) & 1800h) == 0)
02D3   018A               M         clrf    PCLATH
                          M           else
                          M             if (((LCDOUT) & 800h) == 0)
                          M         bcf     PCLATH, 3
                          M             else
                          M         bsf     PCLATH, 3
                          M             endif
                          M             if (CODE_SIZE == 8)
                          M               if (((LCDOUT) & 1000h) == 0)
                          M         bcf     PCLATH, 4
                          M               else
                          M         bsf     PCLATH, 4
                          M               endif
                          M             endif
                          M           endif
                          M         endif
                          M       endif
                          M     endif
                          M 
02D4   2003               M         call    LCDOUT
                      00240         LCDOUT?C        04Dh
02D5   304D               M         movlw   04Dh
                          M         L?CALL  LCDOUT
                          M         RST?RP
                          M     if ((PREV_BANK & 1) != 0)
                          M         bcf     STATUS, RP0
                          M     endif
                          M     if ((PREV_BANK & 2) != 0)
                          M         bcf     STATUS, RP1
                          M     endif
  00000000                M PREV_BANK = 0
                          M 
                          M     if ((LCDOUT) < 1)
                          M       if (CODE_SIZE >= 4)
                          M         if (((LCDOUT) & 800h) == 0)
                          M         bcf     PCLATH, 3
                          M         else
                          M         bsf     PCLATH, 3
                          M         endif
                          M       endif
                          M       if (CODE_SIZE == 8)
                          M         if (((LCDOUT) & 1000h) == 0)
                          M         bcf     PCLATH, 4
MPASM  5.49                      SDCCON~1.ASM   7-1-2005  0:07:41         PAGE 245


LOC  OBJECT CODE     LINE SOURCE TEXT
  VALUE

                          M         else
                          M         bsf     PCLATH, 4
                          M         endif
                          M       endif
                          M     else
                          M       if ((LCDOUT) > $)
                          M         if (CODE_SIZE >= 4)
                          M           if (((LCDOUT) & 800h) == 0)
                          M         bcf     PCLATH, 3
                          M           else
                          M         bsf     PCLATH, 3
                          M           endif
                          M         endif
                          M         if (CODE_SIZE == 8)
                          M           if (((LCDOUT) & 1000h) == 0)
                          M         bcf     PCLATH, 4
                          M           else
                          M         bsf     PCLATH, 4
                          M           endif
                          M         endif
                          M       else
                          M         if (CODE_SIZE >= 4)
                          M           if (((LCDOUT) & 1800h) == 0)
02D6   018A               M         clrf    PCLATH
                          M           else
                          M             if (((LCDOUT) & 800h) == 0)
                          M         bcf     PCLATH, 3
                          M             else
                          M         bsf     PCLATH, 3
                          M             endif
                          M             if (CODE_SIZE == 8)
                          M               if (((LCDOUT) & 1000h) == 0)
                          M         bcf     PCLATH, 4
                          M               else
                          M         bsf     PCLATH, 4
                          M               endif
                          M             endif
                          M           endif
                          M         endif
                          M       endif
                          M     endif
                          M 
02D7   2003               M         call    LCDOUT
                      00241         LCDOUT?C        061h
02D8   3061               M         movlw   061h
                          M         L?CALL  LCDOUT
                          M         RST?RP
                          M     if ((PREV_BANK & 1) != 0)
                          M         bcf     STATUS, RP0
                          M     endif
                          M     if ((PREV_BANK & 2) != 0)
                          M         bcf     STATUS, RP1
                          M     endif
MPASM  5.49                      SDCCON~1.ASM   7-1-2005  0:07:41         PAGE 246


LOC  OBJECT CODE     LINE SOURCE TEXT
  VALUE

  00000000                M PREV_BANK = 0
                          M 
                          M     if ((LCDOUT) < 1)
                          M       if (CODE_SIZE >= 4)
                          M         if (((LCDOUT) & 800h) == 0)
                          M         bcf     PCLATH, 3
                          M         else
                          M         bsf     PCLATH, 3
                          M         endif
                          M       endif
                          M       if (CODE_SIZE == 8)
                          M         if (((LCDOUT) & 1000h) == 0)
                          M         bcf     PCLATH, 4
                          M         else
                          M         bsf     PCLATH, 4
                          M         endif
                          M       endif
                          M     else
                          M       if ((LCDOUT) > $)
                          M         if (CODE_SIZE >= 4)
                          M           if (((LCDOUT) & 800h) == 0)
                          M         bcf     PCLATH, 3
                          M           else
                          M         bsf     PCLATH, 3
                          M           endif
                          M         endif
                          M         if (CODE_SIZE == 8)
                          M           if (((LCDOUT) & 1000h) == 0)
                          M         bcf     PCLATH, 4
                          M           else
                          M         bsf     PCLATH, 4
                          M           endif
                          M         endif
                          M       else
                          M         if (CODE_SIZE >= 4)
                          M           if (((LCDOUT) & 1800h) == 0)
02D9   018A               M         clrf    PCLATH
                          M           else
                          M             if (((LCDOUT) & 800h) == 0)
                          M         bcf     PCLATH, 3
                          M             else
                          M         bsf     PCLATH, 3
                          M             endif
                          M             if (CODE_SIZE == 8)
                          M               if (((LCDOUT) & 1000h) == 0)
                          M         bcf     PCLATH, 4
                          M               else
                          M         bsf     PCLATH, 4
                          M               endif
                          M             endif
                          M           endif
                          M         endif
                          M       endif
MPASM  5.49                      SDCCON~1.ASM   7-1-2005  0:07:41         PAGE 247


LOC  OBJECT CODE     LINE SOURCE TEXT
  VALUE

                          M     endif
                          M 
02DA   2003               M         call    LCDOUT
                      00242         LCDOUT?C        078h
02DB   3078               M         movlw   078h
                          M         L?CALL  LCDOUT
                          M         RST?RP
                          M     if ((PREV_BANK & 1) != 0)
                          M         bcf     STATUS, RP0
                          M     endif
                          M     if ((PREV_BANK & 2) != 0)
                          M         bcf     STATUS, RP1
                          M     endif
  00000000                M PREV_BANK = 0
                          M 
                          M     if ((LCDOUT) < 1)
                          M       if (CODE_SIZE >= 4)
                          M         if (((LCDOUT) & 800h) == 0)
                          M         bcf     PCLATH, 3
                          M         else
                          M         bsf     PCLATH, 3
                          M         endif
                          M       endif
                          M       if (CODE_SIZE == 8)
                          M         if (((LCDOUT) & 1000h) == 0)
                          M         bcf     PCLATH, 4
                          M         else
                          M         bsf     PCLATH, 4
                          M         endif
                          M       endif
                          M     else
                          M       if ((LCDOUT) > $)
                          M         if (CODE_SIZE >= 4)
                          M           if (((LCDOUT) & 800h) == 0)
                          M         bcf     PCLATH, 3
                          M           else
                          M         bsf     PCLATH, 3
                          M           endif
                          M         endif
                          M         if (CODE_SIZE == 8)
                          M           if (((LCDOUT) & 1000h) == 0)
                          M         bcf     PCLATH, 4
                          M           else
                          M         bsf     PCLATH, 4
                          M           endif
                          M         endif
                          M       else
                          M         if (CODE_SIZE >= 4)
                          M           if (((LCDOUT) & 1800h) == 0)
02DC   018A               M         clrf    PCLATH
                          M           else
                          M             if (((LCDOUT) & 800h) == 0)
                          M         bcf     PCLATH, 3
MPASM  5.49                      SDCCON~1.ASM   7-1-2005  0:07:41         PAGE 248


LOC  OBJECT CODE     LINE SOURCE TEXT
  VALUE

                          M             else
                          M         bsf     PCLATH, 3
                          M             endif
                          M             if (CODE_SIZE == 8)
                          M               if (((LCDOUT) & 1000h) == 0)
                          M         bcf     PCLATH, 4
                          M               else
                          M         bsf     PCLATH, 4
                          M               endif
                          M             endif
                          M           endif
                          M         endif
                          M       endif
                          M     endif
                          M 
02DD   2003               M         call    LCDOUT
                      00243         LCDOUT?C        069h
02DE   3069               M         movlw   069h
                          M         L?CALL  LCDOUT
                          M         RST?RP
                          M     if ((PREV_BANK & 1) != 0)
                          M         bcf     STATUS, RP0
                          M     endif
                          M     if ((PREV_BANK & 2) != 0)
                          M         bcf     STATUS, RP1
                          M     endif
  00000000                M PREV_BANK = 0
                          M 
                          M     if ((LCDOUT) < 1)
                          M       if (CODE_SIZE >= 4)
                          M         if (((LCDOUT) & 800h) == 0)
                          M         bcf     PCLATH, 3
                          M         else
                          M         bsf     PCLATH, 3
                          M         endif
                          M       endif
                          M       if (CODE_SIZE == 8)
                          M         if (((LCDOUT) & 1000h) == 0)
                          M         bcf     PCLATH, 4
                          M         else
                          M         bsf     PCLATH, 4
                          M         endif
                          M       endif
                          M     else
                          M       if ((LCDOUT) > $)
                          M         if (CODE_SIZE >= 4)
                          M           if (((LCDOUT) & 800h) == 0)
                          M         bcf     PCLATH, 3
                          M           else
                          M         bsf     PCLATH, 3
                          M           endif
                          M         endif
                          M         if (CODE_SIZE == 8)
MPASM  5.49                      SDCCON~1.ASM   7-1-2005  0:07:41         PAGE 249


LOC  OBJECT CODE     LINE SOURCE TEXT
  VALUE

                          M           if (((LCDOUT) & 1000h) == 0)
                          M         bcf     PCLATH, 4
                          M           else
                          M         bsf     PCLATH, 4
                          M           endif
                          M         endif
                          M       else
                          M         if (CODE_SIZE >= 4)
                          M           if (((LCDOUT) & 1800h) == 0)
02DF   018A               M         clrf    PCLATH
                          M           else
                          M             if (((LCDOUT) & 800h) == 0)
                          M         bcf     PCLATH, 3
                          M             else
                          M         bsf     PCLATH, 3
                          M             endif
                          M             if (CODE_SIZE == 8)
                          M               if (((LCDOUT) & 1000h) == 0)
                          M         bcf     PCLATH, 4
                          M               else
                          M         bsf     PCLATH, 4
                          M               endif
                          M             endif
                          M           endif
                          M         endif
                          M       endif
                          M     endif
                          M 
02E0   2003               M         call    LCDOUT
                      00244         LCDOUT?C        06Dh
02E1   306D               M         movlw   06Dh
                          M         L?CALL  LCDOUT
                          M         RST?RP
                          M     if ((PREV_BANK & 1) != 0)
                          M         bcf     STATUS, RP0
                          M     endif
                          M     if ((PREV_BANK & 2) != 0)
                          M         bcf     STATUS, RP1
                          M     endif
  00000000                M PREV_BANK = 0
                          M 
                          M     if ((LCDOUT) < 1)
                          M       if (CODE_SIZE >= 4)
                          M         if (((LCDOUT) & 800h) == 0)
                          M         bcf     PCLATH, 3
                          M         else
                          M         bsf     PCLATH, 3
                          M         endif
                          M       endif
                          M       if (CODE_SIZE == 8)
                          M         if (((LCDOUT) & 1000h) == 0)
                          M         bcf     PCLATH, 4
                          M         else
MPASM  5.49                      SDCCON~1.ASM   7-1-2005  0:07:41         PAGE 250


LOC  OBJECT CODE     LINE SOURCE TEXT
  VALUE

                          M         bsf     PCLATH, 4
                          M         endif
                          M       endif
                          M     else
                          M       if ((LCDOUT) > $)
                          M         if (CODE_SIZE >= 4)
                          M           if (((LCDOUT) & 800h) == 0)
                          M         bcf     PCLATH, 3
                          M           else
                          M         bsf     PCLATH, 3
                          M           endif
                          M         endif
                          M         if (CODE_SIZE == 8)
                          M           if (((LCDOUT) & 1000h) == 0)
                          M         bcf     PCLATH, 4
                          M           else
                          M         bsf     PCLATH, 4
                          M           endif
                          M         endif
                          M       else
                          M         if (CODE_SIZE >= 4)
                          M           if (((LCDOUT) & 1800h) == 0)
02E2   018A               M         clrf    PCLATH
                          M           else
                          M             if (((LCDOUT) & 800h) == 0)
                          M         bcf     PCLATH, 3
                          M             else
                          M         bsf     PCLATH, 3
                          M             endif
                          M             if (CODE_SIZE == 8)
                          M               if (((LCDOUT) & 1000h) == 0)
                          M         bcf     PCLATH, 4
                          M               else
                          M         bsf     PCLATH, 4
                          M               endif
                          M             endif
                          M           endif
                          M         endif
                          M       endif
                          M     endif
                          M 
02E3   2003               M         call    LCDOUT
                      00245         LCDOUT?C        061h
02E4   3061               M         movlw   061h
                          M         L?CALL  LCDOUT
                          M         RST?RP
                          M     if ((PREV_BANK & 1) != 0)
                          M         bcf     STATUS, RP0
                          M     endif
                          M     if ((PREV_BANK & 2) != 0)
                          M         bcf     STATUS, RP1
                          M     endif
  00000000                M PREV_BANK = 0
MPASM  5.49                      SDCCON~1.ASM   7-1-2005  0:07:41         PAGE 251


LOC  OBJECT CODE     LINE SOURCE TEXT
  VALUE

                          M 
                          M     if ((LCDOUT) < 1)
                          M       if (CODE_SIZE >= 4)
                          M         if (((LCDOUT) & 800h) == 0)
                          M         bcf     PCLATH, 3
                          M         else
                          M         bsf     PCLATH, 3
                          M         endif
                          M       endif
                          M       if (CODE_SIZE == 8)
                          M         if (((LCDOUT) & 1000h) == 0)
                          M         bcf     PCLATH, 4
                          M         else
                          M         bsf     PCLATH, 4
                          M         endif
                          M       endif
                          M     else
                          M       if ((LCDOUT) > $)
                          M         if (CODE_SIZE >= 4)
                          M           if (((LCDOUT) & 800h) == 0)
                          M         bcf     PCLATH, 3
                          M           else
                          M         bsf     PCLATH, 3
                          M           endif
                          M         endif
                          M         if (CODE_SIZE == 8)
                          M           if (((LCDOUT) & 1000h) == 0)
                          M         bcf     PCLATH, 4
                          M           else
                          M         bsf     PCLATH, 4
                          M           endif
                          M         endif
                          M       else
                          M         if (CODE_SIZE >= 4)
                          M           if (((LCDOUT) & 1800h) == 0)
02E5   018A               M         clrf    PCLATH
                          M           else
                          M             if (((LCDOUT) & 800h) == 0)
                          M         bcf     PCLATH, 3
                          M             else
                          M         bsf     PCLATH, 3
                          M             endif
                          M             if (CODE_SIZE == 8)
                          M               if (((LCDOUT) & 1000h) == 0)
                          M         bcf     PCLATH, 4
                          M               else
                          M         bsf     PCLATH, 4
                          M               endif
                          M             endif
                          M           endif
                          M         endif
                          M       endif
                          M     endif
MPASM  5.49                      SDCCON~1.ASM   7-1-2005  0:07:41         PAGE 252


LOC  OBJECT CODE     LINE SOURCE TEXT
  VALUE

                          M 
02E6   2003               M         call    LCDOUT
                      00246         LCDOUT?C        020h
02E7   3020               M         movlw   020h
                          M         L?CALL  LCDOUT
                          M         RST?RP
                          M     if ((PREV_BANK & 1) != 0)
                          M         bcf     STATUS, RP0
                          M     endif
                          M     if ((PREV_BANK & 2) != 0)
                          M         bcf     STATUS, RP1
                          M     endif
  00000000                M PREV_BANK = 0
                          M 
                          M     if ((LCDOUT) < 1)
                          M       if (CODE_SIZE >= 4)
                          M         if (((LCDOUT) & 800h) == 0)
                          M         bcf     PCLATH, 3
                          M         else
                          M         bsf     PCLATH, 3
                          M         endif
                          M       endif
                          M       if (CODE_SIZE == 8)
                          M         if (((LCDOUT) & 1000h) == 0)
                          M         bcf     PCLATH, 4
                          M         else
                          M         bsf     PCLATH, 4
                          M         endif
                          M       endif
                          M     else
                          M       if ((LCDOUT) > $)
                          M         if (CODE_SIZE >= 4)
                          M           if (((LCDOUT) & 800h) == 0)
                          M         bcf     PCLATH, 3
                          M           else
                          M         bsf     PCLATH, 3
                          M           endif
                          M         endif
                          M         if (CODE_SIZE == 8)
                          M           if (((LCDOUT) & 1000h) == 0)
                          M         bcf     PCLATH, 4
                          M           else
                          M         bsf     PCLATH, 4
                          M           endif
                          M         endif
                          M       else
                          M         if (CODE_SIZE >= 4)
                          M           if (((LCDOUT) & 1800h) == 0)
02E8   018A               M         clrf    PCLATH
                          M           else
                          M             if (((LCDOUT) & 800h) == 0)
                          M         bcf     PCLATH, 3
                          M             else
MPASM  5.49                      SDCCON~1.ASM   7-1-2005  0:07:41         PAGE 253


LOC  OBJECT CODE     LINE SOURCE TEXT
  VALUE

                          M         bsf     PCLATH, 3
                          M             endif
                          M             if (CODE_SIZE == 8)
                          M               if (((LCDOUT) & 1000h) == 0)
                          M         bcf     PCLATH, 4
                          M               else
                          M         bsf     PCLATH, 4
                          M               endif
                          M             endif
                          M           endif
                          M         endif
                          M       endif
                          M     endif
                          M 
02E9   2003               M         call    LCDOUT
                      00247         LCDOUT?C        03Dh
02EA   303D               M         movlw   03Dh
                          M         L?CALL  LCDOUT
                          M         RST?RP
                          M     if ((PREV_BANK & 1) != 0)
                          M         bcf     STATUS, RP0
                          M     endif
                          M     if ((PREV_BANK & 2) != 0)
                          M         bcf     STATUS, RP1
                          M     endif
  00000000                M PREV_BANK = 0
                          M 
                          M     if ((LCDOUT) < 1)
                          M       if (CODE_SIZE >= 4)
                          M         if (((LCDOUT) & 800h) == 0)
                          M         bcf     PCLATH, 3
                          M         else
                          M         bsf     PCLATH, 3
                          M         endif
                          M       endif
                          M       if (CODE_SIZE == 8)
                          M         if (((LCDOUT) & 1000h) == 0)
                          M         bcf     PCLATH, 4
                          M         else
                          M         bsf     PCLATH, 4
                          M         endif
                          M       endif
                          M     else
                          M       if ((LCDOUT) > $)
                          M         if (CODE_SIZE >= 4)
                          M           if (((LCDOUT) & 800h) == 0)
                          M         bcf     PCLATH, 3
                          M           else
                          M         bsf     PCLATH, 3
                          M           endif
                          M         endif
                          M         if (CODE_SIZE == 8)
                          M           if (((LCDOUT) & 1000h) == 0)
MPASM  5.49                      SDCCON~1.ASM   7-1-2005  0:07:41         PAGE 254


LOC  OBJECT CODE     LINE SOURCE TEXT
  VALUE

                          M         bcf     PCLATH, 4
                          M           else
                          M         bsf     PCLATH, 4
                          M           endif
                          M         endif
                          M       else
                          M         if (CODE_SIZE >= 4)
                          M           if (((LCDOUT) & 1800h) == 0)
02EB   018A               M         clrf    PCLATH
                          M           else
                          M             if (((LCDOUT) & 800h) == 0)
                          M         bcf     PCLATH, 3
                          M             else
                          M         bsf     PCLATH, 3
                          M             endif
                          M             if (CODE_SIZE == 8)
                          M               if (((LCDOUT) & 1000h) == 0)
                          M         bcf     PCLATH, 4
                          M               else
                          M         bsf     PCLATH, 4
                          M               endif
                          M             endif
                          M           endif
                          M         endif
                          M       endif
                          M     endif
                          M 
02EC   2003               M         call    LCDOUT
                      00248         LCDOUT?C        020h
02ED   3020               M         movlw   020h
                          M         L?CALL  LCDOUT
                          M         RST?RP
                          M     if ((PREV_BANK & 1) != 0)
                          M         bcf     STATUS, RP0
                          M     endif
                          M     if ((PREV_BANK & 2) != 0)
                          M         bcf     STATUS, RP1
                          M     endif
  00000000                M PREV_BANK = 0
                          M 
                          M     if ((LCDOUT) < 1)
                          M       if (CODE_SIZE >= 4)
                          M         if (((LCDOUT) & 800h) == 0)
                          M         bcf     PCLATH, 3
                          M         else
                          M         bsf     PCLATH, 3
                          M         endif
                          M       endif
                          M       if (CODE_SIZE == 8)
                          M         if (((LCDOUT) & 1000h) == 0)
                          M         bcf     PCLATH, 4
                          M         else
                          M         bsf     PCLATH, 4
MPASM  5.49                      SDCCON~1.ASM   7-1-2005  0:07:41         PAGE 255


LOC  OBJECT CODE     LINE SOURCE TEXT
  VALUE

                          M         endif
                          M       endif
                          M     else
                          M       if ((LCDOUT) > $)
                          M         if (CODE_SIZE >= 4)
                          M           if (((LCDOUT) & 800h) == 0)
                          M         bcf     PCLATH, 3
                          M           else
                          M         bsf     PCLATH, 3
                          M           endif
                          M         endif
                          M         if (CODE_SIZE == 8)
                          M           if (((LCDOUT) & 1000h) == 0)
                          M         bcf     PCLATH, 4
                          M           else
                          M         bsf     PCLATH, 4
                          M           endif
                          M         endif
                          M       else
                          M         if (CODE_SIZE >= 4)
                          M           if (((LCDOUT) & 1800h) == 0)
02EE   018A               M         clrf    PCLATH
                          M           else
                          M             if (((LCDOUT) & 800h) == 0)
                          M         bcf     PCLATH, 3
                          M             else
                          M         bsf     PCLATH, 3
                          M             endif
                          M             if (CODE_SIZE == 8)
                          M               if (((LCDOUT) & 1000h) == 0)
                          M         bcf     PCLATH, 4
                          M               else
                          M         bsf     PCLATH, 4
                          M               endif
                          M             endif
                          M           endif
                          M         endif
                          M       endif
                          M     endif
                          M 
02EF   2003               M         call    LCDOUT
                      00249         LCDOUTCOUNT?C   000h
                          M         MOVE?CB 000h, R4 + 1
                          M         CHK?RP  R4 + 1
                          M     if (((R4 + 1) & 180h) == 0)
                          M       if (PREV_BANK == 1)
                          M         bcf     STATUS, RP0
                          M       endif
                          M       if (PREV_BANK == 2)
                          M         bcf     STATUS, RP1
                          M       endif
                          M       if (PREV_BANK == 3)
                          M         bcf     STATUS, RP0
MPASM  5.49                      SDCCON~1.ASM   7-1-2005  0:07:41         PAGE 256


LOC  OBJECT CODE     LINE SOURCE TEXT
  VALUE

                          M         bcf     STATUS, RP1
                          M       endif
  00000000                M PREV_BANK = 0
                          M     endif
                          M 
                          M     if (((R4 + 1) & 180h) == 80h)
                          M       if (PREV_BANK == 0)
                          M         bsf     STATUS, RP0
                          M       endif
                          M       if (PREV_BANK == 2)
                          M         bsf     STATUS, RP0
                          M         bcf     STATUS, RP1
                          M       endif
                          M       if (PREV_BANK == 3)
                          M         bcf     STATUS, RP1
                          M       endif
                          M PREV_BANK = 1
                          M     endif
                          M 
                          M     if (((R4 + 1) & 180h) == 100h)
                          M       if (PREV_BANK == 0)
                          M         bsf     STATUS, RP1
                          M       endif
                          M       if (PREV_BANK == 1)
                          M         bcf     STATUS, RP0
                          M         bsf     STATUS, RP1
                          M       endif
                          M       if (PREV_BANK == 3)
                          M         bcf     STATUS, RP0
                          M       endif
                          M PREV_BANK = 2
                          M     endif
                          M 
                          M     if (((R4 + 1) & 180h) == 180h)
                          M       if (PREV_BANK == 0)
                          M         bsf     STATUS, RP0
                          M         bsf     STATUS, RP1
                          M       endif
                          M       if (PREV_BANK == 1)
                          M         bsf     STATUS, RP1
                          M       endif
                          M       if (PREV_BANK == 2)
                          M         bsf     STATUS, RP0
                          M       endif
                          M PREV_BANK = 3
                          M     endif
                          M     if (low (000h) == 0)
02F0   01A9               M         clrf    R4 + 1
                          M     else
                          M         movlw   low (000h)
                          M         movwf   R4 + 1
                          M     endif
                      00250         LCDOUTNUM?B     _tempMax
MPASM  5.49                      SDCCON~1.ASM   7-1-2005  0:07:41         PAGE 257


LOC  OBJECT CODE     LINE SOURCE TEXT
  VALUE

                          M         MOVE?BW _tempMax, R2
                          M         CHK?RP  _tempMax
                          M     if (((_tempMax) & 180h) == 0)
                          M       if (PREV_BANK == 1)
                          M         bcf     STATUS, RP0
                          M       endif
                          M       if (PREV_BANK == 2)
                          M         bcf     STATUS, RP1
                          M       endif
                          M       if (PREV_BANK == 3)
                          M         bcf     STATUS, RP0
                          M         bcf     STATUS, RP1
                          M       endif
  00000000                M PREV_BANK = 0
                          M     endif
                          M 
                          M     if (((_tempMax) & 180h) == 80h)
                          M       if (PREV_BANK == 0)
                          M         bsf     STATUS, RP0
                          M       endif
                          M       if (PREV_BANK == 2)
                          M         bsf     STATUS, RP0
                          M         bcf     STATUS, RP1
                          M       endif
                          M       if (PREV_BANK == 3)
                          M         bcf     STATUS, RP1
                          M       endif
                          M PREV_BANK = 1
                          M     endif
                          M 
                          M     if (((_tempMax) & 180h) == 100h)
                          M       if (PREV_BANK == 0)
                          M         bsf     STATUS, RP1
                          M       endif
                          M       if (PREV_BANK == 1)
                          M         bcf     STATUS, RP0
                          M         bsf     STATUS, RP1
                          M       endif
                          M       if (PREV_BANK == 3)
                          M         bcf     STATUS, RP0
                          M       endif
                          M PREV_BANK = 2
                          M     endif
                          M 
                          M     if (((_tempMax) & 180h) == 180h)
                          M       if (PREV_BANK == 0)
                          M         bsf     STATUS, RP0
                          M         bsf     STATUS, RP1
                          M       endif
                          M       if (PREV_BANK == 1)
                          M         bsf     STATUS, RP1
                          M       endif
                          M       if (PREV_BANK == 2)
MPASM  5.49                      SDCCON~1.ASM   7-1-2005  0:07:41         PAGE 258


LOC  OBJECT CODE     LINE SOURCE TEXT
  VALUE

                          M         bsf     STATUS, RP0
                          M       endif
                          M PREV_BANK = 3
                          M     endif
02F1   083A               M         movf    _tempMax, W
                          M         CHK?RP  R2
                          M     if (((R2)    & 180h) == 0)
                          M       if (PREV_BANK == 1)
                          M         bcf     STATUS, RP0
                          M       endif
                          M       if (PREV_BANK == 2)
                          M         bcf     STATUS, RP1
                          M       endif
                          M       if (PREV_BANK == 3)
                          M         bcf     STATUS, RP0
                          M         bcf     STATUS, RP1
                          M       endif
  00000000                M PREV_BANK = 0
                          M     endif
                          M 
                          M     if (((R2)    & 180h) == 80h)
                          M       if (PREV_BANK == 0)
                          M         bsf     STATUS, RP0
                          M       endif
                          M       if (PREV_BANK == 2)
                          M         bsf     STATUS, RP0
                          M         bcf     STATUS, RP1
                          M       endif
                          M       if (PREV_BANK == 3)
                          M         bcf     STATUS, RP1
                          M       endif
                          M PREV_BANK = 1
                          M     endif
                          M 
                          M     if (((R2)    & 180h) == 100h)
                          M       if (PREV_BANK == 0)
                          M         bsf     STATUS, RP1
                          M       endif
                          M       if (PREV_BANK == 1)
                          M         bcf     STATUS, RP0
                          M         bsf     STATUS, RP1
                          M       endif
                          M       if (PREV_BANK == 3)
                          M         bcf     STATUS, RP0
                          M       endif
                          M PREV_BANK = 2
                          M     endif
                          M 
                          M     if (((R2)    & 180h) == 180h)
                          M       if (PREV_BANK == 0)
                          M         bsf     STATUS, RP0
                          M         bsf     STATUS, RP1
                          M       endif
MPASM  5.49                      SDCCON~1.ASM   7-1-2005  0:07:41         PAGE 259


LOC  OBJECT CODE     LINE SOURCE TEXT
  VALUE

                          M       if (PREV_BANK == 1)
                          M         bsf     STATUS, RP1
                          M       endif
                          M       if (PREV_BANK == 2)
                          M         bsf     STATUS, RP0
                          M       endif
                          M PREV_BANK = 3
                          M     endif
02F2   00A4               M         movwf   R2
02F3   01A5               M         clrf    (R2)   + 1
                      00251         LCDOUTDEC?      
                          M         MOVE?CW LCDOUTJ, R8
                          M         MOVE?CB low (LCDOUTJ), R8
                          M         CHK?RP  R8
                          M     if (((R8)    & 180h) == 0)
                          M       if (PREV_BANK == 1)
                          M         bcf     STATUS, RP0
                          M       endif
                          M       if (PREV_BANK == 2)
                          M         bcf     STATUS, RP1
                          M       endif
                          M       if (PREV_BANK == 3)
                          M         bcf     STATUS, RP0
                          M         bcf     STATUS, RP1
                          M       endif
  00000000                M PREV_BANK = 0
                          M     endif
                          M 
                          M     if (((R8)    & 180h) == 80h)
                          M       if (PREV_BANK == 0)
                          M         bsf     STATUS, RP0
                          M       endif
                          M       if (PREV_BANK == 2)
                          M         bsf     STATUS, RP0
                          M         bcf     STATUS, RP1
                          M       endif
                          M       if (PREV_BANK == 3)
                          M         bcf     STATUS, RP1
                          M       endif
                          M PREV_BANK = 1
                          M     endif
                          M 
                          M     if (((R8)    & 180h) == 100h)
                          M       if (PREV_BANK == 0)
                          M         bsf     STATUS, RP1
                          M       endif
                          M       if (PREV_BANK == 1)
                          M         bcf     STATUS, RP0
                          M         bsf     STATUS, RP1
                          M       endif
                          M       if (PREV_BANK == 3)
                          M         bcf     STATUS, RP0
                          M       endif
MPASM  5.49                      SDCCON~1.ASM   7-1-2005  0:07:41         PAGE 260


LOC  OBJECT CODE     LINE SOURCE TEXT
  VALUE

                          M PREV_BANK = 2
                          M     endif
                          M 
                          M     if (((R8)    & 180h) == 180h)
                          M       if (PREV_BANK == 0)
                          M         bsf     STATUS, RP0
                          M         bsf     STATUS, RP1
                          M       endif
                          M       if (PREV_BANK == 1)
                          M         bsf     STATUS, RP1
                          M       endif
                          M       if (PREV_BANK == 2)
                          M         bsf     STATUS, RP0
                          M       endif
                          M PREV_BANK = 3
                          M     endif
                          M     if (low (low (LCDOUTJ)) == 0)
                          M         clrf    R8
                          M     else
02F4   3002               M         movlw   low (low (LCDOUTJ))
02F5   00B0               M         movwf   R8
                          M     endif
                          M         MOVE?CB high (LCDOUTJ), (R8) + 1
                          M         CHK?RP  (R8) + 1
                          M     if ((((R8) + 1) & 180h) == 0)
                          M       if (PREV_BANK == 1)
                          M         bcf     STATUS, RP0
                          M       endif
                          M       if (PREV_BANK == 2)
                          M         bcf     STATUS, RP1
                          M       endif
                          M       if (PREV_BANK == 3)
                          M         bcf     STATUS, RP0
                          M         bcf     STATUS, RP1
                          M       endif
  00000000                M PREV_BANK = 0
                          M     endif
                          M 
                          M     if ((((R8) + 1) & 180h) == 80h)
                          M       if (PREV_BANK == 0)
                          M         bsf     STATUS, RP0
                          M       endif
                          M       if (PREV_BANK == 2)
                          M         bsf     STATUS, RP0
                          M         bcf     STATUS, RP1
                          M       endif
                          M       if (PREV_BANK == 3)
                          M         bcf     STATUS, RP1
                          M       endif
                          M PREV_BANK = 1
                          M     endif
                          M 
                          M     if ((((R8) + 1) & 180h) == 100h)
MPASM  5.49                      SDCCON~1.ASM   7-1-2005  0:07:41         PAGE 261


LOC  OBJECT CODE     LINE SOURCE TEXT
  VALUE

                          M       if (PREV_BANK == 0)
                          M         bsf     STATUS, RP1
                          M       endif
                          M       if (PREV_BANK == 1)
                          M         bcf     STATUS, RP0
                          M         bsf     STATUS, RP1
                          M       endif
                          M       if (PREV_BANK == 3)
                          M         bcf     STATUS, RP0
                          M       endif
                          M PREV_BANK = 2
                          M     endif
                          M 
                          M     if ((((R8) + 1) & 180h) == 180h)
                          M       if (PREV_BANK == 0)
                          M         bsf     STATUS, RP0
                          M         bsf     STATUS, RP1
                          M       endif
                          M       if (PREV_BANK == 1)
                          M         bsf     STATUS, RP1
                          M       endif
                          M       if (PREV_BANK == 2)
                          M         bsf     STATUS, RP0
                          M       endif
                          M PREV_BANK = 3
                          M     endif
                          M     if (low (high (LCDOUTJ)) == 0)
02F6   01B1               M         clrf    (R8) + 1
                          M     else
                          M         movlw   low (high (LCDOUTJ))
                          M         movwf   (R8) + 1
                          M     endif
                          M         L?CALL  SEROUT2DEC
                          M         RST?RP
                          M     if ((PREV_BANK & 1) != 0)
                          M         bcf     STATUS, RP0
                          M     endif
                          M     if ((PREV_BANK & 2) != 0)
                          M         bcf     STATUS, RP1
                          M     endif
  00000000                M PREV_BANK = 0
                          M 
                          M     if ((SEROUT2DEC) < 1)
                          M       if (CODE_SIZE >= 4)
                          M         if (((SEROUT2DEC) & 800h) == 0)
                          M         bcf     PCLATH, 3
                          M         else
                          M         bsf     PCLATH, 3
                          M         endif
                          M       endif
                          M       if (CODE_SIZE == 8)
                          M         if (((SEROUT2DEC) & 1000h) == 0)
                          M         bcf     PCLATH, 4
MPASM  5.49                      SDCCON~1.ASM   7-1-2005  0:07:41         PAGE 262


LOC  OBJECT CODE     LINE SOURCE TEXT
  VALUE

                          M         else
                          M         bsf     PCLATH, 4
                          M         endif
                          M       endif
                          M     else
                          M       if ((SEROUT2DEC) > $)
                          M         if (CODE_SIZE >= 4)
                          M           if (((SEROUT2DEC) & 800h) == 0)
                          M         bcf     PCLATH, 3
                          M           else
                          M         bsf     PCLATH, 3
                          M           endif
                          M         endif
                          M         if (CODE_SIZE == 8)
                          M           if (((SEROUT2DEC) & 1000h) == 0)
                          M         bcf     PCLATH, 4
                          M           else
                          M         bsf     PCLATH, 4
                          M           endif
                          M         endif
                          M       else
                          M         if (CODE_SIZE >= 4)
                          M           if (((SEROUT2DEC) & 1800h) == 0)
02F7   018A               M         clrf    PCLATH
                          M           else
                          M             if (((SEROUT2DEC) & 800h) == 0)
                          M         bcf     PCLATH, 3
                          M             else
                          M         bsf     PCLATH, 3
                          M             endif
                          M             if (CODE_SIZE == 8)
                          M               if (((SEROUT2DEC) & 1000h) == 0)
                          M         bcf     PCLATH, 4
                          M               else
                          M         bsf     PCLATH, 4
                          M               endif
                          M             endif
                          M           endif
                          M         endif
                          M       endif
                          M     endif
                          M 
02F8   2052               M         call    SEROUT2DEC
                      00252         LCDOUT?C        _g
02F9   30DF               M         movlw   _g
                          M         L?CALL  LCDOUT
                          M         RST?RP
                          M     if ((PREV_BANK & 1) != 0)
                          M         bcf     STATUS, RP0
                          M     endif
                          M     if ((PREV_BANK & 2) != 0)
                          M         bcf     STATUS, RP1
                          M     endif
MPASM  5.49                      SDCCON~1.ASM   7-1-2005  0:07:41         PAGE 263


LOC  OBJECT CODE     LINE SOURCE TEXT
  VALUE

  00000000                M PREV_BANK = 0
                          M 
                          M     if ((LCDOUT) < 1)
                          M       if (CODE_SIZE >= 4)
                          M         if (((LCDOUT) & 800h) == 0)
                          M         bcf     PCLATH, 3
                          M         else
                          M         bsf     PCLATH, 3
                          M         endif
                          M       endif
                          M       if (CODE_SIZE == 8)
                          M         if (((LCDOUT) & 1000h) == 0)
                          M         bcf     PCLATH, 4
                          M         else
                          M         bsf     PCLATH, 4
                          M         endif
                          M       endif
                          M     else
                          M       if ((LCDOUT) > $)
                          M         if (CODE_SIZE >= 4)
                          M           if (((LCDOUT) & 800h) == 0)
                          M         bcf     PCLATH, 3
                          M           else
                          M         bsf     PCLATH, 3
                          M           endif
                          M         endif
                          M         if (CODE_SIZE == 8)
                          M           if (((LCDOUT) & 1000h) == 0)
                          M         bcf     PCLATH, 4
                          M           else
                          M         bsf     PCLATH, 4
                          M           endif
                          M         endif
                          M       else
                          M         if (CODE_SIZE >= 4)
                          M           if (((LCDOUT) & 1800h) == 0)
02FA   018A               M         clrf    PCLATH
                          M           else
                          M             if (((LCDOUT) & 800h) == 0)
                          M         bcf     PCLATH, 3
                          M             else
                          M         bsf     PCLATH, 3
                          M             endif
                          M             if (CODE_SIZE == 8)
                          M               if (((LCDOUT) & 1000h) == 0)
                          M         bcf     PCLATH, 4
                          M               else
                          M         bsf     PCLATH, 4
                          M               endif
                          M             endif
                          M           endif
                          M         endif
                          M       endif
MPASM  5.49                      SDCCON~1.ASM   7-1-2005  0:07:41         PAGE 264


LOC  OBJECT CODE     LINE SOURCE TEXT
  VALUE

                          M     endif
                          M 
02FB   2003               M         call    LCDOUT
                      00253         LCDOUT?C        043h
02FC   3043               M         movlw   043h
                          M         L?CALL  LCDOUT
                          M         RST?RP
                          M     if ((PREV_BANK & 1) != 0)
                          M         bcf     STATUS, RP0
                          M     endif
                          M     if ((PREV_BANK & 2) != 0)
                          M         bcf     STATUS, RP1
                          M     endif
  00000000                M PREV_BANK = 0
                          M 
                          M     if ((LCDOUT) < 1)
                          M       if (CODE_SIZE >= 4)
                          M         if (((LCDOUT) & 800h) == 0)
                          M         bcf     PCLATH, 3
                          M         else
                          M         bsf     PCLATH, 3
                          M         endif
                          M       endif
                          M       if (CODE_SIZE == 8)
                          M         if (((LCDOUT) & 1000h) == 0)
                          M         bcf     PCLATH, 4
                          M         else
                          M         bsf     PCLATH, 4
                          M         endif
                          M       endif
                          M     else
                          M       if ((LCDOUT) > $)
                          M         if (CODE_SIZE >= 4)
                          M           if (((LCDOUT) & 800h) == 0)
                          M         bcf     PCLATH, 3
                          M           else
                          M         bsf     PCLATH, 3
                          M           endif
                          M         endif
                          M         if (CODE_SIZE == 8)
                          M           if (((LCDOUT) & 1000h) == 0)
                          M         bcf     PCLATH, 4
                          M           else
                          M         bsf     PCLATH, 4
                          M           endif
                          M         endif
                          M       else
                          M         if (CODE_SIZE >= 4)
                          M           if (((LCDOUT) & 1800h) == 0)
02FD   018A               M         clrf    PCLATH
                          M           else
                          M             if (((LCDOUT) & 800h) == 0)
                          M         bcf     PCLATH, 3
MPASM  5.49                      SDCCON~1.ASM   7-1-2005  0:07:41         PAGE 265


LOC  OBJECT CODE     LINE SOURCE TEXT
  VALUE

                          M             else
                          M         bsf     PCLATH, 3
                          M             endif
                          M             if (CODE_SIZE == 8)
                          M               if (((LCDOUT) & 1000h) == 0)
                          M         bcf     PCLATH, 4
                          M               else
                          M         bsf     PCLATH, 4
                          M               endif
                          M             endif
                          M           endif
                          M         endif
                          M       endif
                          M     endif
                          M 
02FE   2003               M         call    LCDOUT
                      00254         PAUSE?C 064h
                          M     if (((064h) >> 8) == 0)
                          M         MOVE?CA 064h
02FF   3064               M         movlw   low (064h)
                          M         L?CALL  PAUSE
                          M         RST?RP
                          M     if ((PREV_BANK & 1) != 0)
                          M         bcf     STATUS, RP0
                          M     endif
                          M     if ((PREV_BANK & 2) != 0)
                          M         bcf     STATUS, RP1
                          M     endif
  00000000                M PREV_BANK = 0
                          M 
                          M     if ((PAUSE) < 1)
                          M       if (CODE_SIZE >= 4)
                          M         if (((PAUSE) & 800h) == 0)
                          M         bcf     PCLATH, 3
                          M         else
                          M         bsf     PCLATH, 3
                          M         endif
                          M       endif
                          M       if (CODE_SIZE == 8)
                          M         if (((PAUSE) & 1000h) == 0)
                          M         bcf     PCLATH, 4
                          M         else
                          M         bsf     PCLATH, 4
                          M         endif
                          M       endif
                          M     else
                          M       if ((PAUSE) > $)
                          M         if (CODE_SIZE >= 4)
                          M           if (((PAUSE) & 800h) == 0)
                          M         bcf     PCLATH, 3
                          M           else
                          M         bsf     PCLATH, 3
                          M           endif
MPASM  5.49                      SDCCON~1.ASM   7-1-2005  0:07:41         PAGE 266


LOC  OBJECT CODE     LINE SOURCE TEXT
  VALUE

                          M         endif
                          M         if (CODE_SIZE == 8)
                          M           if (((PAUSE) & 1000h) == 0)
                          M         bcf     PCLATH, 4
                          M           else
                          M         bsf     PCLATH, 4
                          M           endif
                          M         endif
                          M       else
                          M         if (CODE_SIZE >= 4)
                          M           if (((PAUSE) & 1800h) == 0)
0300   018A               M         clrf    PCLATH
                          M           else
                          M             if (((PAUSE) & 800h) == 0)
                          M         bcf     PCLATH, 3
                          M             else
                          M         bsf     PCLATH, 3
                          M             endif
                          M             if (CODE_SIZE == 8)
                          M               if (((PAUSE) & 1000h) == 0)
                          M         bcf     PCLATH, 4
                          M               else
                          M         bsf     PCLATH, 4
                          M               endif
                          M             endif
                          M           endif
                          M         endif
                          M       endif
                          M     endif
                          M 
0301   20A9               M         call    PAUSE
                          M     else
                          M         MOVE?CB (064h) >> 8, R1 + 1
                          M         MOVE?CA low (064h)
                          M         L?CALL  PAUSEL
                          M     endif
                      00255         CMPEQ?TCL       _botonBajar, 001h, _restar2
                          M     if (((001h) == 0) | ((001h) == 1))
                          M         CLRWDT?
                          M     ifndef NO_CLRWDT
0302   0064               M         clrwdt
                          M     endif
                          M         BIT?GOTO 001h, PORTD, 006h, _restar2
                          M     if ($ == (_restar2))
                          M         CLRWDT?
                          M     endif
                          M 
                          M     if (CODE_SIZE >= 4)
                          M       if (((_restar2) & 800h) == 0)
0303   118A               M         bcf     PCLATH, 3
                          M       else
                          M         bsf     PCLATH, 3
                          M       endif
MPASM  5.49                      SDCCON~1.ASM   7-1-2005  0:07:41         PAGE 267


LOC  OBJECT CODE     LINE SOURCE TEXT
  VALUE

                          M     endif
                          M     if (CODE_SIZE == 8)
                          M       if (((_restar2) & 1000h) == 0)
0304   120A               M         bcf     PCLATH, 4
                          M       else
                          M         bsf     PCLATH, 4
                          M       endif
                          M     endif
                          M 
                          M     if (((PORTD) & 0ff80h) != 0)
                          M         CHK?RP  PORTD
                          M         bcf     STATUS, DC
                          M       if ((001h)   == 0)
                          M         btfss   PORTD, 006h
                          M       else
                          M         btfsc   PORTD, 006h
                          M       endif
                          M         bsf     STATUS, DC
                          M         RST?RP
                          M         btfsc   STATUS, DC
                          M     else
                          M         RST?RP
                          M     if ((PREV_BANK & 1) != 0)
                          M         bcf     STATUS, RP0
                          M     endif
                          M     if ((PREV_BANK & 2) != 0)
                          M         bcf     STATUS, RP1
                          M     endif
  00000000                M PREV_BANK = 0
                          M       if ((001h)   == 0)
                          M         btfss   PORTD, 006h
                          M       else
0305   1B08               M         btfsc   PORTD, 006h
                          M       endif
                          M     endif
                          M 
0306   2B13               M         goto    _restar2
                          M     endif
                      00256         CMPEQ?TCL       _botonSubir, 001h, _sumar2
                          M     if (((001h) == 0) | ((001h) == 1))
                          M         CLRWDT?
                          M     ifndef NO_CLRWDT
0307   0064               M         clrwdt
                          M     endif
                          M         BIT?GOTO 001h, PORTD, 007h, _sumar2
                          M     if ($ == (_sumar2))
                          M         CLRWDT?
                          M     endif
                          M 
                          M     if (CODE_SIZE >= 4)
                          M       if (((_sumar2) & 800h) == 0)
0308   118A               M         bcf     PCLATH, 3
                          M       else
MPASM  5.49                      SDCCON~1.ASM   7-1-2005  0:07:41         PAGE 268


LOC  OBJECT CODE     LINE SOURCE TEXT
  VALUE

                          M         bsf     PCLATH, 3
                          M       endif
                          M     endif
                          M     if (CODE_SIZE == 8)
                          M       if (((_sumar2) & 1000h) == 0)
0309   120A               M         bcf     PCLATH, 4
                          M       else
                          M         bsf     PCLATH, 4
                          M       endif
                          M     endif
                          M 
                          M     if (((PORTD) & 0ff80h) != 0)
                          M         CHK?RP  PORTD
                          M         bcf     STATUS, DC
                          M       if ((001h)   == 0)
                          M         btfss   PORTD, 007h
                          M       else
                          M         btfsc   PORTD, 007h
                          M       endif
                          M         bsf     STATUS, DC
                          M         RST?RP
                          M         btfsc   STATUS, DC
                          M     else
                          M         RST?RP
                          M     if ((PREV_BANK & 1) != 0)
                          M         bcf     STATUS, RP0
                          M     endif
                          M     if ((PREV_BANK & 2) != 0)
                          M         bcf     STATUS, RP1
                          M     endif
  00000000                M PREV_BANK = 0
                          M       if ((001h)   == 0)
                          M         btfss   PORTD, 007h
                          M       else
030A   1B88               M         btfsc   PORTD, 007h
                          M       endif
                          M     endif
                          M 
030B   2B20               M         goto    _sumar2
                          M     endif
                      00257         CMPEQ?TCL       _enter, 001h, _grabarB
                          M     if (((001h) == 0) | ((001h) == 1))
                          M         CLRWDT?
                          M     ifndef NO_CLRWDT
030C   0064               M         clrwdt
                          M     endif
                          M         BIT?GOTO 001h, PORTD, 005h, _grabarB
                          M     if ($ == (_grabarB))
                          M         CLRWDT?
                          M     endif
                          M 
                          M     if (CODE_SIZE >= 4)
                          M       if (((_grabarB) & 800h) == 0)
MPASM  5.49                      SDCCON~1.ASM   7-1-2005  0:07:41         PAGE 269


LOC  OBJECT CODE     LINE SOURCE TEXT
  VALUE

030D   118A               M         bcf     PCLATH, 3
                          M       else
                          M         bsf     PCLATH, 3
                          M       endif
                          M     endif
                          M     if (CODE_SIZE == 8)
                          M       if (((_grabarB) & 1000h) == 0)
030E   120A               M         bcf     PCLATH, 4
                          M       else
                          M         bsf     PCLATH, 4
                          M       endif
                          M     endif
                          M 
                          M     if (((PORTD) & 0ff80h) != 0)
                          M         CHK?RP  PORTD
                          M         bcf     STATUS, DC
                          M       if ((001h)   == 0)
                          M         btfss   PORTD, 005h
                          M       else
                          M         btfsc   PORTD, 005h
                          M       endif
                          M         bsf     STATUS, DC
                          M         RST?RP
                          M         btfsc   STATUS, DC
                          M     else
                          M         RST?RP
                          M     if ((PREV_BANK & 1) != 0)
                          M         bcf     STATUS, RP0
                          M     endif
                          M     if ((PREV_BANK & 2) != 0)
                          M         bcf     STATUS, RP1
                          M     endif
  00000000                M PREV_BANK = 0
                          M       if ((001h)   == 0)
                          M         btfss   PORTD, 005h
                          M       else
030F   1A88               M         btfsc   PORTD, 005h
                          M       endif
                          M     endif
                          M 
0310   2B2D               M         goto    _grabarB
                          M     endif
                      00258         GOTO?L  _grabar2
                          M         L?GOTO  _grabar2
                          M     if ($ == (_grabar2))
                          M         CLRWDT?
                          M     endif
                          M 
                          M         RST?RP
                          M     if ((PREV_BANK & 1) != 0)
                          M         bcf     STATUS, RP0
                          M     endif
                          M     if ((PREV_BANK & 2) != 0)
MPASM  5.49                      SDCCON~1.ASM   7-1-2005  0:07:41         PAGE 270


LOC  OBJECT CODE     LINE SOURCE TEXT
  VALUE

                          M         bcf     STATUS, RP1
                          M     endif
  00000000                M PREV_BANK = 0
                          M 
                          M     if ((_grabar2) < 1)
                          M       if (CODE_SIZE >= 4)
                          M         if (((_grabar2) & 800h) == 0)
                          M         bcf     PCLATH, 3
                          M         else
                          M         bsf     PCLATH, 3
                          M         endif
                          M       endif
                          M       if (CODE_SIZE == 8)
                          M         if (((_grabar2) & 1000h) == 0)
                          M         bcf     PCLATH, 4
                          M         else
                          M         bsf     PCLATH, 4
                          M         endif
                          M       endif
                          M     else
                          M       if ((_grabar2) > $)
                          M         if (CODE_SIZE >= 4)
                          M           if (((_grabar2) & 800h) == 0)
                          M         bcf     PCLATH, 3
                          M           else
                          M         bsf     PCLATH, 3
                          M           endif
                          M         endif
                          M         if (CODE_SIZE == 8)
                          M           if (((_grabar2) & 1000h) == 0)
                          M         bcf     PCLATH, 4
                          M           else
                          M         bsf     PCLATH, 4
                          M           endif
                          M         endif
                          M       else
                          M         if (CODE_SIZE >= 4)
                          M           if (((_grabar2) & 1800h) == 0)
0311   018A               M         clrf    PCLATH
                          M           else
                          M             if (((_grabar2) & 800h) == 0)
                          M         bcf     PCLATH, 3
                          M             else
                          M         bsf     PCLATH, 3
                          M             endif
                          M             if (CODE_SIZE == 8)
                          M               if (((_grabar2) & 1000h) == 0)
                          M         bcf     PCLATH, 4
                          M               else
                          M         bsf     PCLATH, 4
                          M               endif
                          M             endif
                          M           endif
MPASM  5.49                      SDCCON~1.ASM   7-1-2005  0:07:41         PAGE 271


LOC  OBJECT CODE     LINE SOURCE TEXT
  VALUE

                          M         endif
                          M       endif
                          M     endif
                          M 
0312   2A96               M         goto    _grabar2
                      00259 
                      00260         LABEL?L _restar2        
                          M         RST?RP
                          M     if ((PREV_BANK & 1) != 0)
                          M         bcf     STATUS, RP0
                          M     endif
                          M     if ((PREV_BANK & 2) != 0)
                          M         bcf     STATUS, RP1
                          M     endif
  00000000                M PREV_BANK = 0
                          M     ifdef PM_USED
                          M         LALL
                          M _restar2
                          M         XALL
                          M     else
0313                      M _restar2
                          M     endif
                      00261         GOSUB?L _soltar
  0000                    M     local dlabel
                          M     ifdef DEBUG_STACK
                          M         CHK?RP  DEBUG_STACK
                          M       ifdef DEBUG_STACK_ADDR
                          M         bcf     STATUS, C
                          M         rlf     DEBUG_STACK, W
                          M         addlw   DEBUG_STACK_ADDR
                          M         movwf   FSR
                          M         movlw   low (dlabel)
                          M         movwf   INDF
                          M         incf    FSR, F
                          M         movlw   (dlabel) >> 8
                          M         movwf   INDF
                          M       endif
                          M         incf    DEBUG_STACK, F
                          M     endif
                          M         L?CALL  _soltar
                          M         RST?RP
                          M     if ((PREV_BANK & 1) != 0)
                          M         bcf     STATUS, RP0
                          M     endif
                          M     if ((PREV_BANK & 2) != 0)
                          M         bcf     STATUS, RP1
                          M     endif
  00000000                M PREV_BANK = 0
                          M 
                          M     if ((_soltar) < 1)
                          M       if (CODE_SIZE >= 4)
                          M         if (((_soltar) & 800h) == 0)
                          M         bcf     PCLATH, 3
MPASM  5.49                      SDCCON~1.ASM   7-1-2005  0:07:41         PAGE 272


LOC  OBJECT CODE     LINE SOURCE TEXT
  VALUE

                          M         else
                          M         bsf     PCLATH, 3
                          M         endif
                          M       endif
                          M       if (CODE_SIZE == 8)
                          M         if (((_soltar) & 1000h) == 0)
                          M         bcf     PCLATH, 4
                          M         else
                          M         bsf     PCLATH, 4
                          M         endif
                          M       endif
                          M     else
                          M       if ((_soltar) > $)
                          M         if (CODE_SIZE >= 4)
                          M           if (((_soltar) & 800h) == 0)
0313   118A               M         bcf     PCLATH, 3
                          M           else
                          M         bsf     PCLATH, 3
                          M           endif
                          M         endif
                          M         if (CODE_SIZE == 8)
                          M           if (((_soltar) & 1000h) == 0)
0314   120A               M         bcf     PCLATH, 4
                          M           else
                          M         bsf     PCLATH, 4
                          M           endif
                          M         endif
                          M       else
                          M         if (CODE_SIZE >= 4)
                          M           if (((_soltar) & 1800h) == 0)
                          M         clrf    PCLATH
                          M           else
                          M             if (((_soltar) & 800h) == 0)
                          M         bcf     PCLATH, 3
                          M             else
                          M         bsf     PCLATH, 3
                          M             endif
                          M             if (CODE_SIZE == 8)
                          M               if (((_soltar) & 1000h) == 0)
                          M         bcf     PCLATH, 4
                          M               else
                          M         bsf     PCLATH, 4
                          M               endif
                          M             endif
                          M           endif
                          M         endif
                          M       endif
                          M     endif
                          M 
0315   2339               M         call    _soltar
0316                      M dlabel
                      00262         CMPLT?BCL       _tempMax, 018h, _grabar2
                          M     if ((018h) >= 100h)
MPASM  5.49                      SDCCON~1.ASM   7-1-2005  0:07:41         PAGE 273


LOC  OBJECT CODE     LINE SOURCE TEXT
  VALUE

                          M         L?GOTO  _grabar2
                          M     else
                          M       if ((018h) > 0)
                          M         CLRWDT?
                          M     ifndef NO_CLRWDT
0316   0064               M         clrwdt
                          M     endif
                          M         MOVE?CA 018h
0317   3018               M         movlw   low (018h)
                          M         CHK?RP  _tempMax
                          M     if (((_tempMax) & 180h) == 0)
                          M       if (PREV_BANK == 1)
                          M         bcf     STATUS, RP0
                          M       endif
                          M       if (PREV_BANK == 2)
                          M         bcf     STATUS, RP1
                          M       endif
                          M       if (PREV_BANK == 3)
                          M         bcf     STATUS, RP0
                          M         bcf     STATUS, RP1
                          M       endif
  00000000                M PREV_BANK = 0
                          M     endif
                          M 
                          M     if (((_tempMax) & 180h) == 80h)
                          M       if (PREV_BANK == 0)
                          M         bsf     STATUS, RP0
                          M       endif
                          M       if (PREV_BANK == 2)
                          M         bsf     STATUS, RP0
                          M         bcf     STATUS, RP1
                          M       endif
                          M       if (PREV_BANK == 3)
                          M         bcf     STATUS, RP1
                          M       endif
                          M PREV_BANK = 1
                          M     endif
                          M 
                          M     if (((_tempMax) & 180h) == 100h)
                          M       if (PREV_BANK == 0)
                          M         bsf     STATUS, RP1
                          M       endif
                          M       if (PREV_BANK == 1)
                          M         bcf     STATUS, RP0
                          M         bsf     STATUS, RP1
                          M       endif
                          M       if (PREV_BANK == 3)
                          M         bcf     STATUS, RP0
                          M       endif
                          M PREV_BANK = 2
                          M     endif
                          M 
                          M     if (((_tempMax) & 180h) == 180h)
MPASM  5.49                      SDCCON~1.ASM   7-1-2005  0:07:41         PAGE 274


LOC  OBJECT CODE     LINE SOURCE TEXT
  VALUE

                          M       if (PREV_BANK == 0)
                          M         bsf     STATUS, RP0
                          M         bsf     STATUS, RP1
                          M       endif
                          M       if (PREV_BANK == 1)
                          M         bsf     STATUS, RP1
                          M       endif
                          M       if (PREV_BANK == 2)
                          M         bsf     STATUS, RP0
                          M       endif
                          M PREV_BANK = 3
                          M     endif
0318   023A               M         subwf   _tempMax, W
                          M         BIT?GOTO 0, STATUS, C, _grabar2
                          M     if ($ == (_grabar2))
                          M         CLRWDT?
                          M     endif
                          M 
                          M     if (CODE_SIZE >= 4)
                          M       if (((_grabar2) & 800h) == 0)
0319   118A               M         bcf     PCLATH, 3
                          M       else
                          M         bsf     PCLATH, 3
                          M       endif
                          M     endif
                          M     if (CODE_SIZE == 8)
                          M       if (((_grabar2) & 1000h) == 0)
031A   120A               M         bcf     PCLATH, 4
                          M       else
                          M         bsf     PCLATH, 4
                          M       endif
                          M     endif
                          M 
                          M     if (((STATUS) & 0ff80h) != 0)
                          M         CHK?RP  STATUS
                          M         bcf     STATUS, DC
                          M       if ((0)      == 0)
                          M         btfss   STATUS, C
                          M       else
                          M         btfsc   STATUS, C
                          M       endif
                          M         bsf     STATUS, DC
                          M         RST?RP
                          M         btfsc   STATUS, DC
                          M     else
                          M         RST?RP
                          M     if ((PREV_BANK & 1) != 0)
                          M         bcf     STATUS, RP0
                          M     endif
                          M     if ((PREV_BANK & 2) != 0)
                          M         bcf     STATUS, RP1
                          M     endif
  00000000                M PREV_BANK = 0
MPASM  5.49                      SDCCON~1.ASM   7-1-2005  0:07:41         PAGE 275


LOC  OBJECT CODE     LINE SOURCE TEXT
  VALUE

                          M       if ((0)      == 0)
031B   1C03               M         btfss   STATUS, C
                          M       else
                          M         btfsc   STATUS, C
                          M       endif
                          M     endif
                          M 
031C   2A96               M         goto    _grabar2
                          M       endif
                          M     endif
                      00263         SUB?BCB _tempMax, 001h, _tempMax
                          M     if ((_tempMax) == (_tempMax))
                          M       if ((001h) == 1)
                          M         CHK?RP  _tempMax
                          M     if (((_tempMax) & 180h) == 0)
                          M       if (PREV_BANK == 1)
                          M         bcf     STATUS, RP0
                          M       endif
                          M       if (PREV_BANK == 2)
                          M         bcf     STATUS, RP1
                          M       endif
                          M       if (PREV_BANK == 3)
                          M         bcf     STATUS, RP0
                          M         bcf     STATUS, RP1
                          M       endif
  00000000                M PREV_BANK = 0
                          M     endif
                          M 
                          M     if (((_tempMax) & 180h) == 80h)
                          M       if (PREV_BANK == 0)
                          M         bsf     STATUS, RP0
                          M       endif
                          M       if (PREV_BANK == 2)
                          M         bsf     STATUS, RP0
                          M         bcf     STATUS, RP1
                          M       endif
                          M       if (PREV_BANK == 3)
                          M         bcf     STATUS, RP1
                          M       endif
                          M PREV_BANK = 1
                          M     endif
                          M 
                          M     if (((_tempMax) & 180h) == 100h)
                          M       if (PREV_BANK == 0)
                          M         bsf     STATUS, RP1
                          M       endif
                          M       if (PREV_BANK == 1)
                          M         bcf     STATUS, RP0
                          M         bsf     STATUS, RP1
                          M       endif
                          M       if (PREV_BANK == 3)
                          M         bcf     STATUS, RP0
                          M       endif
MPASM  5.49                      SDCCON~1.ASM   7-1-2005  0:07:41         PAGE 276


LOC  OBJECT CODE     LINE SOURCE TEXT
  VALUE

                          M PREV_BANK = 2
                          M     endif
                          M 
                          M     if (((_tempMax) & 180h) == 180h)
                          M       if (PREV_BANK == 0)
                          M         bsf     STATUS, RP0
                          M         bsf     STATUS, RP1
                          M       endif
                          M       if (PREV_BANK == 1)
                          M         bsf     STATUS, RP1
                          M       endif
                          M       if (PREV_BANK == 2)
                          M         bsf     STATUS, RP0
                          M       endif
                          M PREV_BANK = 3
                          M     endif
031D   03BA               M         decf    _tempMax, F
                          M       else
                          M         movlw   001h
                          M         CHK?RP  _tempMax
                          M         subwf   _tempMax, F
                          M       endif
                          M     else
                          M       if ((001h) == 1)
                          M         CHK?RP  _tempMax
                          M         decf    _tempMax, W
                          M       else
                          M         movlw   001h
                          M         CHK?RP  _tempMax
                          M         subwf   _tempMax, W
                          M       endif
                          M         MOVE?AB _tempMax
                          M     endif
                      00264         GOTO?L  _grabar2
                          M         L?GOTO  _grabar2
                          M     if ($ == (_grabar2))
                          M         CLRWDT?
                          M     endif
                          M 
                          M         RST?RP
                          M     if ((PREV_BANK & 1) != 0)
                          M         bcf     STATUS, RP0
                          M     endif
                          M     if ((PREV_BANK & 2) != 0)
                          M         bcf     STATUS, RP1
                          M     endif
  00000000                M PREV_BANK = 0
                          M 
                          M     if ((_grabar2) < 1)
                          M       if (CODE_SIZE >= 4)
                          M         if (((_grabar2) & 800h) == 0)
                          M         bcf     PCLATH, 3
                          M         else
MPASM  5.49                      SDCCON~1.ASM   7-1-2005  0:07:41         PAGE 277


LOC  OBJECT CODE     LINE SOURCE TEXT
  VALUE

                          M         bsf     PCLATH, 3
                          M         endif
                          M       endif
                          M       if (CODE_SIZE == 8)
                          M         if (((_grabar2) & 1000h) == 0)
                          M         bcf     PCLATH, 4
                          M         else
                          M         bsf     PCLATH, 4
                          M         endif
                          M       endif
                          M     else
                          M       if ((_grabar2) > $)
                          M         if (CODE_SIZE >= 4)
                          M           if (((_grabar2) & 800h) == 0)
                          M         bcf     PCLATH, 3
                          M           else
                          M         bsf     PCLATH, 3
                          M           endif
                          M         endif
                          M         if (CODE_SIZE == 8)
                          M           if (((_grabar2) & 1000h) == 0)
                          M         bcf     PCLATH, 4
                          M           else
                          M         bsf     PCLATH, 4
                          M           endif
                          M         endif
                          M       else
                          M         if (CODE_SIZE >= 4)
                          M           if (((_grabar2) & 1800h) == 0)
031E   018A               M         clrf    PCLATH
                          M           else
                          M             if (((_grabar2) & 800h) == 0)
                          M         bcf     PCLATH, 3
                          M             else
                          M         bsf     PCLATH, 3
                          M             endif
                          M             if (CODE_SIZE == 8)
                          M               if (((_grabar2) & 1000h) == 0)
                          M         bcf     PCLATH, 4
                          M               else
                          M         bsf     PCLATH, 4
                          M               endif
                          M             endif
                          M           endif
                          M         endif
                          M       endif
                          M     endif
                          M 
031F   2A96               M         goto    _grabar2
                      00265 
                      00266         LABEL?L _sumar2 
                          M         RST?RP
                          M     if ((PREV_BANK & 1) != 0)
MPASM  5.49                      SDCCON~1.ASM   7-1-2005  0:07:41         PAGE 278


LOC  OBJECT CODE     LINE SOURCE TEXT
  VALUE

                          M         bcf     STATUS, RP0
                          M     endif
                          M     if ((PREV_BANK & 2) != 0)
                          M         bcf     STATUS, RP1
                          M     endif
  00000000                M PREV_BANK = 0
                          M     ifdef PM_USED
                          M         LALL
                          M _sumar2
                          M         XALL
                          M     else
0320                      M _sumar2
                          M     endif
                      00267         GOSUB?L _soltar
  0000                    M     local dlabel
                          M     ifdef DEBUG_STACK
                          M         CHK?RP  DEBUG_STACK
                          M       ifdef DEBUG_STACK_ADDR
                          M         bcf     STATUS, C
                          M         rlf     DEBUG_STACK, W
                          M         addlw   DEBUG_STACK_ADDR
                          M         movwf   FSR
                          M         movlw   low (dlabel)
                          M         movwf   INDF
                          M         incf    FSR, F
                          M         movlw   (dlabel) >> 8
                          M         movwf   INDF
                          M       endif
                          M         incf    DEBUG_STACK, F
                          M     endif
                          M         L?CALL  _soltar
                          M         RST?RP
                          M     if ((PREV_BANK & 1) != 0)
                          M         bcf     STATUS, RP0
                          M     endif
                          M     if ((PREV_BANK & 2) != 0)
                          M         bcf     STATUS, RP1
                          M     endif
  00000000                M PREV_BANK = 0
                          M 
                          M     if ((_soltar) < 1)
                          M       if (CODE_SIZE >= 4)
                          M         if (((_soltar) & 800h) == 0)
                          M         bcf     PCLATH, 3
                          M         else
                          M         bsf     PCLATH, 3
                          M         endif
                          M       endif
                          M       if (CODE_SIZE == 8)
                          M         if (((_soltar) & 1000h) == 0)
                          M         bcf     PCLATH, 4
                          M         else
                          M         bsf     PCLATH, 4
MPASM  5.49                      SDCCON~1.ASM   7-1-2005  0:07:41         PAGE 279


LOC  OBJECT CODE     LINE SOURCE TEXT
  VALUE

                          M         endif
                          M       endif
                          M     else
                          M       if ((_soltar) > $)
                          M         if (CODE_SIZE >= 4)
                          M           if (((_soltar) & 800h) == 0)
0320   118A               M         bcf     PCLATH, 3
                          M           else
                          M         bsf     PCLATH, 3
                          M           endif
                          M         endif
                          M         if (CODE_SIZE == 8)
                          M           if (((_soltar) & 1000h) == 0)
0321   120A               M         bcf     PCLATH, 4
                          M           else
                          M         bsf     PCLATH, 4
                          M           endif
                          M         endif
                          M       else
                          M         if (CODE_SIZE >= 4)
                          M           if (((_soltar) & 1800h) == 0)
                          M         clrf    PCLATH
                          M           else
                          M             if (((_soltar) & 800h) == 0)
                          M         bcf     PCLATH, 3
                          M             else
                          M         bsf     PCLATH, 3
                          M             endif
                          M             if (CODE_SIZE == 8)
                          M               if (((_soltar) & 1000h) == 0)
                          M         bcf     PCLATH, 4
                          M               else
                          M         bsf     PCLATH, 4
                          M               endif
                          M             endif
                          M           endif
                          M         endif
                          M       endif
                          M     endif
                          M 
0322   2339               M         call    _soltar
0323                      M dlabel
                      00268         CMPGT?BCL       _tempMax, 028h, _grabar2
                          M     if ((028h) < 0)
                          M         L?GOTO  _grabar2
                          M     else
                          M       if ((028h) < 0ffh)
                          M         CLRWDT?
                          M     ifndef NO_CLRWDT
0323   0064               M         clrwdt
                          M     endif
                          M         MOVE?CA (028h) + 1
0324   3029               M         movlw   low ((028h) + 1)
MPASM  5.49                      SDCCON~1.ASM   7-1-2005  0:07:41         PAGE 280


LOC  OBJECT CODE     LINE SOURCE TEXT
  VALUE

                          M         CHK?RP  _tempMax
                          M     if (((_tempMax) & 180h) == 0)
                          M       if (PREV_BANK == 1)
                          M         bcf     STATUS, RP0
                          M       endif
                          M       if (PREV_BANK == 2)
                          M         bcf     STATUS, RP1
                          M       endif
                          M       if (PREV_BANK == 3)
                          M         bcf     STATUS, RP0
                          M         bcf     STATUS, RP1
                          M       endif
  00000000                M PREV_BANK = 0
                          M     endif
                          M 
                          M     if (((_tempMax) & 180h) == 80h)
                          M       if (PREV_BANK == 0)
                          M         bsf     STATUS, RP0
                          M       endif
                          M       if (PREV_BANK == 2)
                          M         bsf     STATUS, RP0
                          M         bcf     STATUS, RP1
                          M       endif
                          M       if (PREV_BANK == 3)
                          M         bcf     STATUS, RP1
                          M       endif
                          M PREV_BANK = 1
                          M     endif
                          M 
                          M     if (((_tempMax) & 180h) == 100h)
                          M       if (PREV_BANK == 0)
                          M         bsf     STATUS, RP1
                          M       endif
                          M       if (PREV_BANK == 1)
                          M         bcf     STATUS, RP0
                          M         bsf     STATUS, RP1
                          M       endif
                          M       if (PREV_BANK == 3)
                          M         bcf     STATUS, RP0
                          M       endif
                          M PREV_BANK = 2
                          M     endif
                          M 
                          M     if (((_tempMax) & 180h) == 180h)
                          M       if (PREV_BANK == 0)
                          M         bsf     STATUS, RP0
                          M         bsf     STATUS, RP1
                          M       endif
                          M       if (PREV_BANK == 1)
                          M         bsf     STATUS, RP1
                          M       endif
                          M       if (PREV_BANK == 2)
                          M         bsf     STATUS, RP0
MPASM  5.49                      SDCCON~1.ASM   7-1-2005  0:07:41         PAGE 281


LOC  OBJECT CODE     LINE SOURCE TEXT
  VALUE

                          M       endif
                          M PREV_BANK = 3
                          M     endif
0325   023A               M         subwf   _tempMax, W
                          M         BIT?GOTO 1, STATUS, C, _grabar2
                          M     if ($ == (_grabar2))
                          M         CLRWDT?
                          M     endif
                          M 
                          M     if (CODE_SIZE >= 4)
                          M       if (((_grabar2) & 800h) == 0)
0326   118A               M         bcf     PCLATH, 3
                          M       else
                          M         bsf     PCLATH, 3
                          M       endif
                          M     endif
                          M     if (CODE_SIZE == 8)
                          M       if (((_grabar2) & 1000h) == 0)
0327   120A               M         bcf     PCLATH, 4
                          M       else
                          M         bsf     PCLATH, 4
                          M       endif
                          M     endif
                          M 
                          M     if (((STATUS) & 0ff80h) != 0)
                          M         CHK?RP  STATUS
                          M         bcf     STATUS, DC
                          M       if ((1)      == 0)
                          M         btfss   STATUS, C
                          M       else
                          M         btfsc   STATUS, C
                          M       endif
                          M         bsf     STATUS, DC
                          M         RST?RP
                          M         btfsc   STATUS, DC
                          M     else
                          M         RST?RP
                          M     if ((PREV_BANK & 1) != 0)
                          M         bcf     STATUS, RP0
                          M     endif
                          M     if ((PREV_BANK & 2) != 0)
                          M         bcf     STATUS, RP1
                          M     endif
  00000000                M PREV_BANK = 0
                          M       if ((1)      == 0)
                          M         btfss   STATUS, C
                          M       else
0328   1803               M         btfsc   STATUS, C
                          M       endif
                          M     endif
                          M 
0329   2A96               M         goto    _grabar2
                          M       endif
MPASM  5.49                      SDCCON~1.ASM   7-1-2005  0:07:41         PAGE 282


LOC  OBJECT CODE     LINE SOURCE TEXT
  VALUE

                          M     endif
                      00269         ADD?BCB _tempMax, 001h, _tempMax
                          M     if ((_tempMax) == (_tempMax))
                          M       if ((001h) == 1)
                          M         CHK?RP  _tempMax
                          M     if (((_tempMax) & 180h) == 0)
                          M       if (PREV_BANK == 1)
                          M         bcf     STATUS, RP0
                          M       endif
                          M       if (PREV_BANK == 2)
                          M         bcf     STATUS, RP1
                          M       endif
                          M       if (PREV_BANK == 3)
                          M         bcf     STATUS, RP0
                          M         bcf     STATUS, RP1
                          M       endif
  00000000                M PREV_BANK = 0
                          M     endif
                          M 
                          M     if (((_tempMax) & 180h) == 80h)
                          M       if (PREV_BANK == 0)
                          M         bsf     STATUS, RP0
                          M       endif
                          M       if (PREV_BANK == 2)
                          M         bsf     STATUS, RP0
                          M         bcf     STATUS, RP1
                          M       endif
                          M       if (PREV_BANK == 3)
                          M         bcf     STATUS, RP1
                          M       endif
                          M PREV_BANK = 1
                          M     endif
                          M 
                          M     if (((_tempMax) & 180h) == 100h)
                          M       if (PREV_BANK == 0)
                          M         bsf     STATUS, RP1
                          M       endif
                          M       if (PREV_BANK == 1)
                          M         bcf     STATUS, RP0
                          M         bsf     STATUS, RP1
                          M       endif
                          M       if (PREV_BANK == 3)
                          M         bcf     STATUS, RP0
                          M       endif
                          M PREV_BANK = 2
                          M     endif
                          M 
                          M     if (((_tempMax) & 180h) == 180h)
                          M       if (PREV_BANK == 0)
                          M         bsf     STATUS, RP0
                          M         bsf     STATUS, RP1
                          M       endif
                          M       if (PREV_BANK == 1)
MPASM  5.49                      SDCCON~1.ASM   7-1-2005  0:07:41         PAGE 283


LOC  OBJECT CODE     LINE SOURCE TEXT
  VALUE

                          M         bsf     STATUS, RP1
                          M       endif
                          M       if (PREV_BANK == 2)
                          M         bsf     STATUS, RP0
                          M       endif
                          M PREV_BANK = 3
                          M     endif
032A   0ABA               M         incf    _tempMax, F
                          M       else
                          M         movlw   001h
                          M         CHK?RP  _tempMax
                          M         addwf   _tempMax, F
                          M       endif
                          M     else
                          M       if ((001h) == 1)
                          M         CHK?RP  _tempMax
                          M         incf    _tempMax, W
                          M         MOVE?AB _tempMax
                          M       else
                          M         movlw   001h
                          M         CHK?RP  _tempMax
                          M         addwf   _tempMax, W
                          M         MOVE?AB _tempMax
                          M       endif
                          M     endif
                      00270         GOTO?L  _grabar2
                          M         L?GOTO  _grabar2
                          M     if ($ == (_grabar2))
                          M         CLRWDT?
                          M     endif
                          M 
                          M         RST?RP
                          M     if ((PREV_BANK & 1) != 0)
                          M         bcf     STATUS, RP0
                          M     endif
                          M     if ((PREV_BANK & 2) != 0)
                          M         bcf     STATUS, RP1
                          M     endif
  00000000                M PREV_BANK = 0
                          M 
                          M     if ((_grabar2) < 1)
                          M       if (CODE_SIZE >= 4)
                          M         if (((_grabar2) & 800h) == 0)
                          M         bcf     PCLATH, 3
                          M         else
                          M         bsf     PCLATH, 3
                          M         endif
                          M       endif
                          M       if (CODE_SIZE == 8)
                          M         if (((_grabar2) & 1000h) == 0)
                          M         bcf     PCLATH, 4
                          M         else
                          M         bsf     PCLATH, 4
MPASM  5.49                      SDCCON~1.ASM   7-1-2005  0:07:41         PAGE 284


LOC  OBJECT CODE     LINE SOURCE TEXT
  VALUE

                          M         endif
                          M       endif
                          M     else
                          M       if ((_grabar2) > $)
                          M         if (CODE_SIZE >= 4)
                          M           if (((_grabar2) & 800h) == 0)
                          M         bcf     PCLATH, 3
                          M           else
                          M         bsf     PCLATH, 3
                          M           endif
                          M         endif
                          M         if (CODE_SIZE == 8)
                          M           if (((_grabar2) & 1000h) == 0)
                          M         bcf     PCLATH, 4
                          M           else
                          M         bsf     PCLATH, 4
                          M           endif
                          M         endif
                          M       else
                          M         if (CODE_SIZE >= 4)
                          M           if (((_grabar2) & 1800h) == 0)
032B   018A               M         clrf    PCLATH
                          M           else
                          M             if (((_grabar2) & 800h) == 0)
                          M         bcf     PCLATH, 3
                          M             else
                          M         bsf     PCLATH, 3
                          M             endif
                          M             if (CODE_SIZE == 8)
                          M               if (((_grabar2) & 1000h) == 0)
                          M         bcf     PCLATH, 4
                          M               else
                          M         bsf     PCLATH, 4
                          M               endif
                          M             endif
                          M           endif
                          M         endif
                          M       endif
                          M     endif
                          M 
032C   2A96               M         goto    _grabar2
                      00271 
                      00272         LABEL?L _grabarB        
                          M         RST?RP
                          M     if ((PREV_BANK & 1) != 0)
                          M         bcf     STATUS, RP0
                          M     endif
                          M     if ((PREV_BANK & 2) != 0)
                          M         bcf     STATUS, RP1
                          M     endif
  00000000                M PREV_BANK = 0
                          M     ifdef PM_USED
                          M         LALL
MPASM  5.49                      SDCCON~1.ASM   7-1-2005  0:07:41         PAGE 285


LOC  OBJECT CODE     LINE SOURCE TEXT
  VALUE

                          M _grabarB
                          M         XALL
                          M     else
032D                      M _grabarB
                          M     endif
                      00273         GOSUB?L _soltar
  0000                    M     local dlabel
                          M     ifdef DEBUG_STACK
                          M         CHK?RP  DEBUG_STACK
                          M       ifdef DEBUG_STACK_ADDR
                          M         bcf     STATUS, C
                          M         rlf     DEBUG_STACK, W
                          M         addlw   DEBUG_STACK_ADDR
                          M         movwf   FSR
                          M         movlw   low (dlabel)
                          M         movwf   INDF
                          M         incf    FSR, F
                          M         movlw   (dlabel) >> 8
                          M         movwf   INDF
                          M       endif
                          M         incf    DEBUG_STACK, F
                          M     endif
                          M         L?CALL  _soltar
                          M         RST?RP
                          M     if ((PREV_BANK & 1) != 0)
                          M         bcf     STATUS, RP0
                          M     endif
                          M     if ((PREV_BANK & 2) != 0)
                          M         bcf     STATUS, RP1
                          M     endif
  00000000                M PREV_BANK = 0
                          M 
                          M     if ((_soltar) < 1)
                          M       if (CODE_SIZE >= 4)
                          M         if (((_soltar) & 800h) == 0)
                          M         bcf     PCLATH, 3
                          M         else
                          M         bsf     PCLATH, 3
                          M         endif
                          M       endif
                          M       if (CODE_SIZE == 8)
                          M         if (((_soltar) & 1000h) == 0)
                          M         bcf     PCLATH, 4
                          M         else
                          M         bsf     PCLATH, 4
                          M         endif
                          M       endif
                          M     else
                          M       if ((_soltar) > $)
                          M         if (CODE_SIZE >= 4)
                          M           if (((_soltar) & 800h) == 0)
032D   118A               M         bcf     PCLATH, 3
                          M           else
MPASM  5.49                      SDCCON~1.ASM   7-1-2005  0:07:41         PAGE 286


LOC  OBJECT CODE     LINE SOURCE TEXT
  VALUE

                          M         bsf     PCLATH, 3
                          M           endif
                          M         endif
                          M         if (CODE_SIZE == 8)
                          M           if (((_soltar) & 1000h) == 0)
032E   120A               M         bcf     PCLATH, 4
                          M           else
                          M         bsf     PCLATH, 4
                          M           endif
                          M         endif
                          M       else
                          M         if (CODE_SIZE >= 4)
                          M           if (((_soltar) & 1800h) == 0)
                          M         clrf    PCLATH
                          M           else
                          M             if (((_soltar) & 800h) == 0)
                          M         bcf     PCLATH, 3
                          M             else
                          M         bsf     PCLATH, 3
                          M             endif
                          M             if (CODE_SIZE == 8)
                          M               if (((_soltar) & 1000h) == 0)
                          M         bcf     PCLATH, 4
                          M               else
                          M         bsf     PCLATH, 4
                          M               endif
                          M             endif
                          M           endif
                          M         endif
                          M       endif
                          M     endif
                          M 
032F   2339               M         call    _soltar
0330                      M dlabel
                      00274         WRITE?CB        001h, _tempMax
                          M         MOVE?CB 001h, EEADR
                          M         CHK?RP  EEADR
                          M     if (((EEADR) & 180h) == 0)
                          M       if (PREV_BANK == 1)
                          M         bcf     STATUS, RP0
                          M       endif
                          M       if (PREV_BANK == 2)
                          M         bcf     STATUS, RP1
                          M       endif
                          M       if (PREV_BANK == 3)
                          M         bcf     STATUS, RP0
                          M         bcf     STATUS, RP1
                          M       endif
                          M PREV_BANK = 0
                          M     endif
                          M 
                          M     if (((EEADR) & 180h) == 80h)
                          M       if (PREV_BANK == 0)
MPASM  5.49                      SDCCON~1.ASM   7-1-2005  0:07:41         PAGE 287


LOC  OBJECT CODE     LINE SOURCE TEXT
  VALUE

                          M         bsf     STATUS, RP0
                          M       endif
                          M       if (PREV_BANK == 2)
                          M         bsf     STATUS, RP0
                          M         bcf     STATUS, RP1
                          M       endif
                          M       if (PREV_BANK == 3)
                          M         bcf     STATUS, RP1
                          M       endif
                          M PREV_BANK = 1
                          M     endif
                          M 
                          M     if (((EEADR) & 180h) == 100h)
                          M       if (PREV_BANK == 0)
0330   1703               M         bsf     STATUS, RP1
                          M       endif
                          M       if (PREV_BANK == 1)
                          M         bcf     STATUS, RP0
                          M         bsf     STATUS, RP1
                          M       endif
                          M       if (PREV_BANK == 3)
                          M         bcf     STATUS, RP0
                          M       endif
  00000002                M PREV_BANK = 2
                          M     endif
                          M 
                          M     if (((EEADR) & 180h) == 180h)
                          M       if (PREV_BANK == 0)
                          M         bsf     STATUS, RP0
                          M         bsf     STATUS, RP1
                          M       endif
                          M       if (PREV_BANK == 1)
                          M         bsf     STATUS, RP1
                          M       endif
                          M       if (PREV_BANK == 2)
                          M         bsf     STATUS, RP0
                          M       endif
                          M PREV_BANK = 3
                          M     endif
                          M     if (low (001h) == 0)
                          M         clrf    EEADR
                          M     else
0331   3001               M         movlw   low (001h)
0332   008D               M         movwf   EEADR
                          M     endif
                          M         MOVE?BA _tempMax
                          M         CHK?RP  _tempMax
                          M     if (((_tempMax) & 180h) == 0)
                          M       if (PREV_BANK == 1)
                          M         bcf     STATUS, RP0
                          M       endif
                          M       if (PREV_BANK == 2)
0333   1303               M         bcf     STATUS, RP1
MPASM  5.49                      SDCCON~1.ASM   7-1-2005  0:07:41         PAGE 288


LOC  OBJECT CODE     LINE SOURCE TEXT
  VALUE

                          M       endif
                          M       if (PREV_BANK == 3)
                          M         bcf     STATUS, RP0
                          M         bcf     STATUS, RP1
                          M       endif
  00000000                M PREV_BANK = 0
                          M     endif
                          M 
                          M     if (((_tempMax) & 180h) == 80h)
                          M       if (PREV_BANK == 0)
                          M         bsf     STATUS, RP0
                          M       endif
                          M       if (PREV_BANK == 2)
                          M         bsf     STATUS, RP0
                          M         bcf     STATUS, RP1
                          M       endif
                          M       if (PREV_BANK == 3)
                          M         bcf     STATUS, RP1
                          M       endif
                          M PREV_BANK = 1
                          M     endif
                          M 
                          M     if (((_tempMax) & 180h) == 100h)
                          M       if (PREV_BANK == 0)
                          M         bsf     STATUS, RP1
                          M       endif
                          M       if (PREV_BANK == 1)
                          M         bcf     STATUS, RP0
                          M         bsf     STATUS, RP1
                          M       endif
                          M       if (PREV_BANK == 3)
                          M         bcf     STATUS, RP0
                          M       endif
                          M PREV_BANK = 2
                          M     endif
                          M 
                          M     if (((_tempMax) & 180h) == 180h)
                          M       if (PREV_BANK == 0)
                          M         bsf     STATUS, RP0
                          M         bsf     STATUS, RP1
                          M       endif
                          M       if (PREV_BANK == 1)
                          M         bsf     STATUS, RP1
                          M       endif
                          M       if (PREV_BANK == 2)
                          M         bsf     STATUS, RP0
                          M       endif
                          M PREV_BANK = 3
                          M     endif
0334   083A               M         movf    _tempMax, W
                          M         L?CALL  WRITE
                          M         RST?RP
                          M     if ((PREV_BANK & 1) != 0)
MPASM  5.49                      SDCCON~1.ASM   7-1-2005  0:07:41         PAGE 289


LOC  OBJECT CODE     LINE SOURCE TEXT
  VALUE

                          M         bcf     STATUS, RP0
                          M     endif
                          M     if ((PREV_BANK & 2) != 0)
                          M         bcf     STATUS, RP1
                          M     endif
  00000000                M PREV_BANK = 0
                          M 
                          M     if ((WRITE) < 1)
                          M       if (CODE_SIZE >= 4)
                          M         if (((WRITE) & 800h) == 0)
                          M         bcf     PCLATH, 3
                          M         else
                          M         bsf     PCLATH, 3
                          M         endif
                          M       endif
                          M       if (CODE_SIZE == 8)
                          M         if (((WRITE) & 1000h) == 0)
                          M         bcf     PCLATH, 4
                          M         else
                          M         bsf     PCLATH, 4
                          M         endif
                          M       endif
                          M     else
                          M       if ((WRITE) > $)
                          M         if (CODE_SIZE >= 4)
                          M           if (((WRITE) & 800h) == 0)
                          M         bcf     PCLATH, 3
                          M           else
                          M         bsf     PCLATH, 3
                          M           endif
                          M         endif
                          M         if (CODE_SIZE == 8)
                          M           if (((WRITE) & 1000h) == 0)
                          M         bcf     PCLATH, 4
                          M           else
                          M         bsf     PCLATH, 4
                          M           endif
                          M         endif
                          M       else
                          M         if (CODE_SIZE >= 4)
                          M           if (((WRITE) & 1800h) == 0)
0335   018A               M         clrf    PCLATH
                          M           else
                          M             if (((WRITE) & 800h) == 0)
                          M         bcf     PCLATH, 3
                          M             else
                          M         bsf     PCLATH, 3
                          M             endif
                          M             if (CODE_SIZE == 8)
                          M               if (((WRITE) & 1000h) == 0)
                          M         bcf     PCLATH, 4
                          M               else
                          M         bsf     PCLATH, 4
MPASM  5.49                      SDCCON~1.ASM   7-1-2005  0:07:41         PAGE 290


LOC  OBJECT CODE     LINE SOURCE TEXT
  VALUE

                          M               endif
                          M             endif
                          M           endif
                          M         endif
                          M       endif
                          M     endif
                          M 
0336   209B               M         call    WRITE
                      00275         GOTO?L  _inicio
                          M         L?GOTO  _inicio
                          M     if ($ == (_inicio))
                          M         CLRWDT?
                          M     endif
                          M 
                          M         RST?RP
                          M     if ((PREV_BANK & 1) != 0)
                          M         bcf     STATUS, RP0
                          M     endif
                          M     if ((PREV_BANK & 2) != 0)
                          M         bcf     STATUS, RP1
                          M     endif
  00000000                M PREV_BANK = 0
                          M 
                          M     if ((_inicio) < 1)
                          M       if (CODE_SIZE >= 4)
                          M         if (((_inicio) & 800h) == 0)
                          M         bcf     PCLATH, 3
                          M         else
                          M         bsf     PCLATH, 3
                          M         endif
                          M       endif
                          M       if (CODE_SIZE == 8)
                          M         if (((_inicio) & 1000h) == 0)
                          M         bcf     PCLATH, 4
                          M         else
                          M         bsf     PCLATH, 4
                          M         endif
                          M       endif
                          M     else
                          M       if ((_inicio) > $)
                          M         if (CODE_SIZE >= 4)
                          M           if (((_inicio) & 800h) == 0)
                          M         bcf     PCLATH, 3
                          M           else
                          M         bsf     PCLATH, 3
                          M           endif
                          M         endif
                          M         if (CODE_SIZE == 8)
                          M           if (((_inicio) & 1000h) == 0)
                          M         bcf     PCLATH, 4
                          M           else
                          M         bsf     PCLATH, 4
                          M           endif
MPASM  5.49                      SDCCON~1.ASM   7-1-2005  0:07:41         PAGE 291


LOC  OBJECT CODE     LINE SOURCE TEXT
  VALUE

                          M         endif
                          M       else
                          M         if (CODE_SIZE >= 4)
                          M           if (((_inicio) & 1800h) == 0)
0337   018A               M         clrf    PCLATH
                          M           else
                          M             if (((_inicio) & 800h) == 0)
                          M         bcf     PCLATH, 3
                          M             else
                          M         bsf     PCLATH, 3
                          M             endif
                          M             if (CODE_SIZE == 8)
                          M               if (((_inicio) & 1000h) == 0)
                          M         bcf     PCLATH, 4
                          M               else
                          M         bsf     PCLATH, 4
                          M               endif
                          M             endif
                          M           endif
                          M         endif
                          M       endif
                          M     endif
                          M 
0338   2911               M         goto    _inicio
                      00276 
                      00277         LABEL?L _soltar 
                          M         RST?RP
                          M     if ((PREV_BANK & 1) != 0)
                          M         bcf     STATUS, RP0
                          M     endif
                          M     if ((PREV_BANK & 2) != 0)
                          M         bcf     STATUS, RP1
                          M     endif
  00000000                M PREV_BANK = 0
                          M     ifdef PM_USED
                          M         LALL
                          M _soltar
                          M         XALL
                          M     else
0339                      M _soltar
                          M     endif
                      00278 
                      00279         LABEL?L _soltar2        
                          M         RST?RP
                          M     if ((PREV_BANK & 1) != 0)
                          M         bcf     STATUS, RP0
                          M     endif
                          M     if ((PREV_BANK & 2) != 0)
                          M         bcf     STATUS, RP1
                          M     endif
  00000000                M PREV_BANK = 0
                          M     ifdef PM_USED
                          M         LALL
MPASM  5.49                      SDCCON~1.ASM   7-1-2005  0:07:41         PAGE 292


LOC  OBJECT CODE     LINE SOURCE TEXT
  VALUE

                          M _soltar2
                          M         XALL
                          M     else
0339                      M _soltar2
                          M     endif
                      00280         CMPEQ?TCL       _botonBajar, 001h, _soltar2
                          M     if (((001h) == 0) | ((001h) == 1))
                          M         CLRWDT?
                          M     ifndef NO_CLRWDT
0339   0064               M         clrwdt
                          M     endif
                          M         BIT?GOTO 001h, PORTD, 006h, _soltar2
                          M     if ($ == (_soltar2))
                          M         CLRWDT?
                          M     endif
                          M 
                          M     if (CODE_SIZE >= 4)
                          M       if (((_soltar2) & 800h) == 0)
033A   118A               M         bcf     PCLATH, 3
                          M       else
                          M         bsf     PCLATH, 3
                          M       endif
                          M     endif
                          M     if (CODE_SIZE == 8)
                          M       if (((_soltar2) & 1000h) == 0)
033B   120A               M         bcf     PCLATH, 4
                          M       else
                          M         bsf     PCLATH, 4
                          M       endif
                          M     endif
                          M 
                          M     if (((PORTD) & 0ff80h) != 0)
                          M         CHK?RP  PORTD
                          M         bcf     STATUS, DC
                          M       if ((001h)   == 0)
                          M         btfss   PORTD, 006h
                          M       else
                          M         btfsc   PORTD, 006h
                          M       endif
                          M         bsf     STATUS, DC
                          M         RST?RP
                          M         btfsc   STATUS, DC
                          M     else
                          M         RST?RP
                          M     if ((PREV_BANK & 1) != 0)
                          M         bcf     STATUS, RP0
                          M     endif
                          M     if ((PREV_BANK & 2) != 0)
                          M         bcf     STATUS, RP1
                          M     endif
  00000000                M PREV_BANK = 0
                          M       if ((001h)   == 0)
                          M         btfss   PORTD, 006h
MPASM  5.49                      SDCCON~1.ASM   7-1-2005  0:07:41         PAGE 293


LOC  OBJECT CODE     LINE SOURCE TEXT
  VALUE

                          M       else
033C   1B08               M         btfsc   PORTD, 006h
                          M       endif
                          M     endif
                          M 
033D   2B39               M         goto    _soltar2
                          M     endif
                      00281         CMPEQ?TCL       _botonSubir, 001h, _soltar2
                          M     if (((001h) == 0) | ((001h) == 1))
                          M         CLRWDT?
                          M     ifndef NO_CLRWDT
033E   0064               M         clrwdt
                          M     endif
                          M         BIT?GOTO 001h, PORTD, 007h, _soltar2
                          M     if ($ == (_soltar2))
                          M         CLRWDT?
                          M     endif
                          M 
                          M     if (CODE_SIZE >= 4)
                          M       if (((_soltar2) & 800h) == 0)
033F   118A               M         bcf     PCLATH, 3
                          M       else
                          M         bsf     PCLATH, 3
                          M       endif
                          M     endif
                          M     if (CODE_SIZE == 8)
                          M       if (((_soltar2) & 1000h) == 0)
0340   120A               M         bcf     PCLATH, 4
                          M       else
                          M         bsf     PCLATH, 4
                          M       endif
                          M     endif
                          M 
                          M     if (((PORTD) & 0ff80h) != 0)
                          M         CHK?RP  PORTD
                          M         bcf     STATUS, DC
                          M       if ((001h)   == 0)
                          M         btfss   PORTD, 007h
                          M       else
                          M         btfsc   PORTD, 007h
                          M       endif
                          M         bsf     STATUS, DC
                          M         RST?RP
                          M         btfsc   STATUS, DC
                          M     else
                          M         RST?RP
                          M     if ((PREV_BANK & 1) != 0)
                          M         bcf     STATUS, RP0
                          M     endif
                          M     if ((PREV_BANK & 2) != 0)
                          M         bcf     STATUS, RP1
                          M     endif
  00000000                M PREV_BANK = 0
MPASM  5.49                      SDCCON~1.ASM   7-1-2005  0:07:41         PAGE 294


LOC  OBJECT CODE     LINE SOURCE TEXT
  VALUE

                          M       if ((001h)   == 0)
                          M         btfss   PORTD, 007h
                          M       else
0341   1B88               M         btfsc   PORTD, 007h
                          M       endif
                          M     endif
                          M 
0342   2B39               M         goto    _soltar2
                          M     endif
                      00282         CMPEQ?TCL       _enter, 001h, _soltar2
                          M     if (((001h) == 0) | ((001h) == 1))
                          M         CLRWDT?
                          M     ifndef NO_CLRWDT
0343   0064               M         clrwdt
                          M     endif
                          M         BIT?GOTO 001h, PORTD, 005h, _soltar2
                          M     if ($ == (_soltar2))
                          M         CLRWDT?
                          M     endif
                          M 
                          M     if (CODE_SIZE >= 4)
                          M       if (((_soltar2) & 800h) == 0)
0344   118A               M         bcf     PCLATH, 3
                          M       else
                          M         bsf     PCLATH, 3
                          M       endif
                          M     endif
                          M     if (CODE_SIZE == 8)
                          M       if (((_soltar2) & 1000h) == 0)
0345   120A               M         bcf     PCLATH, 4
                          M       else
                          M         bsf     PCLATH, 4
                          M       endif
                          M     endif
                          M 
                          M     if (((PORTD) & 0ff80h) != 0)
                          M         CHK?RP  PORTD
                          M         bcf     STATUS, DC
                          M       if ((001h)   == 0)
                          M         btfss   PORTD, 005h
                          M       else
                          M         btfsc   PORTD, 005h
                          M       endif
                          M         bsf     STATUS, DC
                          M         RST?RP
                          M         btfsc   STATUS, DC
                          M     else
                          M         RST?RP
                          M     if ((PREV_BANK & 1) != 0)
                          M         bcf     STATUS, RP0
                          M     endif
                          M     if ((PREV_BANK & 2) != 0)
                          M         bcf     STATUS, RP1
MPASM  5.49                      SDCCON~1.ASM   7-1-2005  0:07:41         PAGE 295


LOC  OBJECT CODE     LINE SOURCE TEXT
  VALUE

                          M     endif
  00000000                M PREV_BANK = 0
                          M       if ((001h)   == 0)
                          M         btfss   PORTD, 005h
                          M       else
0346   1A88               M         btfsc   PORTD, 005h
                          M       endif
                          M     endif
                          M 
0347   2B39               M         goto    _soltar2
                          M     endif
                      00283         PAUSE?C 064h
                          M     if (((064h) >> 8) == 0)
                          M         MOVE?CA 064h
0348   3064               M         movlw   low (064h)
                          M         L?CALL  PAUSE
                          M         RST?RP
                          M     if ((PREV_BANK & 1) != 0)
                          M         bcf     STATUS, RP0
                          M     endif
                          M     if ((PREV_BANK & 2) != 0)
                          M         bcf     STATUS, RP1
                          M     endif
  00000000                M PREV_BANK = 0
                          M 
                          M     if ((PAUSE) < 1)
                          M       if (CODE_SIZE >= 4)
                          M         if (((PAUSE) & 800h) == 0)
                          M         bcf     PCLATH, 3
                          M         else
                          M         bsf     PCLATH, 3
                          M         endif
                          M       endif
                          M       if (CODE_SIZE == 8)
                          M         if (((PAUSE) & 1000h) == 0)
                          M         bcf     PCLATH, 4
                          M         else
                          M         bsf     PCLATH, 4
                          M         endif
                          M       endif
                          M     else
                          M       if ((PAUSE) > $)
                          M         if (CODE_SIZE >= 4)
                          M           if (((PAUSE) & 800h) == 0)
                          M         bcf     PCLATH, 3
                          M           else
                          M         bsf     PCLATH, 3
                          M           endif
                          M         endif
                          M         if (CODE_SIZE == 8)
                          M           if (((PAUSE) & 1000h) == 0)
                          M         bcf     PCLATH, 4
                          M           else
MPASM  5.49                      SDCCON~1.ASM   7-1-2005  0:07:41         PAGE 296


LOC  OBJECT CODE     LINE SOURCE TEXT
  VALUE

                          M         bsf     PCLATH, 4
                          M           endif
                          M         endif
                          M       else
                          M         if (CODE_SIZE >= 4)
                          M           if (((PAUSE) & 1800h) == 0)
0349   018A               M         clrf    PCLATH
                          M           else
                          M             if (((PAUSE) & 800h) == 0)
                          M         bcf     PCLATH, 3
                          M             else
                          M         bsf     PCLATH, 3
                          M             endif
                          M             if (CODE_SIZE == 8)
                          M               if (((PAUSE) & 1000h) == 0)
                          M         bcf     PCLATH, 4
                          M               else
                          M         bsf     PCLATH, 4
                          M               endif
                          M             endif
                          M           endif
                          M         endif
                          M       endif
                          M     endif
                          M 
034A   20A9               M         call    PAUSE
                          M     else
                          M         MOVE?CB (064h) >> 8, R1 + 1
                          M         MOVE?CA low (064h)
                          M         L?CALL  PAUSEL
                          M     endif
                      00284         RETURN? 
                          M     ifdef DEBUG_STACK
                          M         CHK?RP  DEBUG_STACK
                          M         decf    DEBUG_STACK, F
                          M     endif
                          M         RST?RP
                          M     if ((PREV_BANK & 1) != 0)
                          M         bcf     STATUS, RP0
                          M     endif
                          M     if ((PREV_BANK & 2) != 0)
                          M         bcf     STATUS, RP1
                          M     endif
  00000000                M PREV_BANK = 0
034B   0008               M         return
                      00285 
                      00286         END
MPASM  5.49                      SDCCON~1.ASM   7-1-2005  0:07:41         PAGE 297


SYMBOL TABLE
  LABEL                             VALUE 

ACKDT                             00000005
ACKEN                             00000004
ACKSTAT                           00000006
ADCIN                             00000080
ADCIN?CW                          
ADCIN_USED                        00000001
ADCON0                            0000001F
ADCON1                            0000009F
ADCS0                             00000006
ADCS1                             00000007
ADCS2                             00000006
ADC_BITS                          10
ADC_CLOCK                         3
ADC_SAMPLEUS                      50
ADD?BCB                           
ADDEN                             00000003
ADFM                              00000007
ADIE                              00000006
ADIF                              00000006
ADON                              00000000
ADRESH                            0000001E
ADRESL                            0000009E
BANK0_END                         0000007F
BANK0_START                       00000020
BANK1_END                         000000EF
BANK1_START                       000000A0
BANK2_END                         0000016F
BANK2_START                       00000110
BANK3_END                         000001EF
BANK3_START                       00000190
BCLIE                             00000003
BCLIF                             00000003
BF                                00000000
BIT?FLIP                          
BIT?FW                            
BIT?GOTO                          
BIT?R1                            
BIT?R2                            
BIT?W                             
BRGH                              00000002
BUTTON_PAUSE                      0000000A
C                                 00000000
C1INV                             00000004
C1OUT                             00000006
C2INV                             00000005
C2OUT                             00000007
CCP1CON                           00000017
CCP1IE                            00000002
CCP1IF                            00000002
CCP1M0                            00000000
CCP1M1                            00000001
CCP1M2                            00000002
CCP1M3                            00000003
MPASM  5.49                      SDCCON~1.ASM   7-1-2005  0:07:41         PAGE 298


SYMBOL TABLE
  LABEL                             VALUE 

CCP1X                             00000005
CCP1Y                             00000004
CCP1_BIT                          00000002
CCP1_REG                          00000007
CCP2CON                           0000001D
CCP2IE                            00000000
CCP2IF                            00000000
CCP2M0                            00000000
CCP2M1                            00000001
CCP2M2                            00000002
CCP2M3                            00000003
CCP2X                             00000005
CCP2Y                             00000004
CCP2_BIT                          00000001
CCP2_REG                          00000007
CCPR1                             00000015
CCPR1H                            00000016
CCPR1L                            00000015
CCPR2                             0000001B
CCPR2H                            0000001C
CCPR2L                            0000001B
CHK?RP                            
CHS0                              00000003
CHS1                              00000004
CHS2                              00000005
CIS                               00000003
CKE                               00000006
CKP                               00000004
CLRWDT?                           
CLRWDT?NOP                        
CM0                               00000000
CM1                               00000001
CM2                               00000002
CMCON                             0000009C
CMIE                              00000006
CMIF                              00000006
CMP                               000000D3
CMPEQ?TCL                         
CMPGT                             000000CC
CMPGT?BCL                         
CMPGT?WBL                         
CMPGTW                            000000CB
CMPGTW_USED                       00000001
CMPGT_USED                        00000001
CMPLT                             000000D0
CMPLT?BCL                         
CMPLT?WBL                         
CMPLTW                            000000CF
CMPLTW_USED                       00000001
CMPLT_USED                        00000001
CMP_USED                          00000001
CODE_SIZE                         8
CREN                              00000004
MPASM  5.49                      SDCCON~1.ASM   7-1-2005  0:07:41         PAGE 299


SYMBOL TABLE
  LABEL                             VALUE 

CSRC                              00000007
CVR0                              00000000
CVR1                              00000001
CVR2                              00000002
CVR3                              00000003
CVRCON                            0000009D
CVREN                             00000007
CVROE                             00000006
CVRR                              00000005
D                                 00000005
DATA_ADDRESS                      00000005
DC                                00000001
DEBUGIN_BIT                       00000000
DEBUGIN_MODE                      00000001
DEBUGIN_REG                       00000006
DEBUG_BAUD                        00000960
DEBUG_BIT                         00000000
DEBUG_DELAY                       00000193
DEBUG_MODE                        00000001
DEBUG_REG                         00000006
DIV                               000000E3
DIV32DIV                          000000E5
DIV?WCW                           
DIV_USED                          00000001
DONE                              00000104
DONERET                           00000108
DONE_USED                         00000001
D_A                               00000005
D_NOT_A                           00000005
EEADR                             0000010D
EEADRH                            0000010F
EECON1                            0000018C
EECON2                            0000018D
EEDATA                            0000010C
EEDATH                            0000010E
EEIE                              00000004
EEIF                              00000004
EEPGD                             00000007
EEPROM_END                        000021FF
EEPROM_START                      00002100
F                                 00000001
FERR                              00000002
FLAGS                             00000032
FLAGS_USED                        00000001
FSR                               00000004
GCEN                              00000007
GIE                               00000007
GO                                00000002
GOP                               00000033
GOSUB?L                           
GOTO?L                            
GO_DONE                           00000002
GO_NOT_DONE                       00000002
MPASM  5.49                      SDCCON~1.ASM   7-1-2005  0:07:41         PAGE 300


SYMBOL TABLE
  LABEL                             VALUE 

HIGH?T                            
HSER_BAUD                         00000960
HSER_BITS                         00000008
HSER_RCSTA                        00000090
HSER_SPBRG                        00000019
HSER_TXSTA                        00000020
I2CFIRSTFLAG                      FLAGS, 2
I2CREADFLAG                       FLAGS, 3
I2CSTOPFLAG                       FLAGS, 5
I2CSTOPSTRFLAG                    FLAGS, 6
I2CWRITEFLAG                      FLAGS, 4
I2C_DATA                          00000005
I2C_READ                          00000002
I2C_START                         00000003
I2C_STOP                          00000004
IBF                               00000007
IBOV                              00000005
INDF                              00000000
INIT                              00000109
INTCON                            0000000B
INTE                              00000004
INTEDG                            00000006
INTF                              00000001
IRP                               00000007
JUMPMAN                           000000FF
JUMPMAN_USED                      00000001
L00001                            000001AB
L00002                            000001BF
L?CALL                            
L?GOTO                            
LABEL?L                           
LCDCDFLAG                         FLAGS, 0
LCDINITFLAG                       FLAGS, 1
LCDOUT                            00000003
LCDOUT?C                          
LCDOUTCOUNT?C                     
LCDOUTDEC?                        
LCDOUTJ                           00000002
LCDOUTJ_USED                      00000001
LCDOUTNUM?B                       
LCDOUTNUM?W                       
LCDOUT_USED                       00000001
LCD_BITS                          00000004
LCD_COMMANDUS                     000005DC
LCD_DATAUS                        0000002C
LCD_DBIT                          0
LCD_DREG                          PORTB
LCD_EBIT                          5
LCD_EREG                          PORTB
LCD_LINES                         00000002
LCD_RSBIT                         4
LCD_RSREG                         PORTB
LCD_RWBIT                         00000004
MPASM  5.49                      SDCCON~1.ASM   7-1-2005  0:07:41         PAGE 301


SYMBOL TABLE
  LABEL                             VALUE 

LCD_RWREG                         00000006
LOW?T                             
MOVE?AB                           
MOVE?AT                           
MOVE?AW                           
MOVE?AWW                          
MOVE?BA                           
MOVE?BB                           
MOVE?BT                           
MOVE?BW                           
MOVE?CA                           
MOVE?CB                           
MOVE?CT                           
MOVE?CW                           
MOVE?TA                           
MOVE?TB                           
MOVE?TT                           
MOVE?TW                           
MOVE?WA                           
MOVE?WB                           
MOVE?WT                           
MOVE?WW                           
MOVE?WWA                          
NEXT?BCL                          
NOT_A                             00000005
NOT_ADDRESS                       00000005
NOT_BO                            00000000
NOT_BOR                           00000000
NOT_DONE                          00000002
NOT_PD                            00000003
NOT_POR                           00000001
NOT_RBPU                          00000007
NOT_RC8                           00000006
NOT_T1SYNC                        00000002
NOT_TO                            00000004
NOT_TX8                           00000006
NOT_W                             00000002
NOT_WRITE                         00000002
OBF                               00000006
OERR                              00000001
OPTION_REG                        00000081
OSC                               00000004
OSC_VALID                         00000001
P                                 00000004
PAUSE                             000000A9
PAUSE?C                           
PAUSEL                            000000AA
PAUSEUS                           000000B6
PAUSEUSL                          000000B7
PAUSEUS_USED                      00000001
PAUSE_DELAY                       000003DF
PAUSE_USED                        00000001
PCFG0                             00000000
MPASM  5.49                      SDCCON~1.ASM   7-1-2005  0:07:41         PAGE 302


SYMBOL TABLE
  LABEL                             VALUE 

PCFG1                             00000001
PCFG2                             00000002
PCFG3                             00000003
PCL                               00000002
PCLATH                            0000000A
PCON                              0000008E
PEIE                              00000006
PEN                               00000002
PIE1                              0000008C
PIE2                              0000008D
PIR1                              0000000C
PIR2                              0000000D
PORTA                             00000005
PORTB                             00000006
PORTC                             00000007
PORTD                             00000008
PORTE                             00000009
PR2                               00000092
PREV_BANK                         00000000
PS0                               00000000
PS1                               00000001
PS2                               00000002
PSA                               00000003
PSPIE                             00000007
PSPIF                             00000007
PSPMODE                           00000004
R                                 00000002
R0                                00000020
R1                                00000022
R2                                00000024
R3                                00000026
R4                                00000028
R5                                0000002A
R6                                0000002C
R7                                0000002E
R8                                00000030
RA0                               00000000
RA1                               00000001
RA2                               00000002
RA3                               00000003
RA4                               00000004
RA5                               00000005
RAM_BANKS                         00000004
RAM_END                           000001EF
RAM_START                         00000020
RB0                               00000000
RB1                               00000001
RB2                               00000002
RB3                               00000003
RB4                               00000004
RB5                               00000005
RB6                               00000006
RB7                               00000007
MPASM  5.49                      SDCCON~1.ASM   7-1-2005  0:07:41         PAGE 303


SYMBOL TABLE
  LABEL                             VALUE 

RBIE                              00000003
RBIF                              00000000
RC0                               00000000
RC1                               00000001
RC2                               00000002
RC3                               00000003
RC4                               00000004
RC5                               00000005
RC6                               00000006
RC7                               00000007
RC8_9                             00000006
RC9                               00000006
RCD8                              00000000
RCEN                              00000003
RCIE                              00000005
RCIF                              00000005
RCREG                             0000001A
RCSTA                             00000018
RD                                00000000
RD0                               00000000
RD1                               00000001
RD2                               00000002
RD3                               00000003
RD4                               00000004
RD5                               00000005
RD6                               00000006
RD7                               00000007
RE0                               00000000
RE1                               00000001
RE2                               00000002
READ                              00000093
READ?CB                           
READ_USED                         00000001
READ_WRITE                        00000002
RETURN?                           
RM1                               00000034
RM2                               00000035
RP0                               00000005
RP1                               00000006
RR1                               00000036
RR2                               00000037
RSEN                              00000001
RST?RP                            
RX9                               00000006
RX9D                              00000000
R_NOT_W                           00000002
R_W                               00000002
S                                 00000003
SEN                               00000000
SEROUT2DEC                        00000052
SEROUT2DEC_USED                   00000001
SEROUT2SEND                       0000006F
SEROUT2SEND_USED                  00000001
MPASM  5.49                      SDCCON~1.ASM   7-1-2005  0:07:41         PAGE 304


SYMBOL TABLE
  LABEL                             VALUE 

SMP                               00000007
SPBRG                             00000099
SPEN                              00000007
SREN                              00000005
SSPADD                            00000093
SSPBUF                            00000013
SSPCON                            00000014
SSPCON2                           00000091
SSPEN                             00000005
SSPIE                             00000003
SSPIF                             00000003
SSPM0                             00000000
SSPM1                             00000001
SSPM2                             00000002
SSPM3                             00000003
SSPOV                             00000006
SSPSTAT                           00000094
STATUS                            00000003
SUB?BCB                           
SYNC                              00000004
T0CS                              00000005
T0IE                              00000005
T0IF                              00000002
T0SE                              00000004
T1CKPS0                           00000004
T1CKPS1                           00000005
T1CON                             00000010
T1INSYNC                          00000002
T1OSCEN                           00000003
T1SYNC                            00000002
T2CKPS0                           00000000
T2CKPS1                           00000001
T2CON                             00000012
TABLE?C                           
TMR0                              00000001
TMR0IE                            00000005
TMR0IF                            00000002
TMR1                              0000000E
TMR1CS                            00000001
TMR1H                             0000000F
TMR1IE                            00000000
TMR1IF                            00000000
TMR1L                             0000000E
TMR1ON                            00000000
TMR2                              00000011
TMR2IE                            00000001
TMR2IF                            00000001
TMR2ON                            00000002
TOUTPS0                           00000003
TOUTPS1                           00000004
TOUTPS2                           00000005
TOUTPS3                           00000006
TRISA                             00000085
MPASM  5.49                      SDCCON~1.ASM   7-1-2005  0:07:41         PAGE 305


SYMBOL TABLE
  LABEL                             VALUE 

TRISA0                            00000000
TRISA1                            00000001
TRISA2                            00000002
TRISA3                            00000003
TRISA4                            00000004
TRISA5                            00000005
TRISB                             00000086
TRISB0                            00000000
TRISB1                            00000001
TRISB2                            00000002
TRISB3                            00000003
TRISB4                            00000004
TRISB5                            00000005
TRISB6                            00000006
TRISB7                            00000007
TRISC                             00000087
TRISC0                            00000000
TRISC1                            00000001
TRISC2                            00000002
TRISC3                            00000003
TRISC4                            00000004
TRISC5                            00000005
TRISC6                            00000006
TRISC7                            00000007
TRISD                             00000088
TRISD0                            00000000
TRISD1                            00000001
TRISD2                            00000002
TRISD3                            00000003
TRISD4                            00000004
TRISD5                            00000005
TRISD6                            00000006
TRISD7                            00000007
TRISE                             00000089
TRISE0                            00000000
TRISE1                            00000001
TRISE2                            00000002
TRMT                              00000001
TX8_9                             00000006
TX9                               00000006
TX9D                              00000000
TXD8                              00000000
TXEN                              00000005
TXIE                              00000004
TXIF                              00000004
TXREG                             00000019
TXSTA                             00000098
UA                                00000001
W                                 00000000
WCOL                              00000007
WR                                00000001
WREN                              00000002
WRERR                             00000003
MPASM  5.49                      SDCCON~1.ASM   7-1-2005  0:07:41         PAGE 306


SYMBOL TABLE
  LABEL                             VALUE 

WRITE                             0000009B
WRITE?CB                          
WRITE_USED                        00000001
Z                                 00000002
_BODEN_OFF                        00003FBF
_BODEN_ON                         00003FFF
_BOREN_OFF                        00003FBF
_BOREN_ON                         00003FFF
_CONFIG                           00002007
_CPD_OFF                          00003FFF
_CPD_ON                           00003EFF
_CP_ALL                           00001FFF
_CP_OFF                           00003FFF
_CP_ON                            00001FFF
_DEBUG_OFF                        00003FFF
_DEBUG_ON                         000037FF
_DEVID1                           00002006
_FOSC_EXTRC                       00003FFF
_FOSC_HS                          00003FFE
_FOSC_LP                          00003FFC
_FOSC_XT                          00003FFD
_HS_OSC                           00003FFE
_IDLOC0                           00002000
_IDLOC1                           00002001
_IDLOC2                           00002002
_IDLOC3                           00002003
_LP_OSC                           00003FFC
_LVP_OFF                          00003F7F
_LVP_ON                           00003FFF
_PORTD??3                         PORTD, 003h
_PORTD??4                         PORTD, 004h
_PORTD??5                         PORTD, 005h
_PORTD??6                         PORTD, 006h
_PORTD??7                         PORTD, 007h
_PORTH                            00000007
_PORTL                            00000006
_PWRTE_OFF                        00003FFF
_PWRTE_ON                         00003FF7
_RC_OSC                           00003FFF
_TRISH                            00000087
_TRISL                            00000086
_USED                             00000001
_WDTE_OFF                         00003FFB
_WDTE_ON                          00003FFF
_WDT_OFF                          00003FFB
_WDT_ON                           00003FFF
_WRT_1FOURTH                      00003BFF
_WRT_256                          00003DFF
_WRT_HALF                         000039FF
_WRT_OFF                          00003FFF
_XT_OSC                           00003FFD
__16F877A                         00000001
_botonBajar                       _PORTD??6
MPASM  5.49                      SDCCON~1.ASM   7-1-2005  0:07:41         PAGE 307


SYMBOL TABLE
  LABEL                             VALUE 

_botonSubir                       _PORTD??7
_calentar                         000001DF
_calf                             _PORTD??3
_dato                             00000038
_enfriar                          000001E9
_enter                            _PORTD??5
_g                                000000DF
_grabar1                          000001F6
_grabar1a                         000001F3
_grabar2                          00000296
_grabarA                          0000028D
_grabarB                          0000032D
_inicio                           00000111
_restar1                          00000273
_restar2                          00000313
_sensar                           00000119
_soltar                           00000339
_soltar2                          00000339
_sumar1                           00000280
_sumar2                           00000320
_tempMax                          0000003A
_tempMin                          0000003B
_vent                             _PORTD??4
_x                                0000003C
adcinloop                         0000008C
cmpnoteq                          000000DA
divloop                           000000E7
divok                             000000F9
lcdchkcd                          0000003C
lcdloop                           00000043
lcdout1                           0000002E
lcdoutcom                         0000002D
lcdsend                           00000041
main                              00000109
pauseloop                         000000AB
pauseusdone                       000000CA
pauseush                          000000C0
pauseusloop                       000000BD
serout2ddig                       00000068
serout2send1                      00000079
writeloop                         000000A5
MPASM  5.49                      SDCCON~1.ASM   7-1-2005  0:07:41         PAGE 308


MEMORY USAGE MAP ('X' = Used,  '-' = Unused)


0000 : XXXXXXXXXXXXXXXX XXXXXXXXXXXXXXXX XXXXXXXXXXXXXXXX XXXXXXXXXXXXXXXX
0040 : XXXXXXXXXXXXXXXX XXXXXXXXXXXXXXXX XXXXXXXXXXXXXXXX XXXXXXXXXXXXXXXX
0080 : XXXXXXXXXXXXXXXX XXXXXXXXXXXXXXXX XXXXXXXXXXXXXXXX XXXXXXXXXXXXXXXX
00C0 : XXXXXXXXXXXXXXXX XXXXXXXXXXXXXXXX XXXXXXXXXXXXXXXX XXXXXXXXXXXXXXXX
0100 : XXXXXXXXXXXXXXXX XXXXXXXXXXXXXXXX XXXXXXXXXXXXXXXX XXXXXXXXXXXXXXXX
0140 : XXXXXXXXXXXXXXXX XXXXXXXXXXXXXXXX XXXXXXXXXXXXXXXX XXXXXXXXXXXXXXXX
0180 : XXXXXXXXXXXXXXXX XXXXXXXXXXXXXXXX XXXXXXXXXXXXXXXX XXXXXXXXXXXXXXXX
01C0 : XXXXXXXXXXXXXXXX XXXXXXXXXXXXXXXX XXXXXXXXXXXXXXXX XXXXXXXXXXXXXXXX
0200 : XXXXXXXXXXXXXXXX XXXXXXXXXXXXXXXX XXXXXXXXXXXXXXXX XXXXXXXXXXXXXXXX
0240 : XXXXXXXXXXXXXXXX XXXXXXXXXXXXXXXX XXXXXXXXXXXXXXXX XXXXXXXXXXXXXXXX
0280 : XXXXXXXXXXXXXXXX XXXXXXXXXXXXXXXX XXXXXXXXXXXXXXXX XXXXXXXXXXXXXXXX
02C0 : XXXXXXXXXXXXXXXX XXXXXXXXXXXXXXXX XXXXXXXXXXXXXXXX XXXXXXXXXXXXXXXX
0300 : XXXXXXXXXXXXXXXX XXXXXXXXXXXXXXXX XXXXXXXXXXXXXXXX XXXXXXXXXXXXXXXX
0340 : XXXXXXXXXXXX---- ---------------- ---------------- ----------------
2000 : -------X-------- ---------------- ---------------- ----------------
2100 : XX-------------- ---------------- ---------------- ----------------

All other memory blocks unused.

Program Memory Words Used:   844
Program Memory Words Free:  7348


Errors   :     0
Warnings :     0 reported,     0 suppressed
Messages :     0 reported,    24 suppressed

